
test_gcc_arm.elf:     file format elf32-littlearm
architecture: arm, flags 0x00000112:
EXEC_P, HAS_SYMS, D_PAGED
start address 0x00000455


Disassembly of section .text:

00000000 <__isr_vector>:
       0:	10008000 	.word	0x10008000
       4:	00000455 	.word	0x00000455
       8:	00000489 	.word	0x00000489
       c:	0000048b 	.word	0x0000048b
      10:	0000048d 	.word	0x0000048d
      14:	0000048f 	.word	0x0000048f
      18:	00000491 	.word	0x00000491
	...
      2c:	00000493 	.word	0x00000493
      30:	00000495 	.word	0x00000495
      34:	00000000 	.word	0x00000000
      38:	00000497 	.word	0x00000497
      3c:	00000499 	.word	0x00000499
      40:	0000049d 	.word	0x0000049d
      44:	0000049f 	.word	0x0000049f
      48:	000004a1 	.word	0x000004a1
      4c:	000004a3 	.word	0x000004a3
      50:	000004a5 	.word	0x000004a5
      54:	000004a7 	.word	0x000004a7
      58:	000004a9 	.word	0x000004a9
      5c:	000004ab 	.word	0x000004ab
      60:	000004ad 	.word	0x000004ad
      64:	000004af 	.word	0x000004af
      68:	000004b1 	.word	0x000004b1
      6c:	000004b3 	.word	0x000004b3
      70:	000004b5 	.word	0x000004b5
      74:	000004b7 	.word	0x000004b7
      78:	000004b9 	.word	0x000004b9
      7c:	000004bb 	.word	0x000004bb
      80:	000004bd 	.word	0x000004bd
      84:	000004bf 	.word	0x000004bf
      88:	000004c1 	.word	0x000004c1
      8c:	000004c3 	.word	0x000004c3
      90:	000004c5 	.word	0x000004c5
      94:	000004c7 	.word	0x000004c7
      98:	000004c9 	.word	0x000004c9
      9c:	000004cb 	.word	0x000004cb
      a0:	000004cd 	.word	0x000004cd
      a4:	000004cf 	.word	0x000004cf
      a8:	000004d1 	.word	0x000004d1
      ac:	000004d3 	.word	0x000004d3
      b0:	000004d5 	.word	0x000004d5
      b4:	000004d7 	.word	0x000004d7
      b8:	000004d9 	.word	0x000004d9
      bc:	000004db 	.word	0x000004db
      c0:	000004dd 	.word	0x000004dd
      c4:	000004df 	.word	0x000004df
      c8:	000004e1 	.word	0x000004e1

000000cc <__do_global_dtors_aux>:
      cc:	b510      	push	{r4, lr}
      ce:	4c05      	ldr	r4, [pc, #20]	; (e4 <__do_global_dtors_aux+0x18>)
      d0:	7823      	ldrb	r3, [r4, #0]
      d2:	b933      	cbnz	r3, e2 <__do_global_dtors_aux+0x16>
      d4:	4b04      	ldr	r3, [pc, #16]	; (e8 <__do_global_dtors_aux+0x1c>)
      d6:	b113      	cbz	r3, de <__do_global_dtors_aux+0x12>
      d8:	4804      	ldr	r0, [pc, #16]	; (ec <__do_global_dtors_aux+0x20>)
      da:	f3af 8000 	nop.w
      de:	2301      	movs	r3, #1
      e0:	7023      	strb	r3, [r4, #0]
      e2:	bd10      	pop	{r4, pc}
      e4:	100002b4 	.word	0x100002b4
      e8:	00000000 	.word	0x00000000
      ec:	00008828 	.word	0x00008828

000000f0 <frame_dummy>:
      f0:	4b08      	ldr	r3, [pc, #32]	; (114 <frame_dummy+0x24>)
      f2:	b510      	push	{r4, lr}
      f4:	b11b      	cbz	r3, fe <frame_dummy+0xe>
      f6:	4908      	ldr	r1, [pc, #32]	; (118 <frame_dummy+0x28>)
      f8:	4808      	ldr	r0, [pc, #32]	; (11c <frame_dummy+0x2c>)
      fa:	f3af 8000 	nop.w
      fe:	4808      	ldr	r0, [pc, #32]	; (120 <frame_dummy+0x30>)
     100:	6803      	ldr	r3, [r0, #0]
     102:	b903      	cbnz	r3, 106 <frame_dummy+0x16>
     104:	bd10      	pop	{r4, pc}
     106:	4b07      	ldr	r3, [pc, #28]	; (124 <frame_dummy+0x34>)
     108:	2b00      	cmp	r3, #0
     10a:	d0fb      	beq.n	104 <frame_dummy+0x14>
     10c:	e8bd 4010 	ldmia.w	sp!, {r4, lr}
     110:	4718      	bx	r3
     112:	bf00      	nop
     114:	00000000 	.word	0x00000000
     118:	100002b8 	.word	0x100002b8
     11c:	00008828 	.word	0x00008828
     120:	100002b4 	.word	0x100002b4
     124:	00000000 	.word	0x00000000

00000128 <_mainCRTStartup>:
     128:	4b15      	ldr	r3, [pc, #84]	; (180 <_mainCRTStartup+0x58>)
     12a:	2b00      	cmp	r3, #0
     12c:	bf08      	it	eq
     12e:	4b13      	ldreq	r3, [pc, #76]	; (17c <_mainCRTStartup+0x54>)
     130:	469d      	mov	sp, r3
     132:	f5a3 3a80 	sub.w	r10, r3, #65536	; 0x10000
     136:	2100      	movs	r1, #0
     138:	468b      	mov	r11, r1
     13a:	460f      	mov	r7, r1
     13c:	4813      	ldr	r0, [pc, #76]	; (18c <_mainCRTStartup+0x64>)
     13e:	4a14      	ldr	r2, [pc, #80]	; (190 <_mainCRTStartup+0x68>)
     140:	1a12      	subs	r2, r2, r0
     142:	f002 f9e5 	bl	2510 <memset>
     146:	4b0f      	ldr	r3, [pc, #60]	; (184 <_mainCRTStartup+0x5c>)
     148:	2b00      	cmp	r3, #0
     14a:	d000      	beq.n	14e <_mainCRTStartup+0x26>
     14c:	4798      	blx	r3
     14e:	4b0e      	ldr	r3, [pc, #56]	; (188 <_mainCRTStartup+0x60>)
     150:	2b00      	cmp	r3, #0
     152:	d000      	beq.n	156 <_mainCRTStartup+0x2e>
     154:	4798      	blx	r3
     156:	2000      	movs	r0, #0
     158:	2100      	movs	r1, #0
     15a:	0004      	movs	r4, r0
     15c:	000d      	movs	r5, r1
     15e:	480d      	ldr	r0, [pc, #52]	; (194 <_mainCRTStartup+0x6c>)
     160:	2800      	cmp	r0, #0
     162:	d002      	beq.n	16a <_mainCRTStartup+0x42>
     164:	480c      	ldr	r0, [pc, #48]	; (198 <_mainCRTStartup+0x70>)
     166:	f3af 8000 	nop.w
     16a:	f002 f907 	bl	237c <__libc_init_array>
     16e:	0020      	movs	r0, r4
     170:	0029      	movs	r1, r5
     172:	f000 f86d 	bl	250 <main>
     176:	f000 fed3 	bl	f20 <exit>
     17a:	bf00      	nop
     17c:	00080000 	.word	0x00080000
     180:	10008000 	.word	0x10008000
	...
     18c:	100002b4 	.word	0x100002b4
     190:	100004b4 	.word	0x100004b4
	...

0000019c <mbed::Serial::~Serial()>:
     19c:	b570      	push	{r4, r5, r6, lr}
     19e:	4604      	mov	r4, r0
     1a0:	4b0a      	ldr	r3, [pc, #40]	; (1cc <mbed::Serial::~Serial()+0x30>)
     1a2:	f100 0620 	add.w	r6, r0, #32
     1a6:	6003      	str	r3, [r0, #0]
     1a8:	3334      	adds	r3, #52	; 0x34
     1aa:	6043      	str	r3, [r0, #4]
     1ac:	f100 0540 	add.w	r5, r0, #64	; 0x40
     1b0:	42b5      	cmp	r5, r6
     1b2:	d005      	beq.n	1c0 <mbed::Serial::~Serial()+0x24>
     1b4:	f855 3d10 	ldr.w	r3, [r5, #-16]!
     1b8:	681b      	ldr	r3, [r3, #0]
     1ba:	4628      	mov	r0, r5
     1bc:	4798      	blx	r3
     1be:	e7f7      	b.n	1b0 <mbed::Serial::~Serial()+0x14>
     1c0:	4620      	mov	r0, r4
     1c2:	f001 f867 	bl	1294 <mbed::Stream::~Stream()>
     1c6:	4620      	mov	r0, r4
     1c8:	bd70      	pop	{r4, r5, r6, pc}
     1ca:	bf00      	nop
     1cc:	00008230 	.word	0x00008230

000001d0 <non-virtual thunk to mbed::Serial::~Serial()>:
     1d0:	f1a0 0004 	sub.w	r0, r0, #4
     1d4:	e7e2      	b.n	19c <mbed::Serial::~Serial()>
     1d6:	bf00      	nop

000001d8 <ledtoggle(mbed::DigitalOut*, int, int)>:
     1d8:	b538      	push	{r3, r4, r5, lr}
     1da:	4604      	mov	r4, r0
     1dc:	4615      	mov	r5, r2
     1de:	68c3      	ldr	r3, [r0, #12]
     1e0:	6842      	ldr	r2, [r0, #4]
     1e2:	4608      	mov	r0, r1
     1e4:	601a      	str	r2, [r3, #0]
     1e6:	f007 fc99 	bl	7b1c <__aeabi_i2f>
     1ea:	f000 ff2b 	bl	1044 <wait>
     1ee:	6923      	ldr	r3, [r4, #16]
     1f0:	6862      	ldr	r2, [r4, #4]
     1f2:	4628      	mov	r0, r5
     1f4:	601a      	str	r2, [r3, #0]
     1f6:	f007 fc91 	bl	7b1c <__aeabi_i2f>
     1fa:	e8bd 4038 	ldmia.w	sp!, {r3, r4, r5, lr}
     1fe:	f000 bf21 	b.w	1044 <wait>
	...

00000204 <AppInit()>:
     204:	b538      	push	{r3, r4, r5, lr}
     206:	4d0f      	ldr	r5, [pc, #60]	; (244 <AppInit()+0x40>)
     208:	4c0f      	ldr	r4, [pc, #60]	; (248 <AppInit()+0x44>)
     20a:	68eb      	ldr	r3, [r5, #12]
     20c:	686a      	ldr	r2, [r5, #4]
     20e:	f04f 507c 	mov.w	r0, #1056964608	; 0x3f000000
     212:	601a      	str	r2, [r3, #0]
     214:	6862      	ldr	r2, [r4, #4]
     216:	68e3      	ldr	r3, [r4, #12]
     218:	601a      	str	r2, [r3, #0]
     21a:	f000 ff13 	bl	1044 <wait>
     21e:	692b      	ldr	r3, [r5, #16]
     220:	686a      	ldr	r2, [r5, #4]
     222:	f04f 507f 	mov.w	r0, #1069547520	; 0x3fc00000
     226:	601a      	str	r2, [r3, #0]
     228:	6862      	ldr	r2, [r4, #4]
     22a:	6923      	ldr	r3, [r4, #16]
     22c:	4c07      	ldr	r4, [pc, #28]	; (24c <AppInit()+0x48>)
     22e:	601a      	str	r2, [r3, #0]
     230:	6862      	ldr	r2, [r4, #4]
     232:	68e3      	ldr	r3, [r4, #12]
     234:	601a      	str	r2, [r3, #0]
     236:	f000 ff05 	bl	1044 <wait>
     23a:	6923      	ldr	r3, [r4, #16]
     23c:	6862      	ldr	r2, [r4, #4]
     23e:	601a      	str	r2, [r3, #0]
     240:	bd38      	pop	{r3, r4, r5, pc}
     242:	bf00      	nop
     244:	100002d0 	.word	0x100002d0
     248:	10000318 	.word	0x10000318
     24c:	10000300 	.word	0x10000300

00000250 <main>:
     250:	b508      	push	{r3, lr}
     252:	f7ff ffd7 	bl	204 <AppInit()>
     256:	4b0e      	ldr	r3, [pc, #56]	; (290 <main+0x40>)
     258:	2100      	movs	r1, #0
     25a:	461d      	mov	r5, r3
     25c:	681a      	ldr	r2, [r3, #0]
     25e:	6011      	str	r1, [r2, #0]
     260:	682b      	ldr	r3, [r5, #0]
     262:	2401      	movs	r4, #1
     264:	601c      	str	r4, [r3, #0]
     266:	4622      	mov	r2, r4
     268:	2102      	movs	r1, #2
     26a:	480a      	ldr	r0, [pc, #40]	; (294 <main+0x44>)
     26c:	f7ff ffb4 	bl	1d8 <ledtoggle(mbed::DigitalOut*, int, int)>
     270:	4622      	mov	r2, r4
     272:	2102      	movs	r1, #2
     274:	4808      	ldr	r0, [pc, #32]	; (298 <main+0x48>)
     276:	f7ff ffaf 	bl	1d8 <ledtoggle(mbed::DigitalOut*, int, int)>
     27a:	4622      	mov	r2, r4
     27c:	2102      	movs	r1, #2
     27e:	4807      	ldr	r0, [pc, #28]	; (29c <main+0x4c>)
     280:	f7ff ffaa 	bl	1d8 <ledtoggle(mbed::DigitalOut*, int, int)>
     284:	4622      	mov	r2, r4
     286:	2102      	movs	r1, #2
     288:	4805      	ldr	r0, [pc, #20]	; (2a0 <main+0x50>)
     28a:	f7ff ffa5 	bl	1d8 <ledtoggle(mbed::DigitalOut*, int, int)>
     28e:	e7e7      	b.n	260 <main+0x10>
     290:	100000cc 	.word	0x100000cc
     294:	100002d0 	.word	0x100002d0
     298:	100002e8 	.word	0x100002e8
     29c:	10000300 	.word	0x10000300
     2a0:	10000318 	.word	0x10000318

000002a4 <mbed::Serial::~Serial()>:
     2a4:	b510      	push	{r4, lr}
     2a6:	4604      	mov	r4, r0
     2a8:	f7ff ff78 	bl	19c <mbed::Serial::~Serial()>
     2ac:	4620      	mov	r0, r4
     2ae:	f001 fa1e 	bl	16ee <operator delete(void*)>
     2b2:	4620      	mov	r0, r4
     2b4:	bd10      	pop	{r4, pc}

000002b6 <non-virtual thunk to mbed::Serial::~Serial()>:
     2b6:	f1a0 0004 	sub.w	r0, r0, #4
     2ba:	e7f3      	b.n	2a4 <mbed::Serial::~Serial()>

000002bc <_GLOBAL__sub_I_flag>:
     2bc:	b510      	push	{r4, lr}
     2be:	2201      	movs	r2, #1
     2c0:	4910      	ldr	r1, [pc, #64]	; (304 <_GLOBAL__sub_I_flag+0x48>)
     2c2:	4811      	ldr	r0, [pc, #68]	; (308 <_GLOBAL__sub_I_flag+0x4c>)
     2c4:	f000 fadc 	bl	880 <gpio_init>
     2c8:	2201      	movs	r2, #1
     2ca:	4910      	ldr	r1, [pc, #64]	; (30c <_GLOBAL__sub_I_flag+0x50>)
     2cc:	4810      	ldr	r0, [pc, #64]	; (310 <_GLOBAL__sub_I_flag+0x54>)
     2ce:	f000 fad7 	bl	880 <gpio_init>
     2d2:	4c10      	ldr	r4, [pc, #64]	; (314 <_GLOBAL__sub_I_flag+0x58>)
     2d4:	2201      	movs	r2, #1
     2d6:	4910      	ldr	r1, [pc, #64]	; (318 <_GLOBAL__sub_I_flag+0x5c>)
     2d8:	4810      	ldr	r0, [pc, #64]	; (31c <_GLOBAL__sub_I_flag+0x60>)
     2da:	f000 fad1 	bl	880 <gpio_init>
     2de:	2201      	movs	r2, #1
     2e0:	490f      	ldr	r1, [pc, #60]	; (320 <_GLOBAL__sub_I_flag+0x64>)
     2e2:	4810      	ldr	r0, [pc, #64]	; (324 <_GLOBAL__sub_I_flag+0x68>)
     2e4:	f000 facc 	bl	880 <gpio_init>
     2e8:	4a0f      	ldr	r2, [pc, #60]	; (328 <_GLOBAL__sub_I_flag+0x6c>)
     2ea:	4910      	ldr	r1, [pc, #64]	; (32c <_GLOBAL__sub_I_flag+0x70>)
     2ec:	4620      	mov	r0, r4
     2ee:	2300      	movs	r3, #0
     2f0:	f000 ff20 	bl	1134 <mbed::Serial::Serial(PinName, PinName, char const*)>
     2f4:	4620      	mov	r0, r4
     2f6:	e8bd 4010 	ldmia.w	sp!, {r4, lr}
     2fa:	4a0d      	ldr	r2, [pc, #52]	; (330 <_GLOBAL__sub_I_flag+0x74>)
     2fc:	490d      	ldr	r1, [pc, #52]	; (334 <_GLOBAL__sub_I_flag+0x78>)
     2fe:	f001 b9f1 	b.w	16e4 <__aeabi_atexit>
     302:	bf00      	nop
     304:	2009c032 	.word	0x2009c032
     308:	100002d0 	.word	0x100002d0
     30c:	2009c034 	.word	0x2009c034
     310:	100002e8 	.word	0x100002e8
     314:	10000330 	.word	0x10000330
     318:	2009c035 	.word	0x2009c035
     31c:	10000300 	.word	0x10000300
     320:	2009c037 	.word	0x2009c037
     324:	10000318 	.word	0x10000318
     328:	2009c003 	.word	0x2009c003
     32c:	2009c002 	.word	0x2009c002
     330:	100000c8 	.word	0x100000c8
     334:	0000019d 	.word	0x0000019d

00000338 <NVIC_SetVector>:
     338:	f44f 436d 	mov.w	r3, #60672	; 0xed00
     33c:	f2ce 0300 	movt	r3, #57344	; 0xe000
     340:	b4f0      	push	{r4, r5, r6, r7}
     342:	689f      	ldr	r7, [r3, #8]
     344:	689a      	ldr	r2, [r3, #8]
     346:	463b      	mov	r3, r7
     348:	b9ba      	cbnz	r2, 37a <NVIC_SetVector+0x42>
     34a:	f853 5b04 	ldr.w	r5, [r3], #4
     34e:	f04f 5480 	mov.w	r4, #268435456	; 0x10000000
     352:	37c4      	adds	r7, #196	; 0xc4
     354:	6025      	str	r5, [r4, #0]
     356:	461a      	mov	r2, r3
     358:	f852 6b04 	ldr.w	r6, [r2], #4
     35c:	1d25      	adds	r5, r4, #4
     35e:	6066      	str	r6, [r4, #4]
     360:	685c      	ldr	r4, [r3, #4]
     362:	1d13      	adds	r3, r2, #4
     364:	606c      	str	r4, [r5, #4]
     366:	1d2c      	adds	r4, r5, #4
     368:	42bb      	cmp	r3, r7
     36a:	d1f4      	bne.n	356 <NVIC_SetVector+0x1e>
     36c:	f44f 426d 	mov.w	r2, #60672	; 0xed00
     370:	f04f 5380 	mov.w	r3, #268435456	; 0x10000000
     374:	f2ce 0200 	movt	r2, #57344	; 0xe000
     378:	6093      	str	r3, [r2, #8]
     37a:	3010      	adds	r0, #16
     37c:	f843 1020 	str.w	r1, [r3, r0, lsl #2]
     380:	bcf0      	pop	{r4, r5, r6, r7}
     382:	4770      	bx	lr

00000384 <SystemInit>:
     384:	f44f 4240 	mov.w	r2, #49152	; 0xc000
     388:	f2c4 020f 	movt	r2, #16399	; 0x400f
     38c:	2320      	movs	r3, #32
     38e:	b430      	push	{r4, r5}
     390:	f8c2 31a0 	str.w	r3, [r2, #416]	; 0x1a0
     394:	f8d2 01a0 	ldr.w	r0, [r2, #416]	; 0x1a0
     398:	0680      	lsls	r0, r0, #26
     39a:	d451      	bmi.n	440 <SystemInit+0xbc>
     39c:	f44f 4340 	mov.w	r3, #49152	; 0xc000
     3a0:	f2c4 030f 	movt	r3, #16399	; 0x400f
     3a4:	2500      	movs	r5, #0
     3a6:	2102      	movs	r1, #2
     3a8:	f8c3 1104 	str.w	r1, [r3, #260]	; 0x104
     3ac:	2401      	movs	r4, #1
     3ae:	f8c3 51a8 	str.w	r5, [r3, #424]	; 0x1a8
     3b2:	20aa      	movs	r0, #170	; 0xaa
     3b4:	f8c3 51ac 	str.w	r5, [r3, #428]	; 0x1ac
     3b8:	2255      	movs	r2, #85	; 0x55
     3ba:	250b      	movs	r5, #11
     3bc:	f8c3 410c 	str.w	r4, [r3, #268]	; 0x10c
     3c0:	4619      	mov	r1, r3
     3c2:	f8c3 5084 	str.w	r5, [r3, #132]	; 0x84
     3c6:	f8c3 008c 	str.w	r0, [r3, #140]	; 0x8c
     3ca:	f8c3 208c 	str.w	r2, [r3, #140]	; 0x8c
     3ce:	f8c3 4080 	str.w	r4, [r3, #128]	; 0x80
     3d2:	f8c3 008c 	str.w	r0, [r3, #140]	; 0x8c
     3d6:	f8c3 208c 	str.w	r2, [r3, #140]	; 0x8c
     3da:	f8d1 0088 	ldr.w	r0, [r1, #136]	; 0x88
     3de:	f44f 4340 	mov.w	r3, #49152	; 0xc000
     3e2:	0142      	lsls	r2, r0, #5
     3e4:	f2c4 030f 	movt	r3, #16399	; 0x400f
     3e8:	d5f7      	bpl.n	3da <SystemInit+0x56>
     3ea:	2203      	movs	r2, #3
     3ec:	f8c3 2080 	str.w	r2, [r3, #128]	; 0x80
     3f0:	20aa      	movs	r0, #170	; 0xaa
     3f2:	2255      	movs	r2, #85	; 0x55
     3f4:	f8c3 008c 	str.w	r0, [r3, #140]	; 0x8c
     3f8:	4619      	mov	r1, r3
     3fa:	f8c3 208c 	str.w	r2, [r3, #140]	; 0x8c
     3fe:	f8d1 0088 	ldr.w	r0, [r1, #136]	; 0x88
     402:	f44f 4340 	mov.w	r3, #49152	; 0xc000
     406:	f010 7f40 	tst.w	r0, #50331648	; 0x3000000
     40a:	f2c4 030f 	movt	r3, #16399	; 0x400f
     40e:	d0f6      	beq.n	3fe <SystemInit+0x7a>
     410:	f248 72de 	movw	r2, #34782	; 0x87de
     414:	f2c0 4228 	movt	r2, #1064	; 0x428
     418:	2105      	movs	r1, #5
     41a:	2000      	movs	r0, #0
     41c:	f8c3 1108 	str.w	r1, [r3, #264]	; 0x108
     420:	f8c3 20c4 	str.w	r2, [r3, #196]	; 0xc4
     424:	f8c3 01c8 	str.w	r0, [r3, #456]	; 0x1c8
     428:	681a      	ldr	r2, [r3, #0]
     42a:	f422 4170 	bic.w	r1, r2, #61440	; 0xf000
     42e:	f021 003a 	bic.w	r0, r1, #58	; 0x3a
     432:	f440 5240 	orr.w	r2, r0, #12288	; 0x3000
     436:	f042 013a 	orr.w	r1, r2, #58	; 0x3a
     43a:	6019      	str	r1, [r3, #0]
     43c:	bc30      	pop	{r4, r5}
     43e:	4770      	bx	lr
     440:	f8d2 11a0 	ldr.w	r1, [r2, #416]	; 0x1a0
     444:	0649      	lsls	r1, r1, #25
     446:	d4a9      	bmi.n	39c <SystemInit+0x18>
     448:	f8d2 11a0 	ldr.w	r1, [r2, #416]	; 0x1a0
     44c:	0649      	lsls	r1, r1, #25
     44e:	d5f7      	bpl.n	440 <SystemInit+0xbc>
     450:	e7a4      	b.n	39c <SystemInit+0x18>
     452:	bf00      	nop

00000454 <Reset_Handler>:
     454:	4907      	ldr	r1, [pc, #28]	; (474 <.flash_to_ram_loop+0x1a>)
     456:	4a08      	ldr	r2, [pc, #32]	; (478 <.flash_to_ram_loop+0x1e>)
     458:	4b08      	ldr	r3, [pc, #32]	; (47c <.flash_to_ram_loop+0x22>)

0000045a <.flash_to_ram_loop>:
     45a:	429a      	cmp	r2, r3
     45c:	bfbe      	ittt	lt
     45e:	f851 0b04 	ldrlt.w	r0, [r1], #4
     462:	f842 0b04 	strlt.w	r0, [r2], #4
     466:	f7ff bff8 	blt.w	45a <.flash_to_ram_loop>
     46a:	4805      	ldr	r0, [pc, #20]	; (480 <.flash_to_ram_loop+0x26>)
     46c:	4780      	blx	r0
     46e:	4805      	ldr	r0, [pc, #20]	; (484 <.flash_to_ram_loop+0x2a>)
     470:	4700      	bx	r0
     472:	0000      	.short	0x0000
     474:	00008834 	.word	0x00008834
     478:	100000c8 	.word	0x100000c8
     47c:	100002b4 	.word	0x100002b4
     480:	00000385 	.word	0x00000385
     484:	00000129 	.word	0x00000129

00000488 <NMI_Handler>:
     488:	e7fe      	b.n	488 <NMI_Handler>

0000048a <HardFault_Handler>:
     48a:	e7fe      	b.n	48a <HardFault_Handler>

0000048c <MemManage_Handler>:
     48c:	e7fe      	b.n	48c <MemManage_Handler>

0000048e <BusFault_Handler>:
     48e:	e7fe      	b.n	48e <BusFault_Handler>

00000490 <UsageFault_Handler>:
     490:	e7fe      	b.n	490 <UsageFault_Handler>

00000492 <SVC_Handler>:
     492:	e7fe      	b.n	492 <SVC_Handler>

00000494 <DebugMon_Handler>:
     494:	e7fe      	b.n	494 <DebugMon_Handler>

00000496 <PendSV_Handler>:
     496:	e7fe      	b.n	496 <PendSV_Handler>

00000498 <SysTick_Handler>:
     498:	e7fe      	b.n	498 <SysTick_Handler>

0000049a <DEF_IRQHandler>:
     49a:	e7fe      	b.n	49a <DEF_IRQHandler>

0000049c <WDT_IRQHandler>:
     49c:	e7fe      	b.n	49c <WDT_IRQHandler>

0000049e <TIMER0_IRQHandler>:
     49e:	e7fe      	b.n	49e <TIMER0_IRQHandler>

000004a0 <TIMER1_IRQHandler>:
     4a0:	e7fe      	b.n	4a0 <TIMER1_IRQHandler>

000004a2 <TIMER2_IRQHandler>:
     4a2:	e7fe      	b.n	4a2 <TIMER2_IRQHandler>

000004a4 <TIMER3_IRQHandler>:
     4a4:	e7fe      	b.n	4a4 <TIMER3_IRQHandler>

000004a6 <UART0_IRQHandler>:
     4a6:	e7fe      	b.n	4a6 <UART0_IRQHandler>

000004a8 <UART1_IRQHandler>:
     4a8:	e7fe      	b.n	4a8 <UART1_IRQHandler>

000004aa <UART2_IRQHandler>:
     4aa:	e7fe      	b.n	4aa <UART2_IRQHandler>

000004ac <UART3_IRQHandler>:
     4ac:	e7fe      	b.n	4ac <UART3_IRQHandler>

000004ae <PWM1_IRQHandler>:
     4ae:	e7fe      	b.n	4ae <PWM1_IRQHandler>

000004b0 <I2C0_IRQHandler>:
     4b0:	e7fe      	b.n	4b0 <I2C0_IRQHandler>

000004b2 <I2C1_IRQHandler>:
     4b2:	e7fe      	b.n	4b2 <I2C1_IRQHandler>

000004b4 <I2C2_IRQHandler>:
     4b4:	e7fe      	b.n	4b4 <I2C2_IRQHandler>

000004b6 <SPI_IRQHandler>:
     4b6:	e7fe      	b.n	4b6 <SPI_IRQHandler>

000004b8 <SSP0_IRQHandler>:
     4b8:	e7fe      	b.n	4b8 <SSP0_IRQHandler>

000004ba <SSP1_IRQHandler>:
     4ba:	e7fe      	b.n	4ba <SSP1_IRQHandler>

000004bc <PLL0_IRQHandler>:
     4bc:	e7fe      	b.n	4bc <PLL0_IRQHandler>

000004be <RTC_IRQHandler>:
     4be:	e7fe      	b.n	4be <RTC_IRQHandler>

000004c0 <EINT0_IRQHandler>:
     4c0:	e7fe      	b.n	4c0 <EINT0_IRQHandler>

000004c2 <EINT1_IRQHandler>:
     4c2:	e7fe      	b.n	4c2 <EINT1_IRQHandler>

000004c4 <EINT2_IRQHandler>:
     4c4:	e7fe      	b.n	4c4 <EINT2_IRQHandler>

000004c6 <EINT3_IRQHandler>:
     4c6:	e7fe      	b.n	4c6 <EINT3_IRQHandler>

000004c8 <ADC_IRQHandler>:
     4c8:	e7fe      	b.n	4c8 <ADC_IRQHandler>

000004ca <BOD_IRQHandler>:
     4ca:	e7fe      	b.n	4ca <BOD_IRQHandler>

000004cc <USB_IRQHandler>:
     4cc:	e7fe      	b.n	4cc <USB_IRQHandler>

000004ce <CAN_IRQHandler>:
     4ce:	e7fe      	b.n	4ce <CAN_IRQHandler>

000004d0 <DMA_IRQHandler>:
     4d0:	e7fe      	b.n	4d0 <DMA_IRQHandler>

000004d2 <I2S_IRQHandler>:
     4d2:	e7fe      	b.n	4d2 <I2S_IRQHandler>

000004d4 <ENET_IRQHandler>:
     4d4:	e7fe      	b.n	4d4 <ENET_IRQHandler>

000004d6 <RIT_IRQHandler>:
     4d6:	e7fe      	b.n	4d6 <RIT_IRQHandler>

000004d8 <MCPWM_IRQHandler>:
     4d8:	e7fe      	b.n	4d8 <MCPWM_IRQHandler>

000004da <QEI_IRQHandler>:
     4da:	e7fe      	b.n	4da <QEI_IRQHandler>

000004dc <PLL1_IRQHandler>:
     4dc:	e7fe      	b.n	4dc <PLL1_IRQHandler>

000004de <USBActivity_IRQHandler>:
     4de:	e7fe      	b.n	4de <USBActivity_IRQHandler>

000004e0 <CANActivity_IRQHandler>:
     4e0:	e7fe      	b.n	4e0 <CANActivity_IRQHandler>
     4e2:	bf00      	nop

000004e4 <mbed::FileHandle::flen()>:
     4e4:	6803      	ldr	r3, [r0, #0]
     4e6:	b570      	push	{r4, r5, r6, lr}
     4e8:	2100      	movs	r1, #0
     4ea:	691d      	ldr	r5, [r3, #16]
     4ec:	2201      	movs	r2, #1
     4ee:	4604      	mov	r4, r0
     4f0:	47a8      	blx	r5
     4f2:	1c43      	adds	r3, r0, #1
     4f4:	4605      	mov	r5, r0
     4f6:	d00e      	beq.n	516 <mbed::FileHandle::flen()+0x32>
     4f8:	6821      	ldr	r1, [r4, #0]
     4fa:	2202      	movs	r2, #2
     4fc:	690e      	ldr	r6, [r1, #16]
     4fe:	4620      	mov	r0, r4
     500:	2100      	movs	r1, #0
     502:	47b0      	blx	r6
     504:	6822      	ldr	r2, [r4, #0]
     506:	4606      	mov	r6, r0
     508:	6913      	ldr	r3, [r2, #16]
     50a:	4620      	mov	r0, r4
     50c:	4629      	mov	r1, r5
     50e:	2200      	movs	r2, #0
     510:	4798      	blx	r3
     512:	4630      	mov	r0, r6
     514:	bd70      	pop	{r4, r5, r6, pc}
     516:	4606      	mov	r6, r0
     518:	e7fb      	b.n	512 <mbed::FileHandle::flen()+0x2e>
     51a:	bf00      	nop

0000051c <mbed::FileHandle::~FileHandle()>:
     51c:	4b0d      	ldr	r3, [pc, #52]	; (554 <mbed::FileHandle::~FileHandle()+0x38>)
     51e:	4a0e      	ldr	r2, [pc, #56]	; (558 <mbed::FileHandle::~FileHandle()+0x3c>)
     520:	b430      	push	{r4, r5}
     522:	6002      	str	r2, [r0, #0]
     524:	f503 7480 	add.w	r4, r3, #256	; 0x100
     528:	2500      	movs	r5, #0
     52a:	e001      	b.n	530 <mbed::FileHandle::~FileHandle()+0x14>
     52c:	42a3      	cmp	r3, r4
     52e:	d00f      	beq.n	550 <mbed::FileHandle::~FileHandle()+0x34>
     530:	461a      	mov	r2, r3
     532:	f852 1b04 	ldr.w	r1, [r2], #4
     536:	4281      	cmp	r1, r0
     538:	bf08      	it	eq
     53a:	f842 5c04 	streq.w	r5, [r2, #-4]
     53e:	4613      	mov	r3, r2
     540:	f853 2b04 	ldr.w	r2, [r3], #4
     544:	4282      	cmp	r2, r0
     546:	d1f1      	bne.n	52c <mbed::FileHandle::~FileHandle()+0x10>
     548:	42a3      	cmp	r3, r4
     54a:	f843 5c04 	str.w	r5, [r3, #-4]
     54e:	d1ef      	bne.n	530 <mbed::FileHandle::~FileHandle()+0x14>
     550:	bc30      	pop	{r4, r5}
     552:	4770      	bx	lr
     554:	10000374 	.word	0x10000374
     558:	00008018 	.word	0x00008018

0000055c <mbed::FileHandle::~FileHandle()>:
     55c:	b538      	push	{r3, r4, r5, lr}
     55e:	4a0f      	ldr	r2, [pc, #60]	; (59c <mbed::FileHandle::~FileHandle()+0x40>)
     560:	4b0f      	ldr	r3, [pc, #60]	; (5a0 <mbed::FileHandle::~FileHandle()+0x44>)
     562:	4604      	mov	r4, r0
     564:	6002      	str	r2, [r0, #0]
     566:	2500      	movs	r5, #0
     568:	f503 7080 	add.w	r0, r3, #256	; 0x100
     56c:	e001      	b.n	572 <mbed::FileHandle::~FileHandle()+0x16>
     56e:	4283      	cmp	r3, r0
     570:	d00f      	beq.n	592 <mbed::FileHandle::~FileHandle()+0x36>
     572:	461a      	mov	r2, r3
     574:	f852 1b04 	ldr.w	r1, [r2], #4
     578:	428c      	cmp	r4, r1
     57a:	bf08      	it	eq
     57c:	f842 5c04 	streq.w	r5, [r2, #-4]
     580:	4613      	mov	r3, r2
     582:	f853 2b04 	ldr.w	r2, [r3], #4
     586:	4294      	cmp	r4, r2
     588:	d1f1      	bne.n	56e <mbed::FileHandle::~FileHandle()+0x12>
     58a:	4283      	cmp	r3, r0
     58c:	f843 5c04 	str.w	r5, [r3, #-4]
     590:	d1ef      	bne.n	572 <mbed::FileHandle::~FileHandle()+0x16>
     592:	4620      	mov	r0, r4
     594:	f001 f8ab 	bl	16ee <operator delete(void*)>
     598:	4620      	mov	r0, r4
     59a:	bd38      	pop	{r3, r4, r5, pc}
     59c:	00008018 	.word	0x00008018
     5a0:	10000374 	.word	0x10000374

000005a4 <init_serial()>:
     5a4:	4b07      	ldr	r3, [pc, #28]	; (5c4 <init_serial()+0x20>)
     5a6:	6818      	ldr	r0, [r3, #0]
     5a8:	b100      	cbz	r0, 5ac <init_serial()+0x8>
     5aa:	4770      	bx	lr
     5ac:	f24c 0102 	movw	r1, #49154	; 0xc002
     5b0:	f24c 0203 	movw	r2, #49155	; 0xc003
     5b4:	4804      	ldr	r0, [pc, #16]	; (5c8 <init_serial()+0x24>)
     5b6:	f2c2 0109 	movt	r1, #8201	; 0x2009
     5ba:	f2c2 0209 	movt	r2, #8201	; 0x2009
     5be:	f000 bb3b 	b.w	c38 <serial_init>
     5c2:	bf00      	nop
     5c4:	10000474 	.word	0x10000474
     5c8:	100004a8 	.word	0x100004a8

000005cc <_open>:
     5cc:	b5f0      	push	{r4, r5, r6, r7, lr}
     5ce:	460f      	mov	r7, r1
     5d0:	b085      	sub	sp, #20
     5d2:	4930      	ldr	r1, [pc, #192]	; (694 <_open+0xc8>)
     5d4:	4606      	mov	r6, r0
     5d6:	f003 fb1a 	bl	3c0e <strcmp>
     5da:	4604      	mov	r4, r0
     5dc:	2800      	cmp	r0, #0
     5de:	d036      	beq.n	64e <_open+0x82>
     5e0:	4630      	mov	r0, r6
     5e2:	492d      	ldr	r1, [pc, #180]	; (698 <_open+0xcc>)
     5e4:	f003 fb13 	bl	3c0e <strcmp>
     5e8:	b360      	cbz	r0, 644 <_open+0x78>
     5ea:	4630      	mov	r0, r6
     5ec:	492b      	ldr	r1, [pc, #172]	; (69c <_open+0xd0>)
     5ee:	f003 fb0e 	bl	3c0e <strcmp>
     5f2:	2800      	cmp	r0, #0
     5f4:	d02f      	beq.n	656 <_open+0x8a>
     5f6:	482a      	ldr	r0, [pc, #168]	; (6a0 <_open+0xd4>)
     5f8:	2400      	movs	r4, #0
     5fa:	e006      	b.n	60a <_open+0x3e>
     5fc:	685d      	ldr	r5, [r3, #4]
     5fe:	3401      	adds	r4, #1
     600:	1d18      	adds	r0, r3, #4
     602:	b135      	cbz	r5, 612 <_open+0x46>
     604:	3401      	adds	r4, #1
     606:	2c40      	cmp	r4, #64	; 0x40
     608:	d029      	beq.n	65e <_open+0x92>
     60a:	6845      	ldr	r5, [r0, #4]
     60c:	1d03      	adds	r3, r0, #4
     60e:	2d00      	cmp	r5, #0
     610:	d1f4      	bne.n	5fc <_open+0x30>
     612:	7831      	ldrb	r1, [r6, #0]
     614:	293a      	cmp	r1, #58	; 0x3a
     616:	d036      	beq.n	686 <_open+0xba>
     618:	a802      	add	r0, sp, #8
     61a:	4631      	mov	r1, r6
     61c:	f000 fd20 	bl	1060 <mbed::FilePath::FilePath(char const*)>
     620:	a802      	add	r0, sp, #8
     622:	f000 fd6f 	bl	1104 <mbed::FilePath::exists()>
     626:	b1d0      	cbz	r0, 65e <_open+0x92>
     628:	a802      	add	r0, sp, #8
     62a:	f000 fd57 	bl	10dc <mbed::FilePath::isFile()>
     62e:	b1c8      	cbz	r0, 664 <_open+0x98>
     630:	a802      	add	r0, sp, #8
     632:	f000 fd5d 	bl	10f0 <mbed::FilePath::file()>
     636:	4603      	mov	r3, r0
     638:	b18b      	cbz	r3, 65e <_open+0x92>
     63a:	491a      	ldr	r1, [pc, #104]	; (6a4 <_open+0xd8>)
     63c:	1ce0      	adds	r0, r4, #3
     63e:	f841 3024 	str.w	r3, [r1, r4, lsl #2]
     642:	e002      	b.n	64a <_open+0x7e>
     644:	f7ff ffae 	bl	5a4 <init_serial()>
     648:	2001      	movs	r0, #1
     64a:	b005      	add	sp, #20
     64c:	bdf0      	pop	{r4, r5, r6, r7, pc}
     64e:	f7ff ffa9 	bl	5a4 <init_serial()>
     652:	4620      	mov	r0, r4
     654:	e7f9      	b.n	64a <_open+0x7e>
     656:	f7ff ffa5 	bl	5a4 <init_serial()>
     65a:	2002      	movs	r0, #2
     65c:	e7f5      	b.n	64a <_open+0x7e>
     65e:	f04f 30ff 	mov.w	r0, #4294967295
     662:	e7f2      	b.n	64a <_open+0x7e>
     664:	a802      	add	r0, sp, #8
     666:	f000 fd31 	bl	10cc <mbed::FilePath::fileSystem()>
     66a:	4605      	mov	r5, r0
     66c:	2800      	cmp	r0, #0
     66e:	d0f6      	beq.n	65e <_open+0x92>
     670:	6802      	ldr	r2, [r0, #0]
     672:	a802      	add	r0, sp, #8
     674:	6896      	ldr	r6, [r2, #8]
     676:	f000 fd1d 	bl	10b4 <mbed::FilePath::fileName()>
     67a:	463a      	mov	r2, r7
     67c:	4601      	mov	r1, r0
     67e:	4628      	mov	r0, r5
     680:	47b0      	blx	r6
     682:	4603      	mov	r3, r0
     684:	e7d8      	b.n	638 <_open+0x6c>
     686:	4630      	mov	r0, r6
     688:	4907      	ldr	r1, [pc, #28]	; (6a8 <_open+0xdc>)
     68a:	aa01      	add	r2, sp, #4
     68c:	f003 fa50 	bl	3b30 <siscanf>
     690:	9b01      	ldr	r3, [sp, #4]
     692:	e7d1      	b.n	638 <_open+0x6c>
     694:	00007fd8 	.word	0x00007fd8
     698:	00007ffc 	.word	0x00007ffc
     69c:	00007fe0 	.word	0x00007fe0
     6a0:	10000370 	.word	0x10000370
     6a4:	10000374 	.word	0x10000374
     6a8:	00008040 	.word	0x00008040

000006ac <_close>:
     6ac:	2802      	cmp	r0, #2
     6ae:	b508      	push	{r3, lr}
     6b0:	dd0b      	ble.n	6ca <_close+0x1e>
     6b2:	4b08      	ldr	r3, [pc, #32]	; (6d4 <_close+0x28>)
     6b4:	1ec2      	subs	r2, r0, #3
     6b6:	f853 0022 	ldr.w	r0, [r3, r2, lsl #2]
     6ba:	2100      	movs	r1, #0
     6bc:	f843 1022 	str.w	r1, [r3, r2, lsl #2]
     6c0:	b128      	cbz	r0, 6ce <_close+0x22>
     6c2:	6803      	ldr	r3, [r0, #0]
     6c4:	685a      	ldr	r2, [r3, #4]
     6c6:	4790      	blx	r2
     6c8:	bd08      	pop	{r3, pc}
     6ca:	2000      	movs	r0, #0
     6cc:	bd08      	pop	{r3, pc}
     6ce:	f04f 30ff 	mov.w	r0, #4294967295
     6d2:	bd08      	pop	{r3, pc}
     6d4:	10000374 	.word	0x10000374

000006d8 <_write>:
     6d8:	2802      	cmp	r0, #2
     6da:	b5f8      	push	{r3, r4, r5, r6, r7, lr}
     6dc:	460d      	mov	r5, r1
     6de:	4617      	mov	r7, r2
     6e0:	dc28      	bgt.n	734 <_write+0x5c>
     6e2:	491d      	ldr	r1, [pc, #116]	; (758 <_write+0x80>)
     6e4:	680a      	ldr	r2, [r1, #0]
     6e6:	2a00      	cmp	r2, #0
     6e8:	d02d      	beq.n	746 <_write+0x6e>
     6ea:	b30f      	cbz	r7, 730 <_write+0x58>
     6ec:	462c      	mov	r4, r5
     6ee:	19ee      	adds	r6, r5, r7
     6f0:	f814 1b01 	ldrb.w	r1, [r4], #1
     6f4:	43ed      	mvns	r5, r5
     6f6:	19ab      	adds	r3, r5, r6
     6f8:	4818      	ldr	r0, [pc, #96]	; (75c <_write+0x84>)
     6fa:	f003 0501 	and.w	r5, r3, #1
     6fe:	f000 fc05 	bl	f0c <serial_putc>
     702:	42b4      	cmp	r4, r6
     704:	d014      	beq.n	730 <_write+0x58>
     706:	b135      	cbz	r5, 716 <_write+0x3e>
     708:	f814 1b01 	ldrb.w	r1, [r4], #1
     70c:	4813      	ldr	r0, [pc, #76]	; (75c <_write+0x84>)
     70e:	f000 fbfd 	bl	f0c <serial_putc>
     712:	42b4      	cmp	r4, r6
     714:	d00c      	beq.n	730 <_write+0x58>
     716:	4625      	mov	r5, r4
     718:	f815 1b01 	ldrb.w	r1, [r5], #1
     71c:	480f      	ldr	r0, [pc, #60]	; (75c <_write+0x84>)
     71e:	f000 fbf5 	bl	f0c <serial_putc>
     722:	7861      	ldrb	r1, [r4, #1]
     724:	480d      	ldr	r0, [pc, #52]	; (75c <_write+0x84>)
     726:	1c6c      	adds	r4, r5, #1
     728:	f000 fbf0 	bl	f0c <serial_putc>
     72c:	42b4      	cmp	r4, r6
     72e:	d1f2      	bne.n	716 <_write+0x3e>
     730:	4638      	mov	r0, r7
     732:	bdf8      	pop	{r3, r4, r5, r6, r7, pc}
     734:	4b0a      	ldr	r3, [pc, #40]	; (760 <_write+0x88>)
     736:	3803      	subs	r0, #3
     738:	f853 0020 	ldr.w	r0, [r3, r0, lsl #2]
     73c:	b140      	cbz	r0, 750 <_write+0x78>
     73e:	6803      	ldr	r3, [r0, #0]
     740:	681b      	ldr	r3, [r3, #0]
     742:	4798      	blx	r3
     744:	bdf8      	pop	{r3, r4, r5, r6, r7, pc}
     746:	f7ff ff2d 	bl	5a4 <init_serial()>
     74a:	2f00      	cmp	r7, #0
     74c:	d1ce      	bne.n	6ec <_write+0x14>
     74e:	e7ef      	b.n	730 <_write+0x58>
     750:	f04f 30ff 	mov.w	r0, #4294967295
     754:	bdf8      	pop	{r3, r4, r5, r6, r7, pc}
     756:	bf00      	nop
     758:	10000474 	.word	0x10000474
     75c:	100004a8 	.word	0x100004a8
     760:	10000374 	.word	0x10000374

00000764 <_read>:
     764:	2802      	cmp	r0, #2
     766:	b510      	push	{r4, lr}
     768:	460c      	mov	r4, r1
     76a:	dd0a      	ble.n	782 <_read+0x1e>
     76c:	4b0a      	ldr	r3, [pc, #40]	; (798 <_read+0x34>)
     76e:	3803      	subs	r0, #3
     770:	f853 0020 	ldr.w	r0, [r3, r0, lsl #2]
     774:	b160      	cbz	r0, 790 <_read+0x2c>
     776:	6803      	ldr	r3, [r0, #0]
     778:	689b      	ldr	r3, [r3, #8]
     77a:	4798      	blx	r3
     77c:	4601      	mov	r1, r0
     77e:	4608      	mov	r0, r1
     780:	bd10      	pop	{r4, pc}
     782:	4806      	ldr	r0, [pc, #24]	; (79c <_read+0x38>)
     784:	f000 fbbc 	bl	f00 <serial_getc>
     788:	2101      	movs	r1, #1
     78a:	7020      	strb	r0, [r4, #0]
     78c:	4608      	mov	r0, r1
     78e:	bd10      	pop	{r4, pc}
     790:	f04f 31ff 	mov.w	r1, #4294967295
     794:	e7f3      	b.n	77e <_read+0x1a>
     796:	bf00      	nop
     798:	10000374 	.word	0x10000374
     79c:	100004a8 	.word	0x100004a8

000007a0 <_isatty>:
     7a0:	2802      	cmp	r0, #2
     7a2:	b508      	push	{r3, lr}
     7a4:	dd08      	ble.n	7b8 <_isatty+0x18>
     7a6:	4b07      	ldr	r3, [pc, #28]	; (7c4 <_isatty+0x24>)
     7a8:	3803      	subs	r0, #3
     7aa:	f853 0020 	ldr.w	r0, [r3, r0, lsl #2]
     7ae:	b128      	cbz	r0, 7bc <_isatty+0x1c>
     7b0:	6801      	ldr	r1, [r0, #0]
     7b2:	68ca      	ldr	r2, [r1, #12]
     7b4:	4790      	blx	r2
     7b6:	bd08      	pop	{r3, pc}
     7b8:	2001      	movs	r0, #1
     7ba:	bd08      	pop	{r3, pc}
     7bc:	f04f 30ff 	mov.w	r0, #4294967295
     7c0:	bd08      	pop	{r3, pc}
     7c2:	bf00      	nop
     7c4:	10000374 	.word	0x10000374

000007c8 <_lseek>:
     7c8:	2802      	cmp	r0, #2
     7ca:	b508      	push	{r3, lr}
     7cc:	dd08      	ble.n	7e0 <_lseek+0x18>
     7ce:	4b07      	ldr	r3, [pc, #28]	; (7ec <_lseek+0x24>)
     7d0:	3803      	subs	r0, #3
     7d2:	f853 0020 	ldr.w	r0, [r3, r0, lsl #2]
     7d6:	b128      	cbz	r0, 7e4 <_lseek+0x1c>
     7d8:	6803      	ldr	r3, [r0, #0]
     7da:	691b      	ldr	r3, [r3, #16]
     7dc:	4798      	blx	r3
     7de:	bd08      	pop	{r3, pc}
     7e0:	2000      	movs	r0, #0
     7e2:	bd08      	pop	{r3, pc}
     7e4:	f04f 30ff 	mov.w	r0, #4294967295
     7e8:	bd08      	pop	{r3, pc}
     7ea:	bf00      	nop
     7ec:	10000374 	.word	0x10000374

000007f0 <_fstat>:
     7f0:	2802      	cmp	r0, #2
     7f2:	b508      	push	{r3, lr}
     7f4:	d804      	bhi.n	800 <Heap_Size>
     7f6:	f44f 5000 	mov.w	r0, #8192	; 0x2000
     7fa:	6048      	str	r0, [r1, #4]
     7fc:	2000      	movs	r0, #0
     7fe:	bd08      	pop	{r3, pc}
     800:	f001 faf8 	bl	1df4 <__errno>
     804:	2309      	movs	r3, #9
     806:	6003      	str	r3, [r0, #0]
     808:	f04f 30ff 	mov.w	r0, #4294967295
     80c:	bd08      	pop	{r3, pc}
     80e:	bf00      	nop

00000810 <__cxa_pure_virtual>:
     810:	b508      	push	{r3, lr}
     812:	2001      	movs	r0, #1
     814:	f000 fb84 	bl	f20 <exit>

00000818 <_sbrk>:
     818:	4a08      	ldr	r2, [pc, #32]	; (83c <_sbrk+0x24>)
     81a:	6813      	ldr	r3, [r2, #0]
     81c:	1818      	adds	r0, r3, r0
     81e:	f3ef 8108 	mrs	r1, MSP
     822:	4288      	cmp	r0, r1
     824:	d202      	bcs.n	82c <_sbrk+0x14>
     826:	6010      	str	r0, [r2, #0]
     828:	4618      	mov	r0, r3
     82a:	4770      	bx	lr
     82c:	4b04      	ldr	r3, [pc, #16]	; (840 <_sbrk+0x28>)
     82e:	220c      	movs	r2, #12
     830:	601a      	str	r2, [r3, #0]
     832:	f04f 33ff 	mov.w	r3, #4294967295
     836:	4618      	mov	r0, r3
     838:	4770      	bx	lr
     83a:	bf00      	nop
     83c:	100000d4 	.word	0x100000d4
     840:	100004b0 	.word	0x100004b0

00000844 <gpio_set>:
     844:	b510      	push	{r4, lr}
     846:	2100      	movs	r1, #0
     848:	4604      	mov	r4, r0
     84a:	f004 041f 	and.w	r4, r4, #31
     84e:	f000 f843 	bl	8d8 <pin_function>
     852:	2001      	movs	r0, #1
     854:	fa00 f004 	lsl.w	r0, r0, r4
     858:	bd10      	pop	{r4, pc}
     85a:	bf00      	nop

0000085c <gpio_dir>:
     85c:	b931      	cbnz	r1, 86c <gpio_dir+0x10>
     85e:	6883      	ldr	r3, [r0, #8]
     860:	6841      	ldr	r1, [r0, #4]
     862:	681a      	ldr	r2, [r3, #0]
     864:	ea22 0201 	bic.w	r2, r2, r1
     868:	601a      	str	r2, [r3, #0]
     86a:	4770      	bx	lr
     86c:	2901      	cmp	r1, #1
     86e:	d000      	beq.n	872 <gpio_dir+0x16>
     870:	4770      	bx	lr
     872:	6883      	ldr	r3, [r0, #8]
     874:	6842      	ldr	r2, [r0, #4]
     876:	6819      	ldr	r1, [r3, #0]
     878:	ea41 0002 	orr.w	r0, r1, r2
     87c:	6018      	str	r0, [r3, #0]
     87e:	4770      	bx	lr

00000880 <gpio_init>:
     880:	b5f8      	push	{r3, r4, r5, r6, r7, lr}
     882:	1c4b      	adds	r3, r1, #1
     884:	460d      	mov	r5, r1
     886:	4604      	mov	r4, r0
     888:	4616      	mov	r6, r2
     88a:	d01d      	beq.n	8c8 <gpio_init+0x48>
     88c:	6021      	str	r1, [r4, #0]
     88e:	4608      	mov	r0, r1
     890:	f7ff ffd8 	bl	844 <gpio_set>
     894:	f025 031f 	bic.w	r3, r5, #31
     898:	f103 011c 	add.w	r1, r3, #28
     89c:	f103 0718 	add.w	r7, r3, #24
     8a0:	f103 0214 	add.w	r2, r3, #20
     8a4:	6060      	str	r0, [r4, #4]
     8a6:	6121      	str	r1, [r4, #16]
     8a8:	60e7      	str	r7, [r4, #12]
     8aa:	6162      	str	r2, [r4, #20]
     8ac:	60a3      	str	r3, [r4, #8]
     8ae:	4620      	mov	r0, r4
     8b0:	4631      	mov	r1, r6
     8b2:	f7ff ffd3 	bl	85c <gpio_dir>
     8b6:	b92e      	cbnz	r6, 8c4 <gpio_init+0x44>
     8b8:	4628      	mov	r0, r5
     8ba:	2103      	movs	r1, #3
     8bc:	e8bd 40f8 	ldmia.w	sp!, {r3, r4, r5, r6, r7, lr}
     8c0:	f000 b82c 	b.w	91c <pin_mode>
     8c4:	2e01      	cmp	r6, #1
     8c6:	d000      	beq.n	8ca <gpio_init+0x4a>
     8c8:	bdf8      	pop	{r3, r4, r5, r6, r7, pc}
     8ca:	4628      	mov	r0, r5
     8cc:	2102      	movs	r1, #2
     8ce:	e8bd 40f8 	ldmia.w	sp!, {r3, r4, r5, r6, r7, lr}
     8d2:	f000 b823 	b.w	91c <pin_mode>
     8d6:	bf00      	nop

000008d8 <pin_function>:
     8d8:	1c43      	adds	r3, r0, #1
     8da:	b410      	push	{r4}
     8dc:	d01b      	beq.n	916 <pin_function+0x3e>
     8de:	f100 4060 	add.w	r0, r0, #3758096384	; 0xe0000000
     8e2:	f5a0 241c 	sub.w	r4, r0, #638976	; 0x9c000
     8e6:	f004 030f 	and.w	r3, r4, #15
     8ea:	0058      	lsls	r0, r3, #1
     8ec:	2203      	movs	r2, #3
     8ee:	fa02 f200 	lsl.w	r2, r2, r0
     8f2:	fa01 f100 	lsl.w	r1, r1, r0
     8f6:	f44f 4340 	mov.w	r3, #49152	; 0xc000
     8fa:	0920      	lsrs	r0, r4, #4
     8fc:	f2c4 0302 	movt	r3, #16386	; 0x4002
     900:	f853 4020 	ldr.w	r4, [r3, r0, lsl #2]
     904:	ea24 0202 	bic.w	r2, r4, r2
     908:	f843 2020 	str.w	r2, [r3, r0, lsl #2]
     90c:	f853 2020 	ldr.w	r2, [r3, r0, lsl #2]
     910:	4311      	orrs	r1, r2
     912:	f843 1020 	str.w	r1, [r3, r0, lsl #2]
     916:	bc10      	pop	{r4}
     918:	4770      	bx	lr
     91a:	bf00      	nop

0000091c <pin_mode>:
     91c:	1c42      	adds	r2, r0, #1
     91e:	b470      	push	{r4, r5, r6}
     920:	d030      	beq.n	984 <pin_mode+0x68>
     922:	f100 4060 	add.w	r0, r0, #3758096384	; 0xe0000000
     926:	f5a0 201c 	sub.w	r0, r0, #638976	; 0x9c000
     92a:	f3c1 0480 	ubfx	r4, r1, #2, #1
     92e:	f000 051f 	and.w	r5, r0, #31
     932:	fa04 f505 	lsl.w	r5, r4, r5
     936:	0942      	lsrs	r2, r0, #5
     938:	f44f 4340 	mov.w	r3, #49152	; 0xc000
     93c:	f2c4 0302 	movt	r3, #16386	; 0x4002
     940:	321a      	adds	r2, #26
     942:	f853 6022 	ldr.w	r6, [r3, r2, lsl #2]
     946:	ea26 0605 	bic.w	r6, r6, r5
     94a:	f843 6022 	str.w	r6, [r3, r2, lsl #2]
     94e:	f853 6022 	ldr.w	r6, [r3, r2, lsl #2]
     952:	4335      	orrs	r5, r6
     954:	f843 5022 	str.w	r5, [r3, r2, lsl #2]
     958:	b9a4      	cbnz	r4, 984 <pin_mode+0x68>
     95a:	f000 040f 	and.w	r4, r0, #15
     95e:	0062      	lsls	r2, r4, #1
     960:	2503      	movs	r5, #3
     962:	fa05 f502 	lsl.w	r5, r5, r2
     966:	fa01 f202 	lsl.w	r2, r1, r2
     96a:	0900      	lsrs	r0, r0, #4
     96c:	3010      	adds	r0, #16
     96e:	f853 1020 	ldr.w	r1, [r3, r0, lsl #2]
     972:	ea21 0405 	bic.w	r4, r1, r5
     976:	f843 4020 	str.w	r4, [r3, r0, lsl #2]
     97a:	f853 4020 	ldr.w	r4, [r3, r0, lsl #2]
     97e:	4322      	orrs	r2, r4
     980:	f843 2020 	str.w	r2, [r3, r0, lsl #2]
     984:	bc70      	pop	{r4, r5, r6}
     986:	4770      	bx	lr

00000988 <serial_baud>:
     988:	e92d 4ff0 	stmdb	sp!, {r4, r5, r6, r7, r8, r9, r10, r11, lr}
     98c:	2300      	movs	r3, #0
     98e:	6804      	ldr	r4, [r0, #0]
     990:	f2c4 0301 	movt	r3, #16385	; 0x4001
     994:	b089      	sub	sp, #36	; 0x24
     996:	429c      	cmp	r4, r3
     998:	9007      	str	r0, [sp, #28]
     99a:	f000 80e3 	beq.w	b64 <serial_baud+0x1dc>
     99e:	f340 8093 	ble.w	ac8 <serial_baud+0x140>
     9a2:	f44f 4300 	mov.w	r3, #32768	; 0x8000
     9a6:	f2c4 0309 	movt	r3, #16393	; 0x4009
     9aa:	429c      	cmp	r4, r3
     9ac:	f44f 4040 	mov.w	r0, #49152	; 0xc000
     9b0:	f000 80c9 	beq.w	b46 <serial_baud+0x1be>
     9b4:	f2c4 0009 	movt	r0, #16393	; 0x4009
     9b8:	4284      	cmp	r4, r0
     9ba:	f040 808b 	bne.w	ad4 <serial_baud+0x14c>
     9be:	f44f 4340 	mov.w	r3, #49152	; 0xc000
     9c2:	f2c4 030f 	movt	r3, #16399	; 0x400f
     9c6:	f8d3 21ac 	ldr.w	r2, [r3, #428]	; 0x1ac
     9ca:	f422 2040 	bic.w	r0, r2, #786432	; 0xc0000
     9ce:	f8c3 01ac 	str.w	r0, [r3, #428]	; 0x1ac
     9d2:	f8d3 21ac 	ldr.w	r2, [r3, #428]	; 0x1ac
     9d6:	f442 2080 	orr.w	r0, r2, #262144	; 0x40000
     9da:	f8c3 01ac 	str.w	r0, [r3, #428]	; 0x1ac
     9de:	4b72      	ldr	r3, [pc, #456]	; (ba8 <serial_baud+0x220>)
     9e0:	0108      	lsls	r0, r1, #4
     9e2:	f8d3 a000 	ldr.w	r10, [r3]
     9e6:	fbba f3f0 	udiv	r3, r10, r0
     9ea:	fb00 a213 	mls	r2, r0, r3, r10
     9ee:	b29b      	uxth	r3, r3
     9f0:	9306      	str	r3, [sp, #24]
     9f2:	2a00      	cmp	r2, #0
     9f4:	f000 80a5 	beq.w	b42 <serial_baud+0x1ba>
     9f8:	4608      	mov	r0, r1
     9fa:	0859      	lsrs	r1, r3, #1
     9fc:	9101      	str	r1, [sp, #4]
     9fe:	f007 f88d 	bl	7b1c <__aeabi_i2f>
     a02:	9a01      	ldr	r2, [sp, #4]
     a04:	4606      	mov	r6, r0
     a06:	9806      	ldr	r0, [sp, #24]
     a08:	4290      	cmp	r0, r2
     a0a:	f0c0 809a 	bcc.w	b42 <serial_baud+0x1ba>
     a0e:	9c06      	ldr	r4, [sp, #24]
     a10:	2501      	movs	r5, #1
     a12:	2100      	movs	r1, #0
     a14:	46b0      	mov	r8, r6
     a16:	9402      	str	r4, [sp, #8]
     a18:	9504      	str	r5, [sp, #16]
     a1a:	9103      	str	r1, [sp, #12]
     a1c:	2000      	movs	r0, #0
     a1e:	2501      	movs	r5, #1
     a20:	9005      	str	r0, [sp, #20]
     a22:	1c6a      	adds	r2, r5, #1
     a24:	b2d5      	uxtb	r5, r2
     a26:	2d10      	cmp	r5, #16
     a28:	d05d      	beq.n	ae6 <serial_baud+0x15e>
     a2a:	9801      	ldr	r0, [sp, #4]
     a2c:	f007 f872 	bl	7b14 <__aeabi_ui2f>
     a30:	f04f 4183 	mov.w	r1, #1098907648	; 0x41800000
     a34:	f007 f8c6 	bl	7bc4 <__aeabi_fmul>
     a38:	2401      	movs	r4, #1
     a3a:	4681      	mov	r9, r0
     a3c:	e005      	b.n	a4a <serial_baud+0xc2>
     a3e:	9a01      	ldr	r2, [sp, #4]
     a40:	9202      	str	r2, [sp, #8]
     a42:	1c60      	adds	r0, r4, #1
     a44:	b2c4      	uxtb	r4, r0
     a46:	42ac      	cmp	r4, r5
     a48:	d0eb      	beq.n	a22 <serial_baud+0x9a>
     a4a:	4650      	mov	r0, r10
     a4c:	f007 f862 	bl	7b14 <__aeabi_ui2f>
     a50:	4607      	mov	r7, r0
     a52:	4620      	mov	r0, r4
     a54:	f007 f85e 	bl	7b14 <__aeabi_ui2f>
     a58:	4683      	mov	r11, r0
     a5a:	4628      	mov	r0, r5
     a5c:	f007 f85a 	bl	7b14 <__aeabi_ui2f>
     a60:	4601      	mov	r1, r0
     a62:	4658      	mov	r0, r11
     a64:	f007 f962 	bl	7d2c <__aeabi_fdiv>
     a68:	f04f 517e 	mov.w	r1, #1065353216	; 0x3f800000
     a6c:	f006 ffa2 	bl	79b4 <__addsf3>
     a70:	4601      	mov	r1, r0
     a72:	4648      	mov	r0, r9
     a74:	f007 f8a6 	bl	7bc4 <__aeabi_fmul>
     a78:	4601      	mov	r1, r0
     a7a:	4638      	mov	r0, r7
     a7c:	f007 f956 	bl	7d2c <__aeabi_fdiv>
     a80:	4601      	mov	r1, r0
     a82:	4630      	mov	r0, r6
     a84:	f006 ff94 	bl	79b0 <__aeabi_fsub>
     a88:	4631      	mov	r1, r6
     a8a:	f007 f94f 	bl	7d2c <__aeabi_fdiv>
     a8e:	f006 fbef 	bl	7270 <__aeabi_f2d>
     a92:	f001 f995 	bl	1dc0 <fabs>
     a96:	f006 ff37 	bl	7908 <__aeabi_d2f>
     a9a:	4641      	mov	r1, r8
     a9c:	4607      	mov	r7, r0
     a9e:	f007 fa2f 	bl	7f00 <__aeabi_fcmplt>
     aa2:	2800      	cmp	r0, #0
     aa4:	d0cd      	beq.n	a42 <serial_baud+0xba>
     aa6:	f241 216f 	movw	r1, #4719	; 0x126f
     aaa:	4638      	mov	r0, r7
     aac:	f6c3 2183 	movt	r1, #14979	; 0x3a83
     ab0:	f007 fa26 	bl	7f00 <__aeabi_fcmplt>
     ab4:	46b8      	mov	r8, r7
     ab6:	9504      	str	r5, [sp, #16]
     ab8:	9403      	str	r4, [sp, #12]
     aba:	2800      	cmp	r0, #0
     abc:	d0bf      	beq.n	a3e <serial_baud+0xb6>
     abe:	9b01      	ldr	r3, [sp, #4]
     ac0:	2101      	movs	r1, #1
     ac2:	9302      	str	r3, [sp, #8]
     ac4:	9105      	str	r1, [sp, #20]
     ac6:	e7bc      	b.n	a42 <serial_baud+0xba>
     ac8:	f44f 4040 	mov.w	r0, #49152	; 0xc000
     acc:	f2c4 0000 	movt	r0, #16384	; 0x4000
     ad0:	4284      	cmp	r4, r0
     ad2:	d058      	beq.n	b86 <serial_baud+0x1fe>
     ad4:	4d35      	ldr	r5, [pc, #212]	; (bac <serial_baud+0x224>)
     ad6:	4936      	ldr	r1, [pc, #216]	; (bb0 <serial_baud+0x228>)
     ad8:	682e      	ldr	r6, [r5, #0]
     ada:	68f0      	ldr	r0, [r6, #12]
     adc:	f001 fb90 	bl	2200 <fiprintf>
     ae0:	2001      	movs	r0, #1
     ae2:	f000 fa1d 	bl	f20 <exit>
     ae6:	9b01      	ldr	r3, [sp, #4]
     ae8:	9c06      	ldr	r4, [sp, #24]
     aea:	f103 0b01 	add.w	r11, r3, #1
     aee:	fa1f fb8b 	uxth.w	r11, r11
     af2:	455c      	cmp	r4, r11
     af4:	f8cd b004 	str.w	r11, [sp, #4]
     af8:	d302      	bcc.n	b00 <serial_baud+0x178>
     afa:	9905      	ldr	r1, [sp, #20]
     afc:	2900      	cmp	r1, #0
     afe:	d08d      	beq.n	a1c <serial_baud+0x94>
     b00:	9c02      	ldr	r4, [sp, #8]
     b02:	9803      	ldr	r0, [sp, #12]
     b04:	9a04      	ldr	r2, [sp, #16]
     b06:	9907      	ldr	r1, [sp, #28]
     b08:	ea40 1302 	orr.w	r3, r0, r2, lsl #4
     b0c:	9406      	str	r4, [sp, #24]
     b0e:	680c      	ldr	r4, [r1, #0]
     b10:	b2db      	uxtb	r3, r3
     b12:	7b22      	ldrb	r2, [r4, #12]
     b14:	9906      	ldr	r1, [sp, #24]
     b16:	f042 0280 	orr.w	r2, r2, #128	; 0x80
     b1a:	7322      	strb	r2, [r4, #12]
     b1c:	9c07      	ldr	r4, [sp, #28]
     b1e:	0a08      	lsrs	r0, r1, #8
     b20:	6822      	ldr	r2, [r4, #0]
     b22:	9c07      	ldr	r4, [sp, #28]
     b24:	7110      	strb	r0, [r2, #4]
     b26:	6820      	ldr	r0, [r4, #0]
     b28:	b2c9      	uxtb	r1, r1
     b2a:	7001      	strb	r1, [r0, #0]
     b2c:	6822      	ldr	r2, [r4, #0]
     b2e:	f882 3028 	strb.w	r3, [r2, #40]	; 0x28
     b32:	6823      	ldr	r3, [r4, #0]
     b34:	7b19      	ldrb	r1, [r3, #12]
     b36:	f001 007f 	and.w	r0, r1, #127	; 0x7f
     b3a:	7318      	strb	r0, [r3, #12]
     b3c:	b009      	add	sp, #36	; 0x24
     b3e:	e8bd 8ff0 	ldmia.w	sp!, {r4, r5, r6, r7, r8, r9, r10, r11, pc}
     b42:	2310      	movs	r3, #16
     b44:	e7e5      	b.n	b12 <serial_baud+0x18a>
     b46:	f2c4 000f 	movt	r0, #16399	; 0x400f
     b4a:	f8d0 31ac 	ldr.w	r3, [r0, #428]	; 0x1ac
     b4e:	f423 3240 	bic.w	r2, r3, #196608	; 0x30000
     b52:	f8c0 21ac 	str.w	r2, [r0, #428]	; 0x1ac
     b56:	f8d0 31ac 	ldr.w	r3, [r0, #428]	; 0x1ac
     b5a:	f443 3280 	orr.w	r2, r3, #65536	; 0x10000
     b5e:	f8c0 21ac 	str.w	r2, [r0, #428]	; 0x1ac
     b62:	e73c      	b.n	9de <serial_baud+0x56>
     b64:	f44f 4040 	mov.w	r0, #49152	; 0xc000
     b68:	f2c4 000f 	movt	r0, #16399	; 0x400f
     b6c:	f8d0 31a8 	ldr.w	r3, [r0, #424]	; 0x1a8
     b70:	f423 7240 	bic.w	r2, r3, #768	; 0x300
     b74:	f8c0 21a8 	str.w	r2, [r0, #424]	; 0x1a8
     b78:	f8d0 31a8 	ldr.w	r3, [r0, #424]	; 0x1a8
     b7c:	f443 7280 	orr.w	r2, r3, #256	; 0x100
     b80:	f8c0 21a8 	str.w	r2, [r0, #424]	; 0x1a8
     b84:	e72b      	b.n	9de <serial_baud+0x56>
     b86:	f44f 4340 	mov.w	r3, #49152	; 0xc000
     b8a:	f2c4 030f 	movt	r3, #16399	; 0x400f
     b8e:	f8d3 21a8 	ldr.w	r2, [r3, #424]	; 0x1a8
     b92:	f022 00c0 	bic.w	r0, r2, #192	; 0xc0
     b96:	f8c3 01a8 	str.w	r0, [r3, #424]	; 0x1a8
     b9a:	f8d3 21a8 	ldr.w	r2, [r3, #424]	; 0x1a8
     b9e:	f042 0040 	orr.w	r0, r2, #64	; 0x40
     ba2:	f8c3 01a8 	str.w	r0, [r3, #424]	; 0x1a8
     ba6:	e71a      	b.n	9de <serial_baud+0x56>
     ba8:	100000d0 	.word	0x100000d0
     bac:	10000138 	.word	0x10000138
     bb0:	000080bc 	.word	0x000080bc

00000bb4 <serial_format>:
     bb4:	b538      	push	{r3, r4, r5, lr}
     bb6:	3b01      	subs	r3, #1
     bb8:	2b01      	cmp	r3, #1
     bba:	460d      	mov	r5, r1
     bbc:	d828      	bhi.n	c10 <Stack_Size+0x10>
     bbe:	1f4c      	subs	r4, r1, #5
     bc0:	2c03      	cmp	r4, #3
     bc2:	d827      	bhi.n	c14 <Stack_Size+0x14>
     bc4:	2a04      	cmp	r2, #4
     bc6:	d80e      	bhi.n	be6 <serial_format+0x32>
     bc8:	e8df f002 	tbb	[pc, r2]
     bcc:	1f1c1916 	.word	0x1f1c1916
     bd0:	03          	.byte	0x03
     bd1:	00          	.byte	0x00
     bd2:	2230      	movs	r2, #48	; 0x30
     bd4:	2108      	movs	r1, #8
     bd6:	ea44 0383 	orr.w	r3, r4, r3, lsl #2
     bda:	430b      	orrs	r3, r1
     bdc:	6800      	ldr	r0, [r0, #0]
     bde:	431a      	orrs	r2, r3
     be0:	b2d1      	uxtb	r1, r2
     be2:	7301      	strb	r1, [r0, #12]
     be4:	bd38      	pop	{r3, r4, r5, pc}
     be6:	4910      	ldr	r1, [pc, #64]	; (c28 <Stack_Size+0x28>)
     be8:	4d10      	ldr	r5, [pc, #64]	; (c2c <Stack_Size+0x2c>)
     bea:	6828      	ldr	r0, [r5, #0]
     bec:	68c0      	ldr	r0, [r0, #12]
     bee:	f001 fb07 	bl	2200 <fiprintf>
     bf2:	2001      	movs	r0, #1
     bf4:	f000 f994 	bl	f20 <exit>
     bf8:	2200      	movs	r2, #0
     bfa:	4611      	mov	r1, r2
     bfc:	e7eb      	b.n	bd6 <serial_format+0x22>
     bfe:	2200      	movs	r2, #0
     c00:	2108      	movs	r1, #8
     c02:	e7e8      	b.n	bd6 <serial_format+0x22>
     c04:	2210      	movs	r2, #16
     c06:	2108      	movs	r1, #8
     c08:	e7e5      	b.n	bd6 <serial_format+0x22>
     c0a:	2220      	movs	r2, #32
     c0c:	2108      	movs	r1, #8
     c0e:	e7e2      	b.n	bd6 <serial_format+0x22>
     c10:	4907      	ldr	r1, [pc, #28]	; (c30 <Stack_Size+0x30>)
     c12:	e7e9      	b.n	be8 <serial_format+0x34>
     c14:	4c05      	ldr	r4, [pc, #20]	; (c2c <Stack_Size+0x2c>)
     c16:	4907      	ldr	r1, [pc, #28]	; (c34 <Stack_Size+0x34>)
     c18:	6823      	ldr	r3, [r4, #0]
     c1a:	462a      	mov	r2, r5
     c1c:	68d8      	ldr	r0, [r3, #12]
     c1e:	f001 faef 	bl	2200 <fiprintf>
     c22:	2001      	movs	r0, #1
     c24:	f000 f97c 	bl	f20 <exit>
     c28:	00008124 	.word	0x00008124
     c2c:	10000138 	.word	0x10000138
     c30:	000080c8 	.word	0x000080c8
     c34:	000080e4 	.word	0x000080e4

00000c38 <serial_init>:
     c38:	e92d 43f8 	stmdb	sp!, {r3, r4, r5, r6, r7, r8, r9, lr}
     c3c:	460f      	mov	r7, r1
     c3e:	4605      	mov	r5, r0
     c40:	49a1      	ldr	r1, [pc, #644]	; (ec8 <serial_init+0x290>)
     c42:	4638      	mov	r0, r7
     c44:	4616      	mov	r6, r2
     c46:	f000 f9b9 	bl	fbc <pinmap_peripheral>
     c4a:	49a0      	ldr	r1, [pc, #640]	; (ecc <serial_init+0x294>)
     c4c:	4604      	mov	r4, r0
     c4e:	4630      	mov	r0, r6
     c50:	f000 f9b4 	bl	fbc <pinmap_peripheral>
     c54:	4601      	mov	r1, r0
     c56:	4620      	mov	r0, r4
     c58:	f000 f998 	bl	f8c <pinmap_merge>
     c5c:	1c43      	adds	r3, r0, #1
     c5e:	4604      	mov	r4, r0
     c60:	f000 8129 	beq.w	eb6 <serial_init+0x27e>
     c64:	2300      	movs	r3, #0
     c66:	f2c4 0301 	movt	r3, #16385	; 0x4001
     c6a:	4298      	cmp	r0, r3
     c6c:	6028      	str	r0, [r5, #0]
     c6e:	d07c      	beq.n	d6a <serial_init+0x132>
     c70:	d93c      	bls.n	cec <serial_init+0xb4>
     c72:	f44f 4200 	mov.w	r2, #32768	; 0x8000
     c76:	f2c4 0209 	movt	r2, #16393	; 0x4009
     c7a:	4290      	cmp	r0, r2
     c7c:	f000 80dd 	beq.w	e3a <serial_init+0x202>
     c80:	f44f 4140 	mov.w	r1, #49152	; 0xc000
     c84:	f2c4 0109 	movt	r1, #16393	; 0x4009
     c88:	4288      	cmp	r0, r1
     c8a:	d135      	bne.n	cf8 <serial_init+0xc0>
     c8c:	f44f 4240 	mov.w	r2, #49152	; 0xc000
     c90:	f2c4 020f 	movt	r2, #16399	; 0x400f
     c94:	f8d2 10c4 	ldr.w	r1, [r2, #196]	; 0xc4
     c98:	f04f 0801 	mov.w	r8, #1
     c9c:	f041 7000 	orr.w	r0, r1, #33554432	; 0x2000000
     ca0:	f8c2 00c4 	str.w	r0, [r2, #196]	; 0xc4
     ca4:	f884 8008 	strb.w	r8, [r4, #8]
     ca8:	682b      	ldr	r3, [r5, #0]
     caa:	2400      	movs	r4, #0
     cac:	605c      	str	r4, [r3, #4]
     cae:	4628      	mov	r0, r5
     cb0:	f44f 5116 	mov.w	r1, #9600	; 0x2580
     cb4:	f7ff fe68 	bl	988 <serial_baud>
     cb8:	4622      	mov	r2, r4
     cba:	4643      	mov	r3, r8
     cbc:	4628      	mov	r0, r5
     cbe:	2108      	movs	r1, #8
     cc0:	f7ff ff78 	bl	bb4 <serial_format>
     cc4:	4638      	mov	r0, r7
     cc6:	4980      	ldr	r1, [pc, #512]	; (ec8 <serial_init+0x290>)
     cc8:	f000 f93a 	bl	f40 <pinmap_pinout>
     ccc:	4630      	mov	r0, r6
     cce:	497f      	ldr	r1, [pc, #508]	; (ecc <serial_init+0x294>)
     cd0:	f000 f936 	bl	f40 <pinmap_pinout>
     cd4:	4638      	mov	r0, r7
     cd6:	4621      	mov	r1, r4
     cd8:	f7ff fe20 	bl	91c <pin_mode>
     cdc:	4630      	mov	r0, r6
     cde:	4621      	mov	r1, r4
     ce0:	f7ff fe1c 	bl	91c <pin_mode>
     ce4:	2203      	movs	r2, #3
     ce6:	606a      	str	r2, [r5, #4]
     ce8:	e8bd 83f8 	ldmia.w	sp!, {r3, r4, r5, r6, r7, r8, r9, pc}
     cec:	f44f 4040 	mov.w	r0, #49152	; 0xc000
     cf0:	f2c4 0000 	movt	r0, #16384	; 0x4000
     cf4:	4284      	cmp	r4, r0
     cf6:	d068      	beq.n	dca <serial_init+0x192>
     cf8:	f04f 0901 	mov.w	r9, #1
     cfc:	f884 9008 	strb.w	r9, [r4, #8]
     d00:	682b      	ldr	r3, [r5, #0]
     d02:	f04f 0800 	mov.w	r8, #0
     d06:	f44f 5116 	mov.w	r1, #9600	; 0x2580
     d0a:	f8c3 8004 	str.w	r8, [r3, #4]
     d0e:	4628      	mov	r0, r5
     d10:	f7ff fe3a 	bl	988 <serial_baud>
     d14:	4642      	mov	r2, r8
     d16:	464b      	mov	r3, r9
     d18:	2108      	movs	r1, #8
     d1a:	4628      	mov	r0, r5
     d1c:	f7ff ff4a 	bl	bb4 <serial_format>
     d20:	4638      	mov	r0, r7
     d22:	4969      	ldr	r1, [pc, #420]	; (ec8 <serial_init+0x290>)
     d24:	f000 f90c 	bl	f40 <pinmap_pinout>
     d28:	4630      	mov	r0, r6
     d2a:	4968      	ldr	r1, [pc, #416]	; (ecc <serial_init+0x294>)
     d2c:	f000 f908 	bl	f40 <pinmap_pinout>
     d30:	4638      	mov	r0, r7
     d32:	4641      	mov	r1, r8
     d34:	f7ff fdf2 	bl	91c <pin_mode>
     d38:	4630      	mov	r0, r6
     d3a:	4641      	mov	r1, r8
     d3c:	f7ff fdee 	bl	91c <pin_mode>
     d40:	4640      	mov	r0, r8
     d42:	f2c4 0001 	movt	r0, #16385	; 0x4001
     d46:	4284      	cmp	r4, r0
     d48:	d03b      	beq.n	dc2 <serial_init+0x18a>
     d4a:	f200 80a6 	bhi.w	e9a <serial_init+0x262>
     d4e:	f44f 4240 	mov.w	r2, #49152	; 0xc000
     d52:	f2c4 0200 	movt	r2, #16384	; 0x4000
     d56:	4294      	cmp	r4, r2
     d58:	d063      	beq.n	e22 <serial_init+0x1ea>
     d5a:	f44f 4040 	mov.w	r0, #49152	; 0xc000
     d5e:	f2c4 0000 	movt	r0, #16384	; 0x4000
     d62:	4284      	cmp	r4, r0
     d64:	d05f      	beq.n	e26 <serial_init+0x1ee>
     d66:	e8bd 83f8 	ldmia.w	sp!, {r3, r4, r5, r6, r7, r8, r9, pc}
     d6a:	f44f 4040 	mov.w	r0, #49152	; 0xc000
     d6e:	f2c4 000f 	movt	r0, #16399	; 0x400f
     d72:	f8d0 30c4 	ldr.w	r3, [r0, #196]	; 0xc4
     d76:	f04f 0801 	mov.w	r8, #1
     d7a:	f043 0210 	orr.w	r2, r3, #16
     d7e:	f8c0 20c4 	str.w	r2, [r0, #196]	; 0xc4
     d82:	f884 8008 	strb.w	r8, [r4, #8]
     d86:	6829      	ldr	r1, [r5, #0]
     d88:	2400      	movs	r4, #0
     d8a:	604c      	str	r4, [r1, #4]
     d8c:	4628      	mov	r0, r5
     d8e:	f44f 5116 	mov.w	r1, #9600	; 0x2580
     d92:	f7ff fdf9 	bl	988 <serial_baud>
     d96:	4622      	mov	r2, r4
     d98:	4643      	mov	r3, r8
     d9a:	4628      	mov	r0, r5
     d9c:	2108      	movs	r1, #8
     d9e:	f7ff ff09 	bl	bb4 <serial_format>
     da2:	4638      	mov	r0, r7
     da4:	4948      	ldr	r1, [pc, #288]	; (ec8 <serial_init+0x290>)
     da6:	f000 f8cb 	bl	f40 <pinmap_pinout>
     daa:	4630      	mov	r0, r6
     dac:	4947      	ldr	r1, [pc, #284]	; (ecc <serial_init+0x294>)
     dae:	f000 f8c7 	bl	f40 <pinmap_pinout>
     db2:	4638      	mov	r0, r7
     db4:	4621      	mov	r1, r4
     db6:	f7ff fdb1 	bl	91c <pin_mode>
     dba:	4630      	mov	r0, r6
     dbc:	4621      	mov	r1, r4
     dbe:	f7ff fdad 	bl	91c <pin_mode>
     dc2:	2001      	movs	r0, #1
     dc4:	6068      	str	r0, [r5, #4]
     dc6:	e8bd 83f8 	ldmia.w	sp!, {r3, r4, r5, r6, r7, r8, r9, pc}
     dca:	f44f 4240 	mov.w	r2, #49152	; 0xc000
     dce:	f2c4 020f 	movt	r2, #16399	; 0x400f
     dd2:	f8d2 10c4 	ldr.w	r1, [r2, #196]	; 0xc4
     dd6:	f04f 0801 	mov.w	r8, #1
     dda:	f041 0308 	orr.w	r3, r1, #8
     dde:	f8c2 30c4 	str.w	r3, [r2, #196]	; 0xc4
     de2:	f884 8008 	strb.w	r8, [r4, #8]
     de6:	6828      	ldr	r0, [r5, #0]
     de8:	2400      	movs	r4, #0
     dea:	6044      	str	r4, [r0, #4]
     dec:	f44f 5116 	mov.w	r1, #9600	; 0x2580
     df0:	4628      	mov	r0, r5
     df2:	f7ff fdc9 	bl	988 <serial_baud>
     df6:	4622      	mov	r2, r4
     df8:	4643      	mov	r3, r8
     dfa:	4628      	mov	r0, r5
     dfc:	2108      	movs	r1, #8
     dfe:	f7ff fed9 	bl	bb4 <serial_format>
     e02:	4638      	mov	r0, r7
     e04:	4930      	ldr	r1, [pc, #192]	; (ec8 <serial_init+0x290>)
     e06:	f000 f89b 	bl	f40 <pinmap_pinout>
     e0a:	4630      	mov	r0, r6
     e0c:	492f      	ldr	r1, [pc, #188]	; (ecc <serial_init+0x294>)
     e0e:	f000 f897 	bl	f40 <pinmap_pinout>
     e12:	4638      	mov	r0, r7
     e14:	4621      	mov	r1, r4
     e16:	f7ff fd81 	bl	91c <pin_mode>
     e1a:	4630      	mov	r0, r6
     e1c:	4621      	mov	r1, r4
     e1e:	f7ff fd7d 	bl	91c <pin_mode>
     e22:	2400      	movs	r4, #0
     e24:	606c      	str	r4, [r5, #4]
     e26:	4b2a      	ldr	r3, [pc, #168]	; (ed0 <serial_init+0x298>)
     e28:	482a      	ldr	r0, [pc, #168]	; (ed4 <serial_init+0x29c>)
     e2a:	2401      	movs	r4, #1
     e2c:	4629      	mov	r1, r5
     e2e:	2208      	movs	r2, #8
     e30:	601c      	str	r4, [r3, #0]
     e32:	e8bd 43f8 	ldmia.w	sp!, {r3, r4, r5, r6, r7, r8, r9, lr}
     e36:	f001 bb45 	b.w	24c4 <memcpy>
     e3a:	f44f 4140 	mov.w	r1, #49152	; 0xc000
     e3e:	f2c4 010f 	movt	r1, #16399	; 0x400f
     e42:	f8d1 00c4 	ldr.w	r0, [r1, #196]	; 0xc4
     e46:	f04f 0801 	mov.w	r8, #1
     e4a:	f040 7380 	orr.w	r3, r0, #16777216	; 0x1000000
     e4e:	f8c1 30c4 	str.w	r3, [r1, #196]	; 0xc4
     e52:	f884 8008 	strb.w	r8, [r4, #8]
     e56:	682a      	ldr	r2, [r5, #0]
     e58:	2400      	movs	r4, #0
     e5a:	6054      	str	r4, [r2, #4]
     e5c:	4628      	mov	r0, r5
     e5e:	f44f 5116 	mov.w	r1, #9600	; 0x2580
     e62:	f7ff fd91 	bl	988 <serial_baud>
     e66:	4622      	mov	r2, r4
     e68:	4643      	mov	r3, r8
     e6a:	4628      	mov	r0, r5
     e6c:	2108      	movs	r1, #8
     e6e:	f7ff fea1 	bl	bb4 <serial_format>
     e72:	4638      	mov	r0, r7
     e74:	4914      	ldr	r1, [pc, #80]	; (ec8 <serial_init+0x290>)
     e76:	f000 f863 	bl	f40 <pinmap_pinout>
     e7a:	4630      	mov	r0, r6
     e7c:	4913      	ldr	r1, [pc, #76]	; (ecc <serial_init+0x294>)
     e7e:	f000 f85f 	bl	f40 <pinmap_pinout>
     e82:	4638      	mov	r0, r7
     e84:	4621      	mov	r1, r4
     e86:	f7ff fd49 	bl	91c <pin_mode>
     e8a:	4630      	mov	r0, r6
     e8c:	4621      	mov	r1, r4
     e8e:	f7ff fd45 	bl	91c <pin_mode>
     e92:	2102      	movs	r1, #2
     e94:	6069      	str	r1, [r5, #4]
     e96:	e8bd 83f8 	ldmia.w	sp!, {r3, r4, r5, r6, r7, r8, r9, pc}
     e9a:	f44f 4100 	mov.w	r1, #32768	; 0x8000
     e9e:	f2c4 0109 	movt	r1, #16393	; 0x4009
     ea2:	428c      	cmp	r4, r1
     ea4:	d0f5      	beq.n	e92 <serial_init+0x25a>
     ea6:	f44f 4340 	mov.w	r3, #49152	; 0xc000
     eaa:	f2c4 0309 	movt	r3, #16393	; 0x4009
     eae:	429c      	cmp	r4, r3
     eb0:	f47f af53 	bne.w	d5a <serial_init+0x122>
     eb4:	e716      	b.n	ce4 <serial_init+0xac>
     eb6:	4d08      	ldr	r5, [pc, #32]	; (ed8 <serial_init+0x2a0>)
     eb8:	4908      	ldr	r1, [pc, #32]	; (edc <serial_init+0x2a4>)
     eba:	682e      	ldr	r6, [r5, #0]
     ebc:	68f0      	ldr	r0, [r6, #12]
     ebe:	f001 f99f 	bl	2200 <fiprintf>
     ec2:	2001      	movs	r0, #1
     ec4:	f000 f82c 	bl	f20 <exit>
     ec8:	00008164 	.word	0x00008164
     ecc:	00008050 	.word	0x00008050
     ed0:	10000474 	.word	0x10000474
     ed4:	100004a8 	.word	0x100004a8
     ed8:	10000138 	.word	0x10000138
     edc:	00008144 	.word	0x00008144

00000ee0 <serial_irq_handler>:
     ee0:	b410      	push	{r4}
     ee2:	f240 4378 	movw	r3, #1144	; 0x478
     ee6:	f240 4488 	movw	r4, #1160	; 0x488
     eea:	6840      	ldr	r0, [r0, #4]
     eec:	f2c1 0400 	movt	r4, #4096	; 0x1000
     ef0:	f2c1 0300 	movt	r3, #4096	; 0x1000
     ef4:	6021      	str	r1, [r4, #0]
     ef6:	f843 2020 	str.w	r2, [r3, r0, lsl #2]
     efa:	bc10      	pop	{r4}
     efc:	4770      	bx	lr
     efe:	bf00      	nop

00000f00 <serial_getc>:
     f00:	6802      	ldr	r2, [r0, #0]
     f02:	7d13      	ldrb	r3, [r2, #20]
     f04:	07d9      	lsls	r1, r3, #31
     f06:	d5fc      	bpl.n	f02 <serial_getc+0x2>
     f08:	7810      	ldrb	r0, [r2, #0]
     f0a:	4770      	bx	lr

00000f0c <serial_putc>:
     f0c:	6802      	ldr	r2, [r0, #0]
     f0e:	7d13      	ldrb	r3, [r2, #20]
     f10:	f003 0020 	and.w	r0, r3, #32
     f14:	b2c3      	uxtb	r3, r0
     f16:	2b00      	cmp	r3, #0
     f18:	d0f9      	beq.n	f0e <serial_putc+0x2>
     f1a:	b2c9      	uxtb	r1, r1
     f1c:	7011      	strb	r1, [r2, #0]
     f1e:	4770      	bx	lr

00000f20 <exit>:
     f20:	b510      	push	{r4, lr}
     f22:	4604      	mov	r4, r0
     f24:	f000 f80a 	bl	f3c <mbed_interface_connected>
     f28:	b920      	cbnz	r0, f34 <exit+0x14>
     f2a:	b904      	cbnz	r4, f2e <exit+0xe>
     f2c:	e7fe      	b.n	f2c <exit+0xc>
     f2e:	f000 fa5b 	bl	13e8 <mbed_die>
     f32:	e7fb      	b.n	f2c <exit+0xc>
     f34:	f000 f860 	bl	ff8 <semihost_exit>
     f38:	e7f7      	b.n	f2a <exit+0xa>
     f3a:	bf00      	nop

00000f3c <mbed_interface_connected>:
     f3c:	f000 b868 	b.w	1010 <semihost_connected>

00000f40 <pinmap_pinout>:
     f40:	1c43      	adds	r3, r0, #1
     f42:	b510      	push	{r4, lr}
     f44:	4604      	mov	r4, r0
     f46:	d013      	beq.n	f70 <pinmap_pinout+0x30>
     f48:	680b      	ldr	r3, [r1, #0]
     f4a:	1c58      	adds	r0, r3, #1
     f4c:	d104      	bne.n	f58 <pinmap_pinout+0x18>
     f4e:	e010      	b.n	f72 <pinmap_pinout+0x32>
     f50:	f851 3f0c 	ldr.w	r3, [r1, #12]!
     f54:	1c5a      	adds	r2, r3, #1
     f56:	d00c      	beq.n	f72 <pinmap_pinout+0x32>
     f58:	429c      	cmp	r4, r3
     f5a:	d1f9      	bne.n	f50 <pinmap_pinout+0x10>
     f5c:	4620      	mov	r0, r4
     f5e:	6889      	ldr	r1, [r1, #8]
     f60:	f7ff fcba 	bl	8d8 <pin_function>
     f64:	4620      	mov	r0, r4
     f66:	2102      	movs	r1, #2
     f68:	e8bd 4010 	ldmia.w	sp!, {r4, lr}
     f6c:	f7ff bcd6 	b.w	91c <pin_mode>
     f70:	bd10      	pop	{r4, pc}
     f72:	4804      	ldr	r0, [pc, #16]	; (f84 <pinmap_pinout+0x44>)
     f74:	4904      	ldr	r1, [pc, #16]	; (f88 <pinmap_pinout+0x48>)
     f76:	6802      	ldr	r2, [r0, #0]
     f78:	68d0      	ldr	r0, [r2, #12]
     f7a:	f001 f941 	bl	2200 <fiprintf>
     f7e:	2001      	movs	r0, #1
     f80:	f7ff ffce 	bl	f20 <exit>
     f84:	10000138 	.word	0x10000138
     f88:	000081d0 	.word	0x000081d0

00000f8c <pinmap_merge>:
     f8c:	4288      	cmp	r0, r1
     f8e:	b508      	push	{r3, lr}
     f90:	d003      	beq.n	f9a <pinmap_merge+0xe>
     f92:	1c42      	adds	r2, r0, #1
     f94:	d002      	beq.n	f9c <pinmap_merge+0x10>
     f96:	3101      	adds	r1, #1
     f98:	d102      	bne.n	fa0 <pinmap_merge+0x14>
     f9a:	bd08      	pop	{r3, pc}
     f9c:	4608      	mov	r0, r1
     f9e:	bd08      	pop	{r3, pc}
     fa0:	4b04      	ldr	r3, [pc, #16]	; (fb4 <pinmap_merge+0x28>)
     fa2:	4905      	ldr	r1, [pc, #20]	; (fb8 <pinmap_merge+0x2c>)
     fa4:	6818      	ldr	r0, [r3, #0]
     fa6:	68c0      	ldr	r0, [r0, #12]
     fa8:	f001 f92a 	bl	2200 <fiprintf>
     fac:	2001      	movs	r0, #1
     fae:	f7ff ffb7 	bl	f20 <exit>
     fb2:	bf00      	nop
     fb4:	10000138 	.word	0x10000138
     fb8:	000081e4 	.word	0x000081e4

00000fbc <pinmap_peripheral>:
     fbc:	b508      	push	{r3, lr}
     fbe:	1c43      	adds	r3, r0, #1
     fc0:	d00b      	beq.n	fda <pinmap_peripheral+0x1e>
     fc2:	680b      	ldr	r3, [r1, #0]
     fc4:	1c5a      	adds	r2, r3, #1
     fc6:	d104      	bne.n	fd2 <pinmap_peripheral+0x16>
     fc8:	e008      	b.n	fdc <pinmap_peripheral+0x20>
     fca:	f851 3f0c 	ldr.w	r3, [r1, #12]!
     fce:	1c5a      	adds	r2, r3, #1
     fd0:	d004      	beq.n	fdc <pinmap_peripheral+0x20>
     fd2:	4298      	cmp	r0, r3
     fd4:	d1f9      	bne.n	fca <pinmap_peripheral+0xe>
     fd6:	6848      	ldr	r0, [r1, #4]
     fd8:	bd08      	pop	{r3, pc}
     fda:	bd08      	pop	{r3, pc}
     fdc:	4804      	ldr	r0, [pc, #16]	; (ff0 <pinmap_peripheral+0x34>)
     fde:	4905      	ldr	r1, [pc, #20]	; (ff4 <pinmap_peripheral+0x38>)
     fe0:	6802      	ldr	r2, [r0, #0]
     fe2:	68d0      	ldr	r0, [r2, #12]
     fe4:	f001 f90c 	bl	2200 <fiprintf>
     fe8:	2001      	movs	r0, #1
     fea:	f7ff ff99 	bl	f20 <exit>
     fee:	bf00      	nop
     ff0:	10000138 	.word	0x10000138
     ff4:	000081f8 	.word	0x000081f8

00000ff8 <semihost_exit>:
     ff8:	b530      	push	{r4, r5, lr}
     ffa:	b085      	sub	sp, #20
     ffc:	466d      	mov	r5, sp
     ffe:	2418      	movs	r4, #24
    1000:	4620      	mov	r0, r4
    1002:	4629      	mov	r1, r5
    1004:	beab      	bkpt	0x00ab
    1006:	4604      	mov	r4, r0
    1008:	4620      	mov	r0, r4
    100a:	b005      	add	sp, #20
    100c:	bd30      	pop	{r4, r5, pc}
    100e:	bf00      	nop

00001010 <semihost_connected>:
    1010:	f64e 53f0 	movw	r3, #60912	; 0xedf0
    1014:	f2ce 0300 	movt	r3, #57344	; 0xe000
    1018:	6818      	ldr	r0, [r3, #0]
    101a:	f000 0001 	and.w	r0, r0, #1
    101e:	4770      	bx	lr

00001020 <wait_us>:
    1020:	b538      	push	{r3, r4, r5, lr}
    1022:	4605      	mov	r5, r0
    1024:	f000 f9b6 	bl	1394 <us_ticker_read>
    1028:	4604      	mov	r4, r0
    102a:	f000 f9b3 	bl	1394 <us_ticker_read>
    102e:	1b00      	subs	r0, r0, r4
    1030:	42a8      	cmp	r0, r5
    1032:	d3fa      	bcc.n	102a <wait_us+0xa>
    1034:	bd38      	pop	{r3, r4, r5, pc}
    1036:	bf00      	nop

00001038 <wait_ms>:
    1038:	f44f 737a 	mov.w	r3, #1000	; 0x3e8
    103c:	fb03 f000 	mul.w	r0, r3, r0
    1040:	f7ff bfee 	b.w	1020 <wait_us>

00001044 <wait>:
    1044:	f44f 5110 	mov.w	r1, #9216	; 0x2400
    1048:	b508      	push	{r3, lr}
    104a:	f6c4 1174 	movt	r1, #18804	; 0x4974
    104e:	f006 fdb9 	bl	7bc4 <__aeabi_fmul>
    1052:	f006 ff7d 	bl	7f50 <__aeabi_f2iz>
    1056:	e8bd 4008 	ldmia.w	sp!, {r3, lr}
    105a:	f7ff bfe1 	b.w	1020 <wait_us>
    105e:	bf00      	nop

00001060 <mbed::FilePath::FilePath(char const*)>:
    1060:	b538      	push	{r3, r4, r5, lr}
    1062:	2200      	movs	r2, #0
    1064:	6002      	str	r2, [r0, #0]
    1066:	6042      	str	r2, [r0, #4]
    1068:	780b      	ldrb	r3, [r1, #0]
    106a:	4604      	mov	r4, r0
    106c:	2b2f      	cmp	r3, #47	; 0x2f
    106e:	d001      	beq.n	1074 <mbed::FilePath::FilePath(char const*)+0x14>
    1070:	4620      	mov	r0, r4
    1072:	bd38      	pop	{r3, r4, r5, pc}
    1074:	7848      	ldrb	r0, [r1, #1]
    1076:	2800      	cmp	r0, #0
    1078:	d0fa      	beq.n	1070 <mbed::FilePath::FilePath(char const*)+0x10>
    107a:	1c48      	adds	r0, r1, #1
    107c:	6020      	str	r0, [r4, #0]
    107e:	784b      	ldrb	r3, [r1, #1]
    1080:	2b2f      	cmp	r3, #47	; 0x2f
    1082:	d012      	beq.n	10aa <mbed::FilePath::FilePath(char const*)+0x4a>
    1084:	b1a3      	cbz	r3, 10b0 <mbed::FilePath::FilePath(char const*)+0x50>
    1086:	1c8d      	adds	r5, r1, #2
    1088:	4611      	mov	r1, r2
    108a:	e000      	b.n	108e <mbed::FilePath::FilePath(char const*)+0x2e>
    108c:	b142      	cbz	r2, 10a0 <mbed::FilePath::FilePath(char const*)+0x40>
    108e:	6025      	str	r5, [r4, #0]
    1090:	782a      	ldrb	r2, [r5, #0]
    1092:	462b      	mov	r3, r5
    1094:	3101      	adds	r1, #1
    1096:	3501      	adds	r5, #1
    1098:	2a2f      	cmp	r2, #47	; 0x2f
    109a:	d1f7      	bne.n	108c <mbed::FilePath::FilePath(char const*)+0x2c>
    109c:	3301      	adds	r3, #1
    109e:	6023      	str	r3, [r4, #0]
    10a0:	f000 fab6 	bl	1610 <mbed::FileBase::lookup(char const*, unsigned int)>
    10a4:	6060      	str	r0, [r4, #4]
    10a6:	4620      	mov	r0, r4
    10a8:	bd38      	pop	{r3, r4, r5, pc}
    10aa:	4603      	mov	r3, r0
    10ac:	4611      	mov	r1, r2
    10ae:	e7f5      	b.n	109c <mbed::FilePath::FilePath(char const*)+0x3c>
    10b0:	4619      	mov	r1, r3
    10b2:	e7f5      	b.n	10a0 <mbed::FilePath::FilePath(char const*)+0x40>

000010b4 <mbed::FilePath::fileName()>:
    10b4:	6800      	ldr	r0, [r0, #0]
    10b6:	4770      	bx	lr

000010b8 <mbed::FilePath::isFileSystem()>:
    10b8:	6840      	ldr	r0, [r0, #4]
    10ba:	b508      	push	{r3, lr}
    10bc:	b120      	cbz	r0, 10c8 <mbed::FilePath::isFileSystem()+0x10>
    10be:	f000 fac7 	bl	1650 <mbed::FileBase::getPathType()>
    10c2:	1e43      	subs	r3, r0, #1
    10c4:	4258      	negs	r0, r3
    10c6:	4158      	adcs	r0, r3
    10c8:	bd08      	pop	{r3, pc}
    10ca:	bf00      	nop

000010cc <mbed::FilePath::fileSystem()>:
    10cc:	b510      	push	{r4, lr}
    10ce:	4604      	mov	r4, r0
    10d0:	f7ff fff2 	bl	10b8 <mbed::FilePath::isFileSystem()>
    10d4:	b100      	cbz	r0, 10d8 <mbed::FilePath::fileSystem()+0xc>
    10d6:	6860      	ldr	r0, [r4, #4]
    10d8:	bd10      	pop	{r4, pc}
    10da:	bf00      	nop

000010dc <mbed::FilePath::isFile()>:
    10dc:	6840      	ldr	r0, [r0, #4]
    10de:	b508      	push	{r3, lr}
    10e0:	b128      	cbz	r0, 10ee <mbed::FilePath::isFile()+0x12>
    10e2:	f000 fab5 	bl	1650 <mbed::FileBase::getPathType()>
    10e6:	f1d0 0001 	rsbs	r0, r0, #1
    10ea:	bf38      	it	cc
    10ec:	2000      	movcc	r0, #0
    10ee:	bd08      	pop	{r3, pc}

000010f0 <mbed::FilePath::file()>:
    10f0:	b510      	push	{r4, lr}
    10f2:	4604      	mov	r4, r0
    10f4:	f7ff fff2 	bl	10dc <mbed::FilePath::isFile()>
    10f8:	b110      	cbz	r0, 1100 <mbed::FilePath::file()+0x10>
    10fa:	6860      	ldr	r0, [r4, #4]
    10fc:	b100      	cbz	r0, 1100 <mbed::FilePath::file()+0x10>
    10fe:	3804      	subs	r0, #4
    1100:	bd10      	pop	{r4, pc}
    1102:	bf00      	nop

00001104 <mbed::FilePath::exists()>:
    1104:	6840      	ldr	r0, [r0, #4]
    1106:	3000      	adds	r0, #0
    1108:	bf18      	it	ne
    110a:	2001      	movne	r0, #1
    110c:	4770      	bx	lr
    110e:	bf00      	nop

00001110 <mbed::Serial::_putc(int)>:
    1110:	b510      	push	{r4, lr}
    1112:	3018      	adds	r0, #24
    1114:	460c      	mov	r4, r1
    1116:	f7ff fef9 	bl	f0c <serial_putc>
    111a:	4620      	mov	r0, r4
    111c:	bd10      	pop	{r4, pc}
    111e:	bf00      	nop

00001120 <mbed::Serial::_getc()>:
    1120:	3018      	adds	r0, #24
    1122:	f7ff beed 	b.w	f00 <serial_getc>
    1126:	bf00      	nop

00001128 <mbed::Serial::_irq_handler(unsigned long, SerialIrq)>:
    1128:	3102      	adds	r1, #2
    112a:	eb00 1001 	add.w	r0, r0, r1, lsl #4
    112e:	f000 ba19 	b.w	1564 <mbed::CallChain::call()>
    1132:	bf00      	nop

00001134 <mbed::Serial::Serial(PinName, PinName, char const*)>:
    1134:	b5f8      	push	{r3, r4, r5, r6, r7, lr}
    1136:	460e      	mov	r6, r1
    1138:	4619      	mov	r1, r3
    113a:	4604      	mov	r4, r0
    113c:	4617      	mov	r7, r2
    113e:	f000 f8cf 	bl	12e0 <mbed::Stream::Stream(char const*)>
    1142:	f248 2328 	movw	r3, #33320	; 0x8228
    1146:	f2c0 0300 	movt	r3, #0
    114a:	f103 0208 	add.w	r2, r3, #8
    114e:	333c      	adds	r3, #60	; 0x3c
    1150:	e884 000c 	stmia.w	r4, {r2, r3}
    1154:	2104      	movs	r1, #4
    1156:	f104 0020 	add.w	r0, r4, #32
    115a:	f000 f9ab 	bl	14b4 <mbed::CallChain::CallChain(int)>
    115e:	f104 0518 	add.w	r5, r4, #24
    1162:	2104      	movs	r1, #4
    1164:	f104 0030 	add.w	r0, r4, #48	; 0x30
    1168:	f000 f9a4 	bl	14b4 <mbed::CallChain::CallChain(int)>
    116c:	4628      	mov	r0, r5
    116e:	4631      	mov	r1, r6
    1170:	463a      	mov	r2, r7
    1172:	f7ff fd61 	bl	c38 <serial_init>
    1176:	f44f 5316 	mov.w	r3, #9600	; 0x2580
    117a:	f241 1129 	movw	r1, #4393	; 0x1129
    117e:	4628      	mov	r0, r5
    1180:	6423      	str	r3, [r4, #64]	; 0x40
    1182:	f2c0 0100 	movt	r1, #0
    1186:	4622      	mov	r2, r4
    1188:	f7ff feaa 	bl	ee0 <serial_irq_handler>
    118c:	4620      	mov	r0, r4
    118e:	bdf8      	pop	{r3, r4, r5, r6, r7, pc}

00001190 <mbed::Stream::close()>:
    1190:	2000      	movs	r0, #0
    1192:	4770      	bx	lr

00001194 <mbed::Stream::write(void const*, unsigned int)>:
    1194:	e92d 41f0 	stmdb	sp!, {r4, r5, r6, r7, r8, lr}
    1198:	188e      	adds	r6, r1, r2
    119a:	42b1      	cmp	r1, r6
    119c:	460f      	mov	r7, r1
    119e:	4605      	mov	r5, r0
    11a0:	d030      	beq.n	1204 <mbed::Stream::write(void const*, unsigned int)+0x70>
    11a2:	6803      	ldr	r3, [r0, #0]
    11a4:	1b8a      	subs	r2, r1, r6
    11a6:	460c      	mov	r4, r1
    11a8:	43d2      	mvns	r2, r2
    11aa:	6a5b      	ldr	r3, [r3, #36]	; 0x24
    11ac:	f814 1b01 	ldrb.w	r1, [r4], #1
    11b0:	f002 0801 	and.w	r8, r2, #1
    11b4:	4798      	blx	r3
    11b6:	3001      	adds	r0, #1
    11b8:	d01e      	beq.n	11f8 <mbed::Stream::write(void const*, unsigned int)+0x64>
    11ba:	42a6      	cmp	r6, r4
    11bc:	d01f      	beq.n	11fe <mbed::Stream::write(void const*, unsigned int)+0x6a>
    11be:	f1b8 0f00 	cmp.w	r8, #0
    11c2:	d009      	beq.n	11d8 <mbed::Stream::write(void const*, unsigned int)+0x44>
    11c4:	6829      	ldr	r1, [r5, #0]
    11c6:	4628      	mov	r0, r5
    11c8:	6a4a      	ldr	r2, [r1, #36]	; 0x24
    11ca:	f814 1b01 	ldrb.w	r1, [r4], #1
    11ce:	4790      	blx	r2
    11d0:	3001      	adds	r0, #1
    11d2:	d011      	beq.n	11f8 <mbed::Stream::write(void const*, unsigned int)+0x64>
    11d4:	42a6      	cmp	r6, r4
    11d6:	d012      	beq.n	11fe <mbed::Stream::write(void const*, unsigned int)+0x6a>
    11d8:	6828      	ldr	r0, [r5, #0]
    11da:	f814 1b01 	ldrb.w	r1, [r4], #1
    11de:	6a43      	ldr	r3, [r0, #36]	; 0x24
    11e0:	4628      	mov	r0, r5
    11e2:	4798      	blx	r3
    11e4:	3001      	adds	r0, #1
    11e6:	4628      	mov	r0, r5
    11e8:	d006      	beq.n	11f8 <mbed::Stream::write(void const*, unsigned int)+0x64>
    11ea:	682a      	ldr	r2, [r5, #0]
    11ec:	f814 1b01 	ldrb.w	r1, [r4], #1
    11f0:	6a53      	ldr	r3, [r2, #36]	; 0x24
    11f2:	4798      	blx	r3
    11f4:	3001      	adds	r0, #1
    11f6:	d1ed      	bne.n	11d4 <mbed::Stream::write(void const*, unsigned int)+0x40>
    11f8:	1be0      	subs	r0, r4, r7
    11fa:	e8bd 81f0 	ldmia.w	sp!, {r4, r5, r6, r7, r8, pc}
    11fe:	1bf0      	subs	r0, r6, r7
    1200:	e8bd 81f0 	ldmia.w	sp!, {r4, r5, r6, r7, r8, pc}
    1204:	2000      	movs	r0, #0
    1206:	e8bd 81f0 	ldmia.w	sp!, {r4, r5, r6, r7, r8, pc}
    120a:	bf00      	nop

0000120c <mbed::Stream::read(void*, unsigned int)>:
    120c:	e92d 41f0 	stmdb	sp!, {r4, r5, r6, r7, r8, lr}
    1210:	188e      	adds	r6, r1, r2
    1212:	42b1      	cmp	r1, r6
    1214:	460f      	mov	r7, r1
    1216:	4605      	mov	r5, r0
    1218:	d031      	beq.n	127e <mbed::Stream::read(void*, unsigned int)+0x72>
    121a:	6803      	ldr	r3, [r0, #0]
    121c:	1b8a      	subs	r2, r1, r6
    121e:	43d1      	mvns	r1, r2
    1220:	6a9c      	ldr	r4, [r3, #40]	; 0x28
    1222:	f001 0801 	and.w	r8, r1, #1
    1226:	47a0      	blx	r4
    1228:	1c43      	adds	r3, r0, #1
    122a:	463c      	mov	r4, r7
    122c:	d024      	beq.n	1278 <mbed::Stream::read(void*, unsigned int)+0x6c>
    122e:	463c      	mov	r4, r7
    1230:	f804 0b01 	strb.w	r0, [r4], #1
    1234:	42a6      	cmp	r6, r4
    1236:	d01c      	beq.n	1272 <mbed::Stream::read(void*, unsigned int)+0x66>
    1238:	f1b8 0f00 	cmp.w	r8, #0
    123c:	d006      	beq.n	124c <mbed::Stream::read(void*, unsigned int)+0x40>
    123e:	682b      	ldr	r3, [r5, #0]
    1240:	4628      	mov	r0, r5
    1242:	6a9a      	ldr	r2, [r3, #40]	; 0x28
    1244:	4790      	blx	r2
    1246:	1c43      	adds	r3, r0, #1
    1248:	d10f      	bne.n	126a <mbed::Stream::read(void*, unsigned int)+0x5e>
    124a:	e015      	b.n	1278 <mbed::Stream::read(void*, unsigned int)+0x6c>
    124c:	6829      	ldr	r1, [r5, #0]
    124e:	4628      	mov	r0, r5
    1250:	6a8b      	ldr	r3, [r1, #40]	; 0x28
    1252:	4798      	blx	r3
    1254:	4602      	mov	r2, r0
    1256:	1c51      	adds	r1, r2, #1
    1258:	4628      	mov	r0, r5
    125a:	d00d      	beq.n	1278 <mbed::Stream::read(void*, unsigned int)+0x6c>
    125c:	f804 2b01 	strb.w	r2, [r4], #1
    1260:	6829      	ldr	r1, [r5, #0]
    1262:	6a8b      	ldr	r3, [r1, #40]	; 0x28
    1264:	4798      	blx	r3
    1266:	1c42      	adds	r2, r0, #1
    1268:	d006      	beq.n	1278 <mbed::Stream::read(void*, unsigned int)+0x6c>
    126a:	f804 0b01 	strb.w	r0, [r4], #1
    126e:	42a6      	cmp	r6, r4
    1270:	d1ec      	bne.n	124c <mbed::Stream::read(void*, unsigned int)+0x40>
    1272:	1bf0      	subs	r0, r6, r7
    1274:	e8bd 81f0 	ldmia.w	sp!, {r4, r5, r6, r7, r8, pc}
    1278:	1be0      	subs	r0, r4, r7
    127a:	e8bd 81f0 	ldmia.w	sp!, {r4, r5, r6, r7, r8, pc}
    127e:	2000      	movs	r0, #0
    1280:	e8bd 81f0 	ldmia.w	sp!, {r4, r5, r6, r7, r8, pc}

00001284 <mbed::Stream::lseek(long, int)>:
    1284:	2000      	movs	r0, #0
    1286:	4770      	bx	lr

00001288 <mbed::Stream::isatty()>:
    1288:	2000      	movs	r0, #0
    128a:	4770      	bx	lr

0000128c <mbed::Stream::fsync()>:
    128c:	2000      	movs	r0, #0
    128e:	4770      	bx	lr

00001290 <mbed::Stream::flen()>:
    1290:	2000      	movs	r0, #0
    1292:	4770      	bx	lr

00001294 <mbed::Stream::~Stream()>:
    1294:	f248 2380 	movw	r3, #33408	; 0x8280
    1298:	f2c0 0300 	movt	r3, #0
    129c:	f103 0208 	add.w	r2, r3, #8
    12a0:	333c      	adds	r3, #60	; 0x3c
    12a2:	b510      	push	{r4, lr}
    12a4:	4604      	mov	r4, r0
    12a6:	e880 000c 	stmia.w	r0, {r2, r3}
    12aa:	6940      	ldr	r0, [r0, #20]
    12ac:	f000 fdfa 	bl	1ea4 <fclose>
    12b0:	4620      	mov	r0, r4
    12b2:	f000 f9cf 	bl	1654 <mbed::FileLike::~FileLike()>
    12b6:	4620      	mov	r0, r4
    12b8:	bd10      	pop	{r4, pc}
    12ba:	bf00      	nop

000012bc <non-virtual thunk to mbed::Stream::~Stream()>:
    12bc:	f1a0 0004 	sub.w	r0, r0, #4
    12c0:	f7ff bfe8 	b.w	1294 <mbed::Stream::~Stream()>

000012c4 <mbed::Stream::~Stream()>:
    12c4:	b510      	push	{r4, lr}
    12c6:	4604      	mov	r4, r0
    12c8:	f7ff ffe4 	bl	1294 <mbed::Stream::~Stream()>
    12cc:	4620      	mov	r0, r4
    12ce:	f000 fa0e 	bl	16ee <operator delete(void*)>
    12d2:	4620      	mov	r0, r4
    12d4:	bd10      	pop	{r4, pc}
    12d6:	bf00      	nop

000012d8 <non-virtual thunk to mbed::Stream::~Stream()>:
    12d8:	f1a0 0004 	sub.w	r0, r0, #4
    12dc:	f7ff bff2 	b.w	12c4 <mbed::Stream::~Stream()>

000012e0 <mbed::Stream::Stream(char const*)>:
    12e0:	b510      	push	{r4, lr}
    12e2:	b084      	sub	sp, #16
    12e4:	4604      	mov	r4, r0
    12e6:	f000 f9db 	bl	16a0 <mbed::FileLike::FileLike(char const*)>
    12ea:	f248 2380 	movw	r3, #33408	; 0x8280
    12ee:	f2c0 0300 	movt	r3, #0
    12f2:	f103 0008 	add.w	r0, r3, #8
    12f6:	f248 0140 	movw	r1, #32832	; 0x8040
    12fa:	333c      	adds	r3, #60	; 0x3c
    12fc:	e884 0009 	stmia.w	r4, {r0, r3}
    1300:	4622      	mov	r2, r4
    1302:	f2c0 0100 	movt	r1, #0
    1306:	a801      	add	r0, sp, #4
    1308:	f002 fbee 	bl	3ae8 <siprintf>
    130c:	f248 21d4 	movw	r1, #33492	; 0x82d4
    1310:	f2c0 0100 	movt	r1, #0
    1314:	a801      	add	r0, sp, #4
    1316:	f000 ff6b 	bl	21f0 <fopen>
    131a:	2100      	movs	r1, #0
    131c:	6160      	str	r0, [r4, #20]
    131e:	f002 fae7 	bl	38f0 <setbuf>
    1322:	4620      	mov	r0, r4
    1324:	b004      	add	sp, #16
    1326:	bd10      	pop	{r4, pc}

00001328 <us_ticker_init>:
    1328:	4a17      	ldr	r2, [pc, #92]	; (1388 <us_ticker_init+0x60>)
    132a:	b538      	push	{r3, r4, r5, lr}
    132c:	6813      	ldr	r3, [r2, #0]
    132e:	bb4b      	cbnz	r3, 1384 <us_ticker_init+0x5c>
    1330:	f44f 4140 	mov.w	r1, #49152	; 0xc000
    1334:	f2c4 010f 	movt	r1, #16399	; 0x400f
    1338:	f8d1 00c4 	ldr.w	r0, [r1, #196]	; 0xc4
    133c:	2501      	movs	r5, #1
    133e:	f44f 4480 	mov.w	r4, #16384	; 0x4000
    1342:	6015      	str	r5, [r2, #0]
    1344:	f2c4 0409 	movt	r4, #16393	; 0x4009
    1348:	f440 0000 	orr.w	r0, r0, #8388608	; 0x800000
    134c:	4a0f      	ldr	r2, [pc, #60]	; (138c <us_ticker_init+0x64>)
    134e:	f8c1 00c4 	str.w	r0, [r1, #196]	; 0xc4
    1352:	6723      	str	r3, [r4, #112]	; 0x70
    1354:	6811      	ldr	r1, [r2, #0]
    1356:	f64d 6383 	movw	r3, #56963	; 0xde83
    135a:	0888      	lsrs	r0, r1, #2
    135c:	f2c4 331b 	movt	r3, #17179	; 0x431b
    1360:	fba3 1200 	umull	r1, r2, r3, r0
    1364:	0c91      	lsrs	r1, r2, #18
    1366:	1e4b      	subs	r3, r1, #1
    1368:	2002      	movs	r0, #2
    136a:	6060      	str	r0, [r4, #4]
    136c:	4908      	ldr	r1, [pc, #32]	; (1390 <us_ticker_init+0x68>)
    136e:	60e3      	str	r3, [r4, #12]
    1370:	2004      	movs	r0, #4
    1372:	6065      	str	r5, [r4, #4]
    1374:	f7fe ffe0 	bl	338 <NVIC_SetVector>
    1378:	f44f 4161 	mov.w	r1, #57600	; 0xe100
    137c:	f2ce 0100 	movt	r1, #57344	; 0xe000
    1380:	2210      	movs	r2, #16
    1382:	600a      	str	r2, [r1, #0]
    1384:	bd38      	pop	{r3, r4, r5, pc}
    1386:	bf00      	nop
    1388:	1000048c 	.word	0x1000048c
    138c:	100000d0 	.word	0x100000d0
    1390:	0000146d 	.word	0x0000146d

00001394 <us_ticker_read>:
    1394:	b508      	push	{r3, lr}
    1396:	4b05      	ldr	r3, [pc, #20]	; (13ac <us_ticker_read+0x18>)
    1398:	6818      	ldr	r0, [r3, #0]
    139a:	b908      	cbnz	r0, 13a0 <us_ticker_read+0xc>
    139c:	f7ff ffc4 	bl	1328 <us_ticker_init>
    13a0:	f44f 4180 	mov.w	r1, #16384	; 0x4000
    13a4:	f2c4 0109 	movt	r1, #16393	; 0x4009
    13a8:	6888      	ldr	r0, [r1, #8]
    13aa:	bd08      	pop	{r3, pc}
    13ac:	1000048c 	.word	0x1000048c

000013b0 <us_ticker_set_interrupt>:
    13b0:	f44f 4380 	mov.w	r3, #16384	; 0x4000
    13b4:	f2c4 0309 	movt	r3, #16393	; 0x4009
    13b8:	6198      	str	r0, [r3, #24]
    13ba:	695a      	ldr	r2, [r3, #20]
    13bc:	f042 0001 	orr.w	r0, r2, #1
    13c0:	6158      	str	r0, [r3, #20]
    13c2:	4770      	bx	lr

000013c4 <us_ticker_disable_interrupt>:
    13c4:	f44f 4380 	mov.w	r3, #16384	; 0x4000
    13c8:	f2c4 0309 	movt	r3, #16393	; 0x4009
    13cc:	695a      	ldr	r2, [r3, #20]
    13ce:	f022 0001 	bic.w	r0, r2, #1
    13d2:	6158      	str	r0, [r3, #20]
    13d4:	4770      	bx	lr
    13d6:	bf00      	nop

000013d8 <us_ticker_clear_interrupt>:
    13d8:	f44f 4380 	mov.w	r3, #16384	; 0x4000
    13dc:	f2c4 0309 	movt	r3, #16393	; 0x4009
    13e0:	2201      	movs	r2, #1
    13e2:	601a      	str	r2, [r3, #0]
    13e4:	4770      	bx	lr
    13e6:	bf00      	nop

000013e8 <mbed_die>:
    13e8:	b500      	push	{lr}
    13ea:	f24c 0132 	movw	r1, #49202	; 0xc032
    13ee:	b099      	sub	sp, #100	; 0x64
    13f0:	4668      	mov	r0, sp
    13f2:	f2c2 0109 	movt	r1, #8201	; 0x2009
    13f6:	2201      	movs	r2, #1
    13f8:	f7ff fa42 	bl	880 <gpio_init>
    13fc:	f24c 0134 	movw	r1, #49204	; 0xc034
    1400:	a806      	add	r0, sp, #24
    1402:	f2c2 0109 	movt	r1, #8201	; 0x2009
    1406:	2201      	movs	r2, #1
    1408:	f7ff fa3a 	bl	880 <gpio_init>
    140c:	f24c 0135 	movw	r1, #49205	; 0xc035
    1410:	a80c      	add	r0, sp, #48	; 0x30
    1412:	f2c2 0109 	movt	r1, #8201	; 0x2009
    1416:	2201      	movs	r2, #1
    1418:	f7ff fa32 	bl	880 <gpio_init>
    141c:	f24c 0137 	movw	r1, #49207	; 0xc037
    1420:	a812      	add	r0, sp, #72	; 0x48
    1422:	f2c2 0109 	movt	r1, #8201	; 0x2009
    1426:	2201      	movs	r2, #1
    1428:	f7ff fa2a 	bl	880 <gpio_init>
    142c:	9a01      	ldr	r2, [sp, #4]
    142e:	9b03      	ldr	r3, [sp, #12]
    1430:	990a      	ldr	r1, [sp, #40]	; 0x28
    1432:	601a      	str	r2, [r3, #0]
    1434:	9807      	ldr	r0, [sp, #28]
    1436:	9b10      	ldr	r3, [sp, #64]	; 0x40
    1438:	6008      	str	r0, [r1, #0]
    143a:	9a0d      	ldr	r2, [sp, #52]	; 0x34
    143c:	2096      	movs	r0, #150	; 0x96
    143e:	601a      	str	r2, [r3, #0]
    1440:	9913      	ldr	r1, [sp, #76]	; 0x4c
    1442:	9a15      	ldr	r2, [sp, #84]	; 0x54
    1444:	6011      	str	r1, [r2, #0]
    1446:	f7ff fdf7 	bl	1038 <wait_ms>
    144a:	9801      	ldr	r0, [sp, #4]
    144c:	9b04      	ldr	r3, [sp, #16]
    144e:	9a09      	ldr	r2, [sp, #36]	; 0x24
    1450:	6018      	str	r0, [r3, #0]
    1452:	9907      	ldr	r1, [sp, #28]
    1454:	9b0f      	ldr	r3, [sp, #60]	; 0x3c
    1456:	6011      	str	r1, [r2, #0]
    1458:	980d      	ldr	r0, [sp, #52]	; 0x34
    145a:	9a16      	ldr	r2, [sp, #88]	; 0x58
    145c:	6018      	str	r0, [r3, #0]
    145e:	9913      	ldr	r1, [sp, #76]	; 0x4c
    1460:	2096      	movs	r0, #150	; 0x96
    1462:	6011      	str	r1, [r2, #0]
    1464:	f7ff fde8 	bl	1038 <wait_ms>
    1468:	e7e0      	b.n	142c <mbed_die+0x44>
    146a:	bf00      	nop

0000146c <us_ticker_irq_handler>:
    146c:	b570      	push	{r4, r5, r6, lr}
    146e:	f7ff ffb3 	bl	13d8 <us_ticker_clear_interrupt>
    1472:	4c0e      	ldr	r4, [pc, #56]	; (14ac <us_ticker_irq_handler+0x40>)
    1474:	4e0e      	ldr	r6, [pc, #56]	; (14b0 <us_ticker_irq_handler+0x44>)
    1476:	6820      	ldr	r0, [r4, #0]
    1478:	b170      	cbz	r0, 1498 <us_ticker_irq_handler+0x2c>
    147a:	6805      	ldr	r5, [r0, #0]
    147c:	f7ff ff8a 	bl	1394 <us_ticker_read>
    1480:	1a28      	subs	r0, r5, r0
    1482:	2800      	cmp	r0, #0
    1484:	dc0c      	bgt.n	14a0 <us_ticker_irq_handler+0x34>
    1486:	6821      	ldr	r1, [r4, #0]
    1488:	6832      	ldr	r2, [r6, #0]
    148a:	6888      	ldr	r0, [r1, #8]
    148c:	6020      	str	r0, [r4, #0]
    148e:	2a00      	cmp	r2, #0
    1490:	d0f2      	beq.n	1478 <us_ticker_irq_handler+0xc>
    1492:	6848      	ldr	r0, [r1, #4]
    1494:	4790      	blx	r2
    1496:	e7ee      	b.n	1476 <us_ticker_irq_handler+0xa>
    1498:	e8bd 4070 	ldmia.w	sp!, {r4, r5, r6, lr}
    149c:	f7ff bf92 	b.w	13c4 <us_ticker_disable_interrupt>
    14a0:	6823      	ldr	r3, [r4, #0]
    14a2:	6818      	ldr	r0, [r3, #0]
    14a4:	e8bd 4070 	ldmia.w	sp!, {r4, r5, r6, lr}
    14a8:	f7ff bf82 	b.w	13b0 <us_ticker_set_interrupt>
    14ac:	10000490 	.word	0x10000490
    14b0:	10000494 	.word	0x10000494

000014b4 <mbed::CallChain::CallChain(int)>:
    14b4:	b5f8      	push	{r3, r4, r5, r6, r7, lr}
    14b6:	4b12      	ldr	r3, [pc, #72]	; (1500 <mbed::CallChain::CallChain(int)+0x4c>)
    14b8:	4607      	mov	r7, r0
    14ba:	2500      	movs	r5, #0
    14bc:	460e      	mov	r6, r1
    14be:	6003      	str	r3, [r0, #0]
    14c0:	60c5      	str	r5, [r0, #12]
    14c2:	60b9      	str	r1, [r7, #8]
    14c4:	0088      	lsls	r0, r1, #2
    14c6:	f000 fbe7 	bl	1c98 <operator new[](unsigned int)>
    14ca:	b1b6      	cbz	r6, 14fa <mbed::CallChain::CallChain(int)+0x46>
    14cc:	2401      	movs	r4, #1
    14ce:	1e72      	subs	r2, r6, #1
    14d0:	4601      	mov	r1, r0
    14d2:	42b4      	cmp	r4, r6
    14d4:	f841 5b04 	str.w	r5, [r1], #4
    14d8:	ea02 0204 	and.w	r2, r2, r4
    14dc:	d00d      	beq.n	14fa <mbed::CallChain::CallChain(int)+0x46>
    14de:	b122      	cbz	r2, 14ea <mbed::CallChain::CallChain(int)+0x36>
    14e0:	2402      	movs	r4, #2
    14e2:	42b4      	cmp	r4, r6
    14e4:	f841 5b04 	str.w	r5, [r1], #4
    14e8:	d007      	beq.n	14fa <mbed::CallChain::CallChain(int)+0x46>
    14ea:	460b      	mov	r3, r1
    14ec:	f843 5b04 	str.w	r5, [r3], #4
    14f0:	3402      	adds	r4, #2
    14f2:	604d      	str	r5, [r1, #4]
    14f4:	1d19      	adds	r1, r3, #4
    14f6:	42b4      	cmp	r4, r6
    14f8:	d1f7      	bne.n	14ea <mbed::CallChain::CallChain(int)+0x36>
    14fa:	6078      	str	r0, [r7, #4]
    14fc:	4638      	mov	r0, r7
    14fe:	bdf8      	pop	{r3, r4, r5, r6, r7, pc}
    1500:	000082f0 	.word	0x000082f0

00001504 <mbed::CallChain::clear()>:
    1504:	b570      	push	{r4, r5, r6, lr}
    1506:	4605      	mov	r5, r0
    1508:	b672      	cpsid	i
    150a:	68c3      	ldr	r3, [r0, #12]
    150c:	2b00      	cmp	r3, #0
    150e:	dd0d      	ble.n	152c <mbed::CallChain::clear()+0x28>
    1510:	2400      	movs	r4, #0
    1512:	4626      	mov	r6, r4
    1514:	6868      	ldr	r0, [r5, #4]
    1516:	f850 0024 	ldr.w	r0, [r0, r4, lsl #2]
    151a:	f000 f8e8 	bl	16ee <operator delete(void*)>
    151e:	686a      	ldr	r2, [r5, #4]
    1520:	68e9      	ldr	r1, [r5, #12]
    1522:	f842 6024 	str.w	r6, [r2, r4, lsl #2]
    1526:	3401      	adds	r4, #1
    1528:	42a1      	cmp	r1, r4
    152a:	dcf3      	bgt.n	1514 <mbed::CallChain::clear()+0x10>
    152c:	2300      	movs	r3, #0
    152e:	60eb      	str	r3, [r5, #12]
    1530:	b662      	cpsie	i
    1532:	bd70      	pop	{r4, r5, r6, pc}

00001534 <mbed::CallChain::~CallChain()>:
    1534:	4b05      	ldr	r3, [pc, #20]	; (154c <mbed::CallChain::~CallChain()+0x18>)
    1536:	b510      	push	{r4, lr}
    1538:	4604      	mov	r4, r0
    153a:	6003      	str	r3, [r0, #0]
    153c:	f7ff ffe2 	bl	1504 <mbed::CallChain::clear()>
    1540:	6860      	ldr	r0, [r4, #4]
    1542:	f000 f8d4 	bl	16ee <operator delete(void*)>
    1546:	4620      	mov	r0, r4
    1548:	bd10      	pop	{r4, pc}
    154a:	bf00      	nop
    154c:	000082f0 	.word	0x000082f0

00001550 <mbed::CallChain::~CallChain()>:
    1550:	b510      	push	{r4, lr}
    1552:	4604      	mov	r4, r0
    1554:	f7ff ffee 	bl	1534 <mbed::CallChain::~CallChain()>
    1558:	4620      	mov	r0, r4
    155a:	f000 f8c8 	bl	16ee <operator delete(void*)>
    155e:	4620      	mov	r0, r4
    1560:	bd10      	pop	{r4, pc}
    1562:	bf00      	nop

00001564 <mbed::CallChain::call()>:
    1564:	b538      	push	{r3, r4, r5, lr}
    1566:	68c3      	ldr	r3, [r0, #12]
    1568:	4605      	mov	r5, r0
    156a:	2b00      	cmp	r3, #0
    156c:	dd09      	ble.n	1582 <mbed::CallChain::call()+0x1e>
    156e:	2400      	movs	r4, #0
    1570:	6868      	ldr	r0, [r5, #4]
    1572:	f850 0024 	ldr.w	r0, [r0, r4, lsl #2]
    1576:	f000 f8a9 	bl	16cc <mbed::FunctionPointer::call()>
    157a:	68e9      	ldr	r1, [r5, #12]
    157c:	3401      	adds	r4, #1
    157e:	42a1      	cmp	r1, r4
    1580:	dcf6      	bgt.n	1570 <mbed::CallChain::call()+0xc>
    1582:	bd38      	pop	{r3, r4, r5, pc}

00001584 <mbed::FileBase::~FileBase()>:
    1584:	4a09      	ldr	r2, [pc, #36]	; (15ac <mbed::FileBase::~FileBase()+0x28>)
    1586:	6883      	ldr	r3, [r0, #8]
    1588:	6002      	str	r2, [r0, #0]
    158a:	b153      	cbz	r3, 15a2 <mbed::FileBase::~FileBase()+0x1e>
    158c:	4908      	ldr	r1, [pc, #32]	; (15b0 <mbed::FileBase::~FileBase()+0x2c>)
    158e:	680a      	ldr	r2, [r1, #0]
    1590:	4282      	cmp	r2, r0
    1592:	d101      	bne.n	1598 <mbed::FileBase::~FileBase()+0x14>
    1594:	e006      	b.n	15a4 <mbed::FileBase::~FileBase()+0x20>
    1596:	461a      	mov	r2, r3
    1598:	6853      	ldr	r3, [r2, #4]
    159a:	4298      	cmp	r0, r3
    159c:	d1fb      	bne.n	1596 <mbed::FileBase::~FileBase()+0x12>
    159e:	6841      	ldr	r1, [r0, #4]
    15a0:	6051      	str	r1, [r2, #4]
    15a2:	4770      	bx	lr
    15a4:	6843      	ldr	r3, [r0, #4]
    15a6:	600b      	str	r3, [r1, #0]
    15a8:	4770      	bx	lr
    15aa:	bf00      	nop
    15ac:	00008330 	.word	0x00008330
    15b0:	10000498 	.word	0x10000498

000015b4 <mbed::FileBase::~FileBase()>:
    15b4:	4a0c      	ldr	r2, [pc, #48]	; (15e8 <mbed::FileBase::~FileBase()+0x34>)
    15b6:	6883      	ldr	r3, [r0, #8]
    15b8:	b510      	push	{r4, lr}
    15ba:	4604      	mov	r4, r0
    15bc:	6002      	str	r2, [r0, #0]
    15be:	b153      	cbz	r3, 15d6 <mbed::FileBase::~FileBase()+0x22>
    15c0:	480a      	ldr	r0, [pc, #40]	; (15ec <mbed::FileBase::~FileBase()+0x38>)
    15c2:	6802      	ldr	r2, [r0, #0]
    15c4:	4294      	cmp	r4, r2
    15c6:	d101      	bne.n	15cc <mbed::FileBase::~FileBase()+0x18>
    15c8:	e00a      	b.n	15e0 <mbed::FileBase::~FileBase()+0x2c>
    15ca:	460a      	mov	r2, r1
    15cc:	6851      	ldr	r1, [r2, #4]
    15ce:	428c      	cmp	r4, r1
    15d0:	d1fb      	bne.n	15ca <mbed::FileBase::~FileBase()+0x16>
    15d2:	6863      	ldr	r3, [r4, #4]
    15d4:	6053      	str	r3, [r2, #4]
    15d6:	4620      	mov	r0, r4
    15d8:	f000 f889 	bl	16ee <operator delete(void*)>
    15dc:	4620      	mov	r0, r4
    15de:	bd10      	pop	{r4, pc}
    15e0:	6861      	ldr	r1, [r4, #4]
    15e2:	6001      	str	r1, [r0, #0]
    15e4:	e7f7      	b.n	15d6 <mbed::FileBase::~FileBase()+0x22>
    15e6:	bf00      	nop
    15e8:	00008330 	.word	0x00008330
    15ec:	10000498 	.word	0x10000498

000015f0 <mbed::FileBase::FileBase(char const*, mbed::PathType)>:
    15f0:	4b05      	ldr	r3, [pc, #20]	; (1608 <mbed::FileBase::FileBase(char const*, mbed::PathType)+0x18>)
    15f2:	6081      	str	r1, [r0, #8]
    15f4:	6003      	str	r3, [r0, #0]
    15f6:	7302      	strb	r2, [r0, #12]
    15f8:	b121      	cbz	r1, 1604 <mbed::FileBase::FileBase(char const*, mbed::PathType)+0x14>
    15fa:	4904      	ldr	r1, [pc, #16]	; (160c <mbed::FileBase::FileBase(char const*, mbed::PathType)+0x1c>)
    15fc:	680a      	ldr	r2, [r1, #0]
    15fe:	6008      	str	r0, [r1, #0]
    1600:	6042      	str	r2, [r0, #4]
    1602:	4770      	bx	lr
    1604:	6041      	str	r1, [r0, #4]
    1606:	4770      	bx	lr
    1608:	00008330 	.word	0x00008330
    160c:	10000498 	.word	0x10000498

00001610 <mbed::FileBase::lookup(char const*, unsigned int)>:
    1610:	4b0e      	ldr	r3, [pc, #56]	; (164c <mbed::FileBase::lookup(char const*, unsigned int)+0x3c>)
    1612:	b570      	push	{r4, r5, r6, lr}
    1614:	681c      	ldr	r4, [r3, #0]
    1616:	4606      	mov	r6, r0
    1618:	460d      	mov	r5, r1
    161a:	b914      	cbnz	r4, 1622 <mbed::FileBase::lookup(char const*, unsigned int)+0x12>
    161c:	e012      	b.n	1644 <mbed::FileBase::lookup(char const*, unsigned int)+0x34>
    161e:	6864      	ldr	r4, [r4, #4]
    1620:	b184      	cbz	r4, 1644 <mbed::FileBase::lookup(char const*, unsigned int)+0x34>
    1622:	68a3      	ldr	r3, [r4, #8]
    1624:	4631      	mov	r1, r6
    1626:	462a      	mov	r2, r5
    1628:	4618      	mov	r0, r3
    162a:	2b00      	cmp	r3, #0
    162c:	d0f7      	beq.n	161e <mbed::FileBase::lookup(char const*, unsigned int)+0xe>
    162e:	f002 fb00 	bl	3c32 <strncmp>
    1632:	2800      	cmp	r0, #0
    1634:	d1f3      	bne.n	161e <mbed::FileBase::lookup(char const*, unsigned int)+0xe>
    1636:	68a0      	ldr	r0, [r4, #8]
    1638:	f002 faf3 	bl	3c22 <strlen>
    163c:	42a8      	cmp	r0, r5
    163e:	d1ee      	bne.n	161e <mbed::FileBase::lookup(char const*, unsigned int)+0xe>
    1640:	4620      	mov	r0, r4
    1642:	bd70      	pop	{r4, r5, r6, pc}
    1644:	2400      	movs	r4, #0
    1646:	4620      	mov	r0, r4
    1648:	bd70      	pop	{r4, r5, r6, pc}
    164a:	bf00      	nop
    164c:	10000498 	.word	0x10000498

00001650 <mbed::FileBase::getPathType()>:
    1650:	7b00      	ldrb	r0, [r0, #12]
    1652:	4770      	bx	lr

00001654 <mbed::FileLike::~FileLike()>:
    1654:	f248 3378 	movw	r3, #33656	; 0x8378
    1658:	f2c0 0300 	movt	r3, #0
    165c:	b510      	push	{r4, lr}
    165e:	f103 0234 	add.w	r2, r3, #52	; 0x34
    1662:	4604      	mov	r4, r0
    1664:	3308      	adds	r3, #8
    1666:	f840 2f04 	str.w	r2, [r0, #4]!
    166a:	6023      	str	r3, [r4, #0]
    166c:	f7ff ff8a 	bl	1584 <mbed::FileBase::~FileBase()>
    1670:	4620      	mov	r0, r4
    1672:	f7fe ff53 	bl	51c <mbed::FileHandle::~FileHandle()>
    1676:	4620      	mov	r0, r4
    1678:	bd10      	pop	{r4, pc}
    167a:	bf00      	nop

0000167c <non-virtual thunk to mbed::FileLike::~FileLike()>:
    167c:	f1a0 0004 	sub.w	r0, r0, #4
    1680:	f7ff bfe8 	b.w	1654 <mbed::FileLike::~FileLike()>

00001684 <mbed::FileLike::~FileLike()>:
    1684:	b510      	push	{r4, lr}
    1686:	4604      	mov	r4, r0
    1688:	f7ff ffe4 	bl	1654 <mbed::FileLike::~FileLike()>
    168c:	4620      	mov	r0, r4
    168e:	f000 f82e 	bl	16ee <operator delete(void*)>
    1692:	4620      	mov	r0, r4
    1694:	bd10      	pop	{r4, pc}
    1696:	bf00      	nop

00001698 <non-virtual thunk to mbed::FileLike::~FileLike()>:
    1698:	f1a0 0004 	sub.w	r0, r0, #4
    169c:	f7ff bff2 	b.w	1684 <mbed::FileLike::~FileLike()>

000016a0 <mbed::FileLike::FileLike(char const*)>:
    16a0:	4b09      	ldr	r3, [pc, #36]	; (16c8 <mbed::FileLike::FileLike(char const*)+0x28>)
    16a2:	b510      	push	{r4, lr}
    16a4:	2200      	movs	r2, #0
    16a6:	4604      	mov	r4, r0
    16a8:	f840 3b04 	str.w	r3, [r0], #4
    16ac:	f7ff ffa0 	bl	15f0 <mbed::FileBase::FileBase(char const*, mbed::PathType)>
    16b0:	f248 3378 	movw	r3, #33656	; 0x8378
    16b4:	f2c0 0300 	movt	r3, #0
    16b8:	f103 0208 	add.w	r2, r3, #8
    16bc:	3334      	adds	r3, #52	; 0x34
    16be:	e884 000c 	stmia.w	r4, {r2, r3}
    16c2:	4620      	mov	r0, r4
    16c4:	bd10      	pop	{r4, pc}
    16c6:	bf00      	nop
    16c8:	00008018 	.word	0x00008018

000016cc <mbed::FunctionPointer::call()>:
    16cc:	b508      	push	{r3, lr}
    16ce:	6803      	ldr	r3, [r0, #0]
    16d0:	4601      	mov	r1, r0
    16d2:	b10b      	cbz	r3, 16d8 <mbed::FunctionPointer::call()+0xc>
    16d4:	4798      	blx	r3
    16d6:	bd08      	pop	{r3, pc}
    16d8:	6840      	ldr	r0, [r0, #4]
    16da:	b110      	cbz	r0, 16e2 <mbed::FunctionPointer::call()+0x16>
    16dc:	698a      	ldr	r2, [r1, #24]
    16de:	3108      	adds	r1, #8
    16e0:	4790      	blx	r2
    16e2:	bd08      	pop	{r3, pc}

000016e4 <__aeabi_atexit>:
    16e4:	460b      	mov	r3, r1
    16e6:	4601      	mov	r1, r0
    16e8:	4618      	mov	r0, r3
    16ea:	f000 bb75 	b.w	1dd8 <__cxa_atexit>

000016ee <operator delete(void*)>:
    16ee:	f000 bed3 	b.w	2498 <free>
	...

000016f4 <__cxxabiv1::__si_class_type_info::~__si_class_type_info()>:
    16f4:	b510      	push	{r4, lr}
    16f6:	4604      	mov	r4, r0
    16f8:	4b02      	ldr	r3, [pc, #8]	; (1704 <__cxxabiv1::__si_class_type_info::~__si_class_type_info()+0x10>)
    16fa:	6003      	str	r3, [r0, #0]
    16fc:	f000 fb08 	bl	1d10 <__cxxabiv1::__class_type_info::~__class_type_info()>
    1700:	4620      	mov	r0, r4
    1702:	bd10      	pop	{r4, pc}
    1704:	000083c0 	.word	0x000083c0

00001708 <__cxxabiv1::__si_class_type_info::~__si_class_type_info()>:
    1708:	b510      	push	{r4, lr}
    170a:	4604      	mov	r4, r0
    170c:	f7ff fff2 	bl	16f4 <__cxxabiv1::__si_class_type_info::~__si_class_type_info()>
    1710:	4620      	mov	r0, r4
    1712:	f7ff ffec 	bl	16ee <operator delete(void*)>
    1716:	4620      	mov	r0, r4
    1718:	bd10      	pop	{r4, pc}

0000171a <__cxxabiv1::__si_class_type_info::__do_dyncast(int, __cxxabiv1::__class_type_info::__sub_kind, __cxxabiv1::__class_type_info const*, void const*, __cxxabiv1::__class_type_info const*, void const*, __cxxabiv1::__class_type_info::__dyncast_result&) const>:
    171a:	e92d 4ff1 	stmdb	sp!, {r0, r4, r5, r6, r7, r8, r9, r10, r11, lr}
    171e:	460e      	mov	r6, r1
    1720:	4619      	mov	r1, r3
    1722:	4683      	mov	r11, r0
    1724:	4617      	mov	r7, r2
    1726:	4699      	mov	r9, r3
    1728:	9c0a      	ldr	r4, [sp, #40]	; 0x28
    172a:	f8dd a02c 	ldr.w	r10, [sp, #44]	; 0x2c
    172e:	f8dd 8030 	ldr.w	r8, [sp, #48]	; 0x30
    1732:	9d0d      	ldr	r5, [sp, #52]	; 0x34
    1734:	f000 fab5 	bl	1ca2 <std::type_info::operator==(std::type_info const&) const>
    1738:	b178      	cbz	r0, 175a <__cxxabiv1::__si_class_type_info::__do_dyncast(int, __cxxabiv1::__class_type_info::__sub_kind, __cxxabiv1::__class_type_info const*, void const*, __cxxabiv1::__class_type_info const*, void const*, __cxxabiv1::__class_type_info::__dyncast_result&) const+0x40>
    173a:	2e00      	cmp	r6, #0
    173c:	602c      	str	r4, [r5, #0]
    173e:	712f      	strb	r7, [r5, #4]
    1740:	db06      	blt.n	1750 <__cxxabiv1::__si_class_type_info::__do_dyncast(int, __cxxabiv1::__class_type_info::__sub_kind, __cxxabiv1::__class_type_info const*, void const*, __cxxabiv1::__class_type_info const*, void const*, __cxxabiv1::__class_type_info::__dyncast_result&) const+0x36>
    1742:	4434      	add	r4, r6
    1744:	45a0      	cmp	r8, r4
    1746:	bf0c      	ite	eq
    1748:	2406      	moveq	r4, #6
    174a:	2401      	movne	r4, #1
    174c:	71ac      	strb	r4, [r5, #6]
    174e:	e01e      	b.n	178e <__cxxabiv1::__si_class_type_info::__do_dyncast(int, __cxxabiv1::__class_type_info::__sub_kind, __cxxabiv1::__class_type_info const*, void const*, __cxxabiv1::__class_type_info const*, void const*, __cxxabiv1::__class_type_info::__dyncast_result&) const+0x74>
    1750:	3602      	adds	r6, #2
    1752:	d11c      	bne.n	178e <__cxxabiv1::__si_class_type_info::__do_dyncast(int, __cxxabiv1::__class_type_info::__sub_kind, __cxxabiv1::__class_type_info const*, void const*, __cxxabiv1::__class_type_info const*, void const*, __cxxabiv1::__class_type_info::__dyncast_result&) const+0x74>
    1754:	2301      	movs	r3, #1
    1756:	71ab      	strb	r3, [r5, #6]
    1758:	e019      	b.n	178e <__cxxabiv1::__si_class_type_info::__do_dyncast(int, __cxxabiv1::__class_type_info::__sub_kind, __cxxabiv1::__class_type_info const*, void const*, __cxxabiv1::__class_type_info const*, void const*, __cxxabiv1::__class_type_info::__dyncast_result&) const+0x74>
    175a:	4544      	cmp	r4, r8
    175c:	d104      	bne.n	1768 <__cxxabiv1::__si_class_type_info::__do_dyncast(int, __cxxabiv1::__class_type_info::__sub_kind, __cxxabiv1::__class_type_info const*, void const*, __cxxabiv1::__class_type_info const*, void const*, __cxxabiv1::__class_type_info::__dyncast_result&) const+0x4e>
    175e:	4651      	mov	r1, r10
    1760:	4658      	mov	r0, r11
    1762:	f000 fa9e 	bl	1ca2 <std::type_info::operator==(std::type_info const&) const>
    1766:	b988      	cbnz	r0, 178c <__cxxabiv1::__si_class_type_info::__do_dyncast(int, __cxxabiv1::__class_type_info::__sub_kind, __cxxabiv1::__class_type_info const*, void const*, __cxxabiv1::__class_type_info const*, void const*, __cxxabiv1::__class_type_info::__dyncast_result&) const+0x72>
    1768:	f8db 0008 	ldr.w	r0, [r11, #8]
    176c:	463a      	mov	r2, r7
    176e:	6803      	ldr	r3, [r0, #0]
    1770:	950d      	str	r5, [sp, #52]	; 0x34
    1772:	f8cd 8030 	str.w	r8, [sp, #48]	; 0x30
    1776:	f8cd a02c 	str.w	r10, [sp, #44]	; 0x2c
    177a:	940a      	str	r4, [sp, #40]	; 0x28
    177c:	69dc      	ldr	r4, [r3, #28]
    177e:	4631      	mov	r1, r6
    1780:	464b      	mov	r3, r9
    1782:	46a4      	mov	r12, r4
    1784:	b001      	add	sp, #4
    1786:	e8bd 4ff0 	ldmia.w	sp!, {r4, r5, r6, r7, r8, r9, r10, r11, lr}
    178a:	4760      	bx	r12
    178c:	716f      	strb	r7, [r5, #5]
    178e:	2000      	movs	r0, #0
    1790:	b001      	add	sp, #4
    1792:	e8bd 8ff0 	ldmia.w	sp!, {r4, r5, r6, r7, r8, r9, r10, r11, pc}

00001796 <__cxxabiv1::__si_class_type_info::__do_find_public_src(int, void const*, __cxxabiv1::__class_type_info const*, void const*) const>:
    1796:	e92d 41f0 	stmdb	sp!, {r4, r5, r6, r7, r8, lr}
    179a:	9e06      	ldr	r6, [sp, #24]
    179c:	4680      	mov	r8, r0
    179e:	4296      	cmp	r6, r2
    17a0:	460f      	mov	r7, r1
    17a2:	4614      	mov	r4, r2
    17a4:	461d      	mov	r5, r3
    17a6:	d103      	bne.n	17b0 <__cxxabiv1::__si_class_type_info::__do_find_public_src(int, void const*, __cxxabiv1::__class_type_info const*, void const*) const+0x1a>
    17a8:	4619      	mov	r1, r3
    17aa:	f000 fa7a 	bl	1ca2 <std::type_info::operator==(std::type_info const&) const>
    17ae:	b958      	cbnz	r0, 17c8 <__cxxabiv1::__si_class_type_info::__do_find_public_src(int, void const*, __cxxabiv1::__class_type_info const*, void const*) const+0x32>
    17b0:	f8d8 0008 	ldr.w	r0, [r8, #8]
    17b4:	4622      	mov	r2, r4
    17b6:	6803      	ldr	r3, [r0, #0]
    17b8:	9606      	str	r6, [sp, #24]
    17ba:	6a1e      	ldr	r6, [r3, #32]
    17bc:	4639      	mov	r1, r7
    17be:	462b      	mov	r3, r5
    17c0:	46b4      	mov	r12, r6
    17c2:	e8bd 41f0 	ldmia.w	sp!, {r4, r5, r6, r7, r8, lr}
    17c6:	4760      	bx	r12
    17c8:	2006      	movs	r0, #6
    17ca:	e8bd 81f0 	ldmia.w	sp!, {r4, r5, r6, r7, r8, pc}

000017ce <__cxxabiv1::__si_class_type_info::__do_upcast(__cxxabiv1::__class_type_info const*, void const*, __cxxabiv1::__class_type_info::__upcast_result&) const>:
    17ce:	e92d 41f0 	stmdb	sp!, {r4, r5, r6, r7, r8, lr}
    17d2:	4604      	mov	r4, r0
    17d4:	460d      	mov	r5, r1
    17d6:	4616      	mov	r6, r2
    17d8:	461f      	mov	r7, r3
    17da:	f000 faac 	bl	1d36 <__cxxabiv1::__class_type_info::__do_upcast(__cxxabiv1::__class_type_info const*, void const*, __cxxabiv1::__class_type_info::__upcast_result&) const>
    17de:	b948      	cbnz	r0, 17f4 <__cxxabiv1::__si_class_type_info::__do_upcast(__cxxabiv1::__class_type_info const*, void const*, __cxxabiv1::__class_type_info::__upcast_result&) const+0x26>
    17e0:	68a0      	ldr	r0, [r4, #8]
    17e2:	4632      	mov	r2, r6
    17e4:	6803      	ldr	r3, [r0, #0]
    17e6:	4629      	mov	r1, r5
    17e8:	699c      	ldr	r4, [r3, #24]
    17ea:	463b      	mov	r3, r7
    17ec:	46a4      	mov	r12, r4
    17ee:	e8bd 41f0 	ldmia.w	sp!, {r4, r5, r6, r7, r8, lr}
    17f2:	4760      	bx	r12
    17f4:	e8bd 81f0 	ldmia.w	sp!, {r4, r5, r6, r7, r8, pc}

000017f8 <__cxxabiv1::__vmi_class_type_info::~__vmi_class_type_info()>:
    17f8:	b510      	push	{r4, lr}
    17fa:	4604      	mov	r4, r0
    17fc:	4b02      	ldr	r3, [pc, #8]	; (1808 <__cxxabiv1::__vmi_class_type_info::~__vmi_class_type_info()+0x10>)
    17fe:	6003      	str	r3, [r0, #0]
    1800:	f000 fa86 	bl	1d10 <__cxxabiv1::__class_type_info::~__class_type_info()>
    1804:	4620      	mov	r0, r4
    1806:	bd10      	pop	{r4, pc}
    1808:	00008454 	.word	0x00008454

0000180c <__cxxabiv1::__vmi_class_type_info::~__vmi_class_type_info()>:
    180c:	b510      	push	{r4, lr}
    180e:	4604      	mov	r4, r0
    1810:	f7ff fff2 	bl	17f8 <__cxxabiv1::__vmi_class_type_info::~__vmi_class_type_info()>
    1814:	4620      	mov	r0, r4
    1816:	f7ff ff6a 	bl	16ee <operator delete(void*)>
    181a:	4620      	mov	r0, r4
    181c:	bd10      	pop	{r4, pc}

0000181e <__cxxabiv1::__vmi_class_type_info::__do_find_public_src(int, void const*, __cxxabiv1::__class_type_info const*, void const*) const>:
    181e:	e92d 4ff7 	stmdb	sp!, {r0, r1, r2, r4, r5, r6, r7, r8, r9, r10, r11, lr}
    1822:	f8dd 9030 	ldr.w	r9, [sp, #48]	; 0x30
    1826:	4604      	mov	r4, r0
    1828:	454a      	cmp	r2, r9
    182a:	460f      	mov	r7, r1
    182c:	4616      	mov	r6, r2
    182e:	4698      	mov	r8, r3
    1830:	d105      	bne.n	183e <__cxxabiv1::__vmi_class_type_info::__do_find_public_src(int, void const*, __cxxabiv1::__class_type_info const*, void const*) const+0x20>
    1832:	4619      	mov	r1, r3
    1834:	f000 fa35 	bl	1ca2 <std::type_info::operator==(std::type_info const&) const>
    1838:	b108      	cbz	r0, 183e <__cxxabiv1::__vmi_class_type_info::__do_find_public_src(int, void const*, __cxxabiv1::__class_type_info const*, void const*) const+0x20>
    183a:	2006      	movs	r0, #6
    183c:	e026      	b.n	188c <__cxxabiv1::__vmi_class_type_info::__do_find_public_src(int, void const*, __cxxabiv1::__class_type_info const*, void const*) const+0x6e>
    183e:	68e5      	ldr	r5, [r4, #12]
    1840:	eb04 04c5 	add.w	r4, r4, r5, lsl #3
    1844:	b30d      	cbz	r5, 188a <__cxxabiv1::__vmi_class_type_info::__do_find_public_src(int, void const*, __cxxabiv1::__class_type_info const*, void const*) const+0x6c>
    1846:	68e3      	ldr	r3, [r4, #12]
    1848:	079a      	lsls	r2, r3, #30
    184a:	d402      	bmi.n	1852 <__cxxabiv1::__vmi_class_type_info::__do_find_public_src(int, void const*, __cxxabiv1::__class_type_info const*, void const*) const+0x34>
    184c:	3d01      	subs	r5, #1
    184e:	3c08      	subs	r4, #8
    1850:	e7f8      	b.n	1844 <__cxxabiv1::__vmi_class_type_info::__do_find_public_src(int, void const*, __cxxabiv1::__class_type_info const*, void const*) const+0x26>
    1852:	f013 0a01 	ands.w	r10, r3, #1
    1856:	ea4f 2223 	mov.w	r2, r3, asr #8
    185a:	d003      	beq.n	1864 <__cxxabiv1::__vmi_class_type_info::__do_find_public_src(int, void const*, __cxxabiv1::__class_type_info const*, void const*) const+0x46>
    185c:	1cfb      	adds	r3, r7, #3
    185e:	d0f5      	beq.n	184c <__cxxabiv1::__vmi_class_type_info::__do_find_public_src(int, void const*, __cxxabiv1::__class_type_info const*, void const*) const+0x2e>
    1860:	6833      	ldr	r3, [r6, #0]
    1862:	589a      	ldr	r2, [r3, r2]
    1864:	68a0      	ldr	r0, [r4, #8]
    1866:	4432      	add	r2, r6
    1868:	6803      	ldr	r3, [r0, #0]
    186a:	f8cd 9000 	str.w	r9, [sp]
    186e:	f8d3 b020 	ldr.w	r11, [r3, #32]
    1872:	4639      	mov	r1, r7
    1874:	4643      	mov	r3, r8
    1876:	47d8      	blx	r11
    1878:	2803      	cmp	r0, #3
    187a:	d9e7      	bls.n	184c <__cxxabiv1::__vmi_class_type_info::__do_find_public_src(int, void const*, __cxxabiv1::__class_type_info const*, void const*) const+0x2e>
    187c:	f1ba 0f00 	cmp.w	r10, #0
    1880:	d004      	beq.n	188c <__cxxabiv1::__vmi_class_type_info::__do_find_public_src(int, void const*, __cxxabiv1::__class_type_info const*, void const*) const+0x6e>
    1882:	f040 0001 	orr.w	r0, r0, #1
    1886:	b2c0      	uxtb	r0, r0
    1888:	e000      	b.n	188c <__cxxabiv1::__vmi_class_type_info::__do_find_public_src(int, void const*, __cxxabiv1::__class_type_info const*, void const*) const+0x6e>
    188a:	2001      	movs	r0, #1
    188c:	b003      	add	sp, #12
    188e:	e8bd 8ff0 	ldmia.w	sp!, {r4, r5, r6, r7, r8, r9, r10, r11, pc}

00001892 <__cxxabiv1::__class_type_info::__find_public_src(int, void const*, __cxxabiv1::__class_type_info const*, void const*) const>:
    1892:	b4f0      	push	{r4, r5, r6, r7}
    1894:	1e0d      	subs	r5, r1, #0
    1896:	9c04      	ldr	r4, [sp, #16]
    1898:	db05      	blt.n	18a6 <__cxxabiv1::__class_type_info::__find_public_src(int, void const*, __cxxabiv1::__class_type_info const*, void const*) const+0x14>
    189a:	1950      	adds	r0, r2, r5
    189c:	4284      	cmp	r4, r0
    189e:	bf14      	ite	ne
    18a0:	2001      	movne	r0, #1
    18a2:	2006      	moveq	r0, #6
    18a4:	e008      	b.n	18b8 <__cxxabiv1::__class_type_info::__find_public_src(int, void const*, __cxxabiv1::__class_type_info const*, void const*) const+0x26>
    18a6:	3502      	adds	r5, #2
    18a8:	d005      	beq.n	18b6 <__cxxabiv1::__class_type_info::__find_public_src(int, void const*, __cxxabiv1::__class_type_info const*, void const*) const+0x24>
    18aa:	6805      	ldr	r5, [r0, #0]
    18ac:	9404      	str	r4, [sp, #16]
    18ae:	6a2c      	ldr	r4, [r5, #32]
    18b0:	46a4      	mov	r12, r4
    18b2:	bcf0      	pop	{r4, r5, r6, r7}
    18b4:	4760      	bx	r12
    18b6:	2001      	movs	r0, #1
    18b8:	bcf0      	pop	{r4, r5, r6, r7}
    18ba:	4770      	bx	lr

000018bc <__cxxabiv1::__vmi_class_type_info::__do_dyncast(int, __cxxabiv1::__class_type_info::__sub_kind, __cxxabiv1::__class_type_info const*, void const*, __cxxabiv1::__class_type_info const*, void const*, __cxxabiv1::__class_type_info::__dyncast_result&) const>:
    18bc:	e92d 4ff0 	stmdb	sp!, {r4, r5, r6, r7, r8, r9, r10, r11, lr}
    18c0:	b091      	sub	sp, #68	; 0x44
    18c2:	9c1d      	ldr	r4, [sp, #116]	; 0x74
    18c4:	9307      	str	r3, [sp, #28]
    18c6:	68a3      	ldr	r3, [r4, #8]
    18c8:	4688      	mov	r8, r1
    18ca:	06d9      	lsls	r1, r3, #27
    18cc:	bf48      	it	mi
    18ce:	6883      	ldrmi	r3, [r0, #8]
    18d0:	9206      	str	r2, [sp, #24]
    18d2:	bf48      	it	mi
    18d4:	60a3      	strmi	r3, [r4, #8]
    18d6:	9a1c      	ldr	r2, [sp, #112]	; 0x70
    18d8:	9b1a      	ldr	r3, [sp, #104]	; 0x68
    18da:	4682      	mov	r10, r0
    18dc:	4293      	cmp	r3, r2
    18de:	d108      	bne.n	18f2 <__cxxabiv1::__vmi_class_type_info::__do_dyncast(int, __cxxabiv1::__class_type_info::__sub_kind, __cxxabiv1::__class_type_info const*, void const*, __cxxabiv1::__class_type_info const*, void const*, __cxxabiv1::__class_type_info::__dyncast_result&) const+0x36>
    18e0:	991b      	ldr	r1, [sp, #108]	; 0x6c
    18e2:	f000 f9de 	bl	1ca2 <std::type_info::operator==(std::type_info const&) const>
    18e6:	b120      	cbz	r0, 18f2 <__cxxabiv1::__vmi_class_type_info::__do_dyncast(int, __cxxabiv1::__class_type_info::__sub_kind, __cxxabiv1::__class_type_info const*, void const*, __cxxabiv1::__class_type_info const*, void const*, __cxxabiv1::__class_type_info::__dyncast_result&) const+0x36>
    18e8:	f89d 3018 	ldrb.w	r3, [sp, #24]
    18ec:	7163      	strb	r3, [r4, #5]
    18ee:	2700      	movs	r7, #0
    18f0:	e127      	b.n	1b42 <__cxxabiv1::__vmi_class_type_info::__do_dyncast(int, __cxxabiv1::__class_type_info::__sub_kind, __cxxabiv1::__class_type_info const*, void const*, __cxxabiv1::__class_type_info const*, void const*, __cxxabiv1::__class_type_info::__dyncast_result&) const+0x286>
    18f2:	9907      	ldr	r1, [sp, #28]
    18f4:	4650      	mov	r0, r10
    18f6:	f000 f9d4 	bl	1ca2 <std::type_info::operator==(std::type_info const&) const>
    18fa:	4607      	mov	r7, r0
    18fc:	b1c8      	cbz	r0, 1932 <__cxxabiv1::__vmi_class_type_info::__do_dyncast(int, __cxxabiv1::__class_type_info::__sub_kind, __cxxabiv1::__class_type_info const*, void const*, __cxxabiv1::__class_type_info const*, void const*, __cxxabiv1::__class_type_info::__dyncast_result&) const+0x76>
    18fe:	9b1a      	ldr	r3, [sp, #104]	; 0x68
    1900:	f1b8 0f00 	cmp.w	r8, #0
    1904:	6023      	str	r3, [r4, #0]
    1906:	f89d 3018 	ldrb.w	r3, [sp, #24]
    190a:	7123      	strb	r3, [r4, #4]
    190c:	db0b      	blt.n	1926 <__cxxabiv1::__vmi_class_type_info::__do_dyncast(int, __cxxabiv1::__class_type_info::__sub_kind, __cxxabiv1::__class_type_info const*, void const*, __cxxabiv1::__class_type_info const*, void const*, __cxxabiv1::__class_type_info::__dyncast_result&) const+0x6a>
    190e:	9b1a      	ldr	r3, [sp, #104]	; 0x68
    1910:	4498      	add	r8, r3
    1912:	9b1c      	ldr	r3, [sp, #112]	; 0x70
    1914:	4543      	cmp	r3, r8
    1916:	bf0c      	ite	eq
    1918:	f04f 0806 	moveq.w	r8, #6
    191c:	f04f 0801 	movne.w	r8, #1
    1920:	f884 8006 	strb.w	r8, [r4, #6]
    1924:	e7e3      	b.n	18ee <__cxxabiv1::__vmi_class_type_info::__do_dyncast(int, __cxxabiv1::__class_type_info::__sub_kind, __cxxabiv1::__class_type_info const*, void const*, __cxxabiv1::__class_type_info const*, void const*, __cxxabiv1::__class_type_info::__dyncast_result&) const+0x32>
    1926:	f118 0f02 	cmn.w	r8, #2
    192a:	d1e0      	bne.n	18ee <__cxxabiv1::__vmi_class_type_info::__do_dyncast(int, __cxxabiv1::__class_type_info::__sub_kind, __cxxabiv1::__class_type_info const*, void const*, __cxxabiv1::__class_type_info const*, void const*, __cxxabiv1::__class_type_info::__dyncast_result&) const+0x32>
    192c:	2301      	movs	r3, #1
    192e:	71a3      	strb	r3, [r4, #6]
    1930:	e7dd      	b.n	18ee <__cxxabiv1::__vmi_class_type_info::__do_dyncast(int, __cxxabiv1::__class_type_info::__sub_kind, __cxxabiv1::__class_type_info const*, void const*, __cxxabiv1::__class_type_info const*, void const*, __cxxabiv1::__class_type_info::__dyncast_result&) const+0x32>
    1932:	f04f 0900 	mov.w	r9, #0
    1936:	46cb      	mov	r11, r9
    1938:	f1b8 0f00 	cmp.w	r8, #0
    193c:	bfa9      	itett	ge
    193e:	9b1c      	ldrge	r3, [sp, #112]	; 0x70
    1940:	9708      	strlt	r7, [sp, #32]
    1942:	ebc8 0303 	rsbge	r3, r8, r3
    1946:	9308      	strge	r3, [sp, #32]
    1948:	2301      	movs	r3, #1
    194a:	9309      	str	r3, [sp, #36]	; 0x24
    194c:	9b06      	ldr	r3, [sp, #24]
    194e:	f8cd 9028 	str.w	r9, [sp, #40]	; 0x28
    1952:	f043 0301 	orr.w	r3, r3, #1
    1956:	930b      	str	r3, [sp, #44]	; 0x2c
    1958:	f8da 300c 	ldr.w	r3, [r10, #12]
    195c:	eb0a 02c3 	add.w	r2, r10, r3, lsl #3
    1960:	9204      	str	r2, [sp, #16]
    1962:	9305      	str	r3, [sp, #20]
    1964:	9b05      	ldr	r3, [sp, #20]
    1966:	2b00      	cmp	r3, #0
    1968:	f000 80a3 	beq.w	1ab2 <__cxxabiv1::__vmi_class_type_info::__do_dyncast(int, __cxxabiv1::__class_type_info::__sub_kind, __cxxabiv1::__class_type_info const*, void const*, __cxxabiv1::__class_type_info const*, void const*, __cxxabiv1::__class_type_info::__dyncast_result&) const+0x1f6>
    196c:	9b04      	ldr	r3, [sp, #16]
    196e:	68a5      	ldr	r5, [r4, #8]
    1970:	68db      	ldr	r3, [r3, #12]
    1972:	950f      	str	r5, [sp, #60]	; 0x3c
    1974:	07da      	lsls	r2, r3, #31
    1976:	bf48      	it	mi
    1978:	981a      	ldrmi	r0, [sp, #104]	; 0x68
    197a:	ea4f 2123 	mov.w	r1, r3, asr #8
    197e:	bf48      	it	mi
    1980:	6800      	ldrmi	r0, [r0, #0]
    1982:	f8cd b034 	str.w	r11, [sp, #52]	; 0x34
    1986:	bf48      	it	mi
    1988:	5841      	ldrmi	r1, [r0, r1]
    198a:	981a      	ldr	r0, [sp, #104]	; 0x68
    198c:	f88d b038 	strb.w	r11, [sp, #56]	; 0x38
    1990:	4401      	add	r1, r0
    1992:	9808      	ldr	r0, [sp, #32]
    1994:	f88d b039 	strb.w	r11, [sp, #57]	; 0x39
    1998:	f88d b03a 	strb.w	r11, [sp, #58]	; 0x3a
    199c:	bf4c      	ite	mi
    199e:	9a0b      	ldrmi	r2, [sp, #44]	; 0x2c
    19a0:	9a06      	ldrpl	r2, [sp, #24]
    19a2:	b130      	cbz	r0, 19b2 <__cxxabiv1::__vmi_class_type_info::__do_dyncast(int, __cxxabiv1::__class_type_info::__sub_kind, __cxxabiv1::__class_type_info const*, void const*, __cxxabiv1::__class_type_info const*, void const*, __cxxabiv1::__class_type_info::__dyncast_result&) const+0xf6>
    19a4:	4288      	cmp	r0, r1
    19a6:	9e09      	ldr	r6, [sp, #36]	; 0x24
    19a8:	bf2c      	ite	cs
    19aa:	2000      	movcs	r0, #0
    19ac:	2001      	movcc	r0, #1
    19ae:	42b0      	cmp	r0, r6
    19b0:	d078      	beq.n	1aa4 <__cxxabiv1::__vmi_class_type_info::__do_dyncast(int, __cxxabiv1::__class_type_info::__sub_kind, __cxxabiv1::__class_type_info const*, void const*, __cxxabiv1::__class_type_info const*, void const*, __cxxabiv1::__class_type_info::__dyncast_result&) const+0x1e8>
    19b2:	079b      	lsls	r3, r3, #30
    19b4:	d40d      	bmi.n	19d2 <__cxxabiv1::__vmi_class_type_info::__do_dyncast(int, __cxxabiv1::__class_type_info::__sub_kind, __cxxabiv1::__class_type_info const*, void const*, __cxxabiv1::__class_type_info const*, void const*, __cxxabiv1::__class_type_info::__dyncast_result&) const+0x116>
    19b6:	f118 0f02 	cmn.w	r8, #2
    19ba:	d108      	bne.n	19ce <__cxxabiv1::__vmi_class_type_info::__do_dyncast(int, __cxxabiv1::__class_type_info::__sub_kind, __cxxabiv1::__class_type_info const*, void const*, __cxxabiv1::__class_type_info const*, void const*, __cxxabiv1::__class_type_info::__dyncast_result&) const+0x112>
    19bc:	07ae      	lsls	r6, r5, #30
    19be:	d106      	bne.n	19ce <__cxxabiv1::__vmi_class_type_info::__do_dyncast(int, __cxxabiv1::__class_type_info::__sub_kind, __cxxabiv1::__class_type_info const*, void const*, __cxxabiv1::__class_type_info const*, void const*, __cxxabiv1::__class_type_info::__dyncast_result&) const+0x112>
    19c0:	9b05      	ldr	r3, [sp, #20]
    19c2:	3b01      	subs	r3, #1
    19c4:	9305      	str	r3, [sp, #20]
    19c6:	9b04      	ldr	r3, [sp, #16]
    19c8:	3b08      	subs	r3, #8
    19ca:	9304      	str	r3, [sp, #16]
    19cc:	e7ca      	b.n	1964 <__cxxabiv1::__vmi_class_type_info::__do_dyncast(int, __cxxabiv1::__class_type_info::__sub_kind, __cxxabiv1::__class_type_info const*, void const*, __cxxabiv1::__class_type_info const*, void const*, __cxxabiv1::__class_type_info::__dyncast_result&) const+0xa8>
    19ce:	f002 02fd 	and.w	r2, r2, #253	; 0xfd
    19d2:	9b04      	ldr	r3, [sp, #16]
    19d4:	ad0d      	add	r5, sp, #52	; 0x34
    19d6:	6898      	ldr	r0, [r3, #8]
    19d8:	6803      	ldr	r3, [r0, #0]
    19da:	9503      	str	r5, [sp, #12]
    19dc:	9d1c      	ldr	r5, [sp, #112]	; 0x70
    19de:	9502      	str	r5, [sp, #8]
    19e0:	9d1b      	ldr	r5, [sp, #108]	; 0x6c
    19e2:	e88d 0022 	stmia.w	sp, {r1, r5}
    19e6:	4641      	mov	r1, r8
    19e8:	69dd      	ldr	r5, [r3, #28]
    19ea:	9b07      	ldr	r3, [sp, #28]
    19ec:	47a8      	blx	r5
    19ee:	7961      	ldrb	r1, [r4, #5]
    19f0:	f89d 2039 	ldrb.w	r2, [sp, #57]	; 0x39
    19f4:	f89d 503a 	ldrb.w	r5, [sp, #58]	; 0x3a
    19f8:	4311      	orrs	r1, r2
    19fa:	2d06      	cmp	r5, #6
    19fc:	4603      	mov	r3, r0
    19fe:	7161      	strb	r1, [r4, #5]
    1a00:	d001      	beq.n	1a06 <__cxxabiv1::__vmi_class_type_info::__do_dyncast(int, __cxxabiv1::__class_type_info::__sub_kind, __cxxabiv1::__class_type_info const*, void const*, __cxxabiv1::__class_type_info const*, void const*, __cxxabiv1::__class_type_info::__dyncast_result&) const+0x14a>
    1a02:	2d02      	cmp	r5, #2
    1a04:	d106      	bne.n	1a14 <__cxxabiv1::__vmi_class_type_info::__do_dyncast(int, __cxxabiv1::__class_type_info::__sub_kind, __cxxabiv1::__class_type_info const*, void const*, __cxxabiv1::__class_type_info const*, void const*, __cxxabiv1::__class_type_info::__dyncast_result&) const+0x158>
    1a06:	9b0d      	ldr	r3, [sp, #52]	; 0x34
    1a08:	71a5      	strb	r5, [r4, #6]
    1a0a:	6023      	str	r3, [r4, #0]
    1a0c:	f89d 3038 	ldrb.w	r3, [sp, #56]	; 0x38
    1a10:	7123      	strb	r3, [r4, #4]
    1a12:	e04a      	b.n	1aaa <__cxxabiv1::__vmi_class_type_info::__do_dyncast(int, __cxxabiv1::__class_type_info::__sub_kind, __cxxabiv1::__class_type_info const*, void const*, __cxxabiv1::__class_type_info const*, void const*, __cxxabiv1::__class_type_info::__dyncast_result&) const+0x1ee>
    1a14:	6822      	ldr	r2, [r4, #0]
    1a16:	f1b9 0f00 	cmp.w	r9, #0
    1a1a:	d10e      	bne.n	1a3a <__cxxabiv1::__vmi_class_type_info::__do_dyncast(int, __cxxabiv1::__class_type_info::__sub_kind, __cxxabiv1::__class_type_info const*, void const*, __cxxabiv1::__class_type_info const*, void const*, __cxxabiv1::__class_type_info::__dyncast_result&) const+0x17e>
    1a1c:	b96a      	cbnz	r2, 1a3a <__cxxabiv1::__vmi_class_type_info::__do_dyncast(int, __cxxabiv1::__class_type_info::__sub_kind, __cxxabiv1::__class_type_info const*, void const*, __cxxabiv1::__class_type_info const*, void const*, __cxxabiv1::__class_type_info::__dyncast_result&) const+0x17e>
    1a1e:	9a0d      	ldr	r2, [sp, #52]	; 0x34
    1a20:	f89d 5038 	ldrb.w	r5, [sp, #56]	; 0x38
    1a24:	6022      	str	r2, [r4, #0]
    1a26:	7125      	strb	r5, [r4, #4]
    1a28:	2a00      	cmp	r2, #0
    1a2a:	d036      	beq.n	1a9a <__cxxabiv1::__vmi_class_type_info::__do_dyncast(int, __cxxabiv1::__class_type_info::__sub_kind, __cxxabiv1::__class_type_info const*, void const*, __cxxabiv1::__class_type_info const*, void const*, __cxxabiv1::__class_type_info::__dyncast_result&) const+0x1de>
    1a2c:	2900      	cmp	r1, #0
    1a2e:	d034      	beq.n	1a9a <__cxxabiv1::__vmi_class_type_info::__do_dyncast(int, __cxxabiv1::__class_type_info::__sub_kind, __cxxabiv1::__class_type_info const*, void const*, __cxxabiv1::__class_type_info const*, void const*, __cxxabiv1::__class_type_info::__dyncast_result&) const+0x1de>
    1a30:	f8da 2008 	ldr.w	r2, [r10, #8]
    1a34:	07d5      	lsls	r5, r2, #31
    1a36:	d430      	bmi.n	1a9a <__cxxabiv1::__vmi_class_type_info::__do_dyncast(int, __cxxabiv1::__class_type_info::__sub_kind, __cxxabiv1::__class_type_info const*, void const*, __cxxabiv1::__class_type_info const*, void const*, __cxxabiv1::__class_type_info::__dyncast_result&) const+0x1de>
    1a38:	e037      	b.n	1aaa <__cxxabiv1::__vmi_class_type_info::__do_dyncast(int, __cxxabiv1::__class_type_info::__sub_kind, __cxxabiv1::__class_type_info const*, void const*, __cxxabiv1::__class_type_info const*, void const*, __cxxabiv1::__class_type_info::__dyncast_result&) const+0x1ee>
    1a3a:	b152      	cbz	r2, 1a52 <__cxxabiv1::__vmi_class_type_info::__do_dyncast(int, __cxxabiv1::__class_type_info::__sub_kind, __cxxabiv1::__class_type_info const*, void const*, __cxxabiv1::__class_type_info const*, void const*, __cxxabiv1::__class_type_info::__dyncast_result&) const+0x196>
    1a3c:	9b0d      	ldr	r3, [sp, #52]	; 0x34
    1a3e:	429a      	cmp	r2, r3
    1a40:	d105      	bne.n	1a4e <__cxxabiv1::__vmi_class_type_info::__do_dyncast(int, __cxxabiv1::__class_type_info::__sub_kind, __cxxabiv1::__class_type_info const*, void const*, __cxxabiv1::__class_type_info const*, void const*, __cxxabiv1::__class_type_info::__dyncast_result&) const+0x192>
    1a42:	7922      	ldrb	r2, [r4, #4]
    1a44:	f89d 3038 	ldrb.w	r3, [sp, #56]	; 0x38
    1a48:	4313      	orrs	r3, r2
    1a4a:	7123      	strb	r3, [r4, #4]
    1a4c:	e024      	b.n	1a98 <__cxxabiv1::__vmi_class_type_info::__do_dyncast(int, __cxxabiv1::__class_type_info::__sub_kind, __cxxabiv1::__class_type_info const*, void const*, __cxxabiv1::__class_type_info const*, void const*, __cxxabiv1::__class_type_info::__dyncast_result&) const+0x1dc>
    1a4e:	b92b      	cbnz	r3, 1a5c <__cxxabiv1::__vmi_class_type_info::__do_dyncast(int, __cxxabiv1::__class_type_info::__sub_kind, __cxxabiv1::__class_type_info const*, void const*, __cxxabiv1::__class_type_info const*, void const*, __cxxabiv1::__class_type_info::__dyncast_result&) const+0x1a0>
    1a50:	b920      	cbnz	r0, 1a5c <__cxxabiv1::__vmi_class_type_info::__do_dyncast(int, __cxxabiv1::__class_type_info::__sub_kind, __cxxabiv1::__class_type_info const*, void const*, __cxxabiv1::__class_type_info const*, void const*, __cxxabiv1::__class_type_info::__dyncast_result&) const+0x1a0>
    1a52:	9b0d      	ldr	r3, [sp, #52]	; 0x34
    1a54:	b303      	cbz	r3, 1a98 <__cxxabiv1::__vmi_class_type_info::__do_dyncast(int, __cxxabiv1::__class_type_info::__sub_kind, __cxxabiv1::__class_type_info const*, void const*, __cxxabiv1::__class_type_info const*, void const*, __cxxabiv1::__class_type_info::__dyncast_result&) const+0x1dc>
    1a56:	f1b9 0f00 	cmp.w	r9, #0
    1a5a:	d01d      	beq.n	1a98 <__cxxabiv1::__vmi_class_type_info::__do_dyncast(int, __cxxabiv1::__class_type_info::__sub_kind, __cxxabiv1::__class_type_info const*, void const*, __cxxabiv1::__class_type_info const*, void const*, __cxxabiv1::__class_type_info::__dyncast_result&) const+0x1dc>
    1a5c:	2903      	cmp	r1, #3
    1a5e:	79a6      	ldrb	r6, [r4, #6]
    1a60:	d904      	bls.n	1a6c <__cxxabiv1::__vmi_class_type_info::__do_dyncast(int, __cxxabiv1::__class_type_info::__sub_kind, __cxxabiv1::__class_type_info const*, void const*, __cxxabiv1::__class_type_info const*, void const*, __cxxabiv1::__class_type_info::__dyncast_result&) const+0x1b0>
    1a62:	07c8      	lsls	r0, r1, #31
    1a64:	d553      	bpl.n	1b0e <__cxxabiv1::__vmi_class_type_info::__do_dyncast(int, __cxxabiv1::__class_type_info::__sub_kind, __cxxabiv1::__class_type_info const*, void const*, __cxxabiv1::__class_type_info const*, void const*, __cxxabiv1::__class_type_info::__dyncast_result&) const+0x252>
    1a66:	68a3      	ldr	r3, [r4, #8]
    1a68:	0799      	lsls	r1, r3, #30
    1a6a:	d550      	bpl.n	1b0e <__cxxabiv1::__vmi_class_type_info::__do_dyncast(int, __cxxabiv1::__class_type_info::__sub_kind, __cxxabiv1::__class_type_info const*, void const*, __cxxabiv1::__class_type_info const*, void const*, __cxxabiv1::__class_type_info::__dyncast_result&) const+0x252>
    1a6c:	b356      	cbz	r6, 1ac4 <__cxxabiv1::__vmi_class_type_info::__do_dyncast(int, __cxxabiv1::__class_type_info::__sub_kind, __cxxabiv1::__class_type_info const*, void const*, __cxxabiv1::__class_type_info const*, void const*, __cxxabiv1::__class_type_info::__dyncast_result&) const+0x208>
    1a6e:	b395      	cbz	r5, 1ad6 <__cxxabiv1::__vmi_class_type_info::__do_dyncast(int, __cxxabiv1::__class_type_info::__sub_kind, __cxxabiv1::__class_type_info const*, void const*, __cxxabiv1::__class_type_info const*, void const*, __cxxabiv1::__class_type_info::__dyncast_result&) const+0x21a>
    1a70:	ea85 0306 	eor.w	r3, r5, r6
    1a74:	b2db      	uxtb	r3, r3
    1a76:	2b03      	cmp	r3, #3
    1a78:	d93a      	bls.n	1af0 <__cxxabiv1::__vmi_class_type_info::__do_dyncast(int, __cxxabiv1::__class_type_info::__sub_kind, __cxxabiv1::__class_type_info const*, void const*, __cxxabiv1::__class_type_info const*, void const*, __cxxabiv1::__class_type_info::__dyncast_result&) const+0x234>
    1a7a:	2d03      	cmp	r5, #3
    1a7c:	d907      	bls.n	1a8e <__cxxabiv1::__vmi_class_type_info::__do_dyncast(int, __cxxabiv1::__class_type_info::__sub_kind, __cxxabiv1::__class_type_info const*, void const*, __cxxabiv1::__class_type_info const*, void const*, __cxxabiv1::__class_type_info::__dyncast_result&) const+0x1d2>
    1a7e:	462e      	mov	r6, r5
    1a80:	9b0d      	ldr	r3, [sp, #52]	; 0x34
    1a82:	f04f 0900 	mov.w	r9, #0
    1a86:	6023      	str	r3, [r4, #0]
    1a88:	f89d 3038 	ldrb.w	r3, [sp, #56]	; 0x38
    1a8c:	7123      	strb	r3, [r4, #4]
    1a8e:	07b2      	lsls	r2, r6, #30
    1a90:	71a6      	strb	r6, [r4, #6]
    1a92:	d456      	bmi.n	1b42 <__cxxabiv1::__vmi_class_type_info::__do_dyncast(int, __cxxabiv1::__class_type_info::__sub_kind, __cxxabiv1::__class_type_info const*, void const*, __cxxabiv1::__class_type_info const*, void const*, __cxxabiv1::__class_type_info::__dyncast_result&) const+0x286>
    1a94:	07f3      	lsls	r3, r6, #31
    1a96:	d554      	bpl.n	1b42 <__cxxabiv1::__vmi_class_type_info::__do_dyncast(int, __cxxabiv1::__class_type_info::__sub_kind, __cxxabiv1::__class_type_info const*, void const*, __cxxabiv1::__class_type_info const*, void const*, __cxxabiv1::__class_type_info::__dyncast_result&) const+0x286>
    1a98:	464b      	mov	r3, r9
    1a9a:	7962      	ldrb	r2, [r4, #5]
    1a9c:	2a04      	cmp	r2, #4
    1a9e:	d006      	beq.n	1aae <__cxxabiv1::__vmi_class_type_info::__do_dyncast(int, __cxxabiv1::__class_type_info::__sub_kind, __cxxabiv1::__class_type_info const*, void const*, __cxxabiv1::__class_type_info const*, void const*, __cxxabiv1::__class_type_info::__dyncast_result&) const+0x1f2>
    1aa0:	4699      	mov	r9, r3
    1aa2:	e78d      	b.n	19c0 <__cxxabiv1::__vmi_class_type_info::__do_dyncast(int, __cxxabiv1::__class_type_info::__sub_kind, __cxxabiv1::__class_type_info const*, void const*, __cxxabiv1::__class_type_info const*, void const*, __cxxabiv1::__class_type_info::__dyncast_result&) const+0x104>
    1aa4:	2301      	movs	r3, #1
    1aa6:	930a      	str	r3, [sp, #40]	; 0x28
    1aa8:	e78a      	b.n	19c0 <__cxxabiv1::__vmi_class_type_info::__do_dyncast(int, __cxxabiv1::__class_type_info::__sub_kind, __cxxabiv1::__class_type_info const*, void const*, __cxxabiv1::__class_type_info const*, void const*, __cxxabiv1::__class_type_info::__dyncast_result&) const+0x104>
    1aaa:	4607      	mov	r7, r0
    1aac:	e049      	b.n	1b42 <__cxxabiv1::__vmi_class_type_info::__do_dyncast(int, __cxxabiv1::__class_type_info::__sub_kind, __cxxabiv1::__class_type_info const*, void const*, __cxxabiv1::__class_type_info const*, void const*, __cxxabiv1::__class_type_info::__dyncast_result&) const+0x286>
    1aae:	461f      	mov	r7, r3
    1ab0:	e047      	b.n	1b42 <__cxxabiv1::__vmi_class_type_info::__do_dyncast(int, __cxxabiv1::__class_type_info::__sub_kind, __cxxabiv1::__class_type_info const*, void const*, __cxxabiv1::__class_type_info const*, void const*, __cxxabiv1::__class_type_info::__dyncast_result&) const+0x286>
    1ab2:	9b0a      	ldr	r3, [sp, #40]	; 0x28
    1ab4:	b123      	cbz	r3, 1ac0 <__cxxabiv1::__vmi_class_type_info::__do_dyncast(int, __cxxabiv1::__class_type_info::__sub_kind, __cxxabiv1::__class_type_info const*, void const*, __cxxabiv1::__class_type_info const*, void const*, __cxxabiv1::__class_type_info::__dyncast_result&) const+0x204>
    1ab6:	9b09      	ldr	r3, [sp, #36]	; 0x24
    1ab8:	b113      	cbz	r3, 1ac0 <__cxxabiv1::__vmi_class_type_info::__do_dyncast(int, __cxxabiv1::__class_type_info::__sub_kind, __cxxabiv1::__class_type_info const*, void const*, __cxxabiv1::__class_type_info const*, void const*, __cxxabiv1::__class_type_info::__dyncast_result&) const+0x204>
    1aba:	9b05      	ldr	r3, [sp, #20]
    1abc:	9309      	str	r3, [sp, #36]	; 0x24
    1abe:	e74b      	b.n	1958 <__cxxabiv1::__vmi_class_type_info::__do_dyncast(int, __cxxabiv1::__class_type_info::__sub_kind, __cxxabiv1::__class_type_info const*, void const*, __cxxabiv1::__class_type_info const*, void const*, __cxxabiv1::__class_type_info::__dyncast_result&) const+0x9c>
    1ac0:	464f      	mov	r7, r9
    1ac2:	e03e      	b.n	1b42 <__cxxabiv1::__vmi_class_type_info::__do_dyncast(int, __cxxabiv1::__class_type_info::__sub_kind, __cxxabiv1::__class_type_info const*, void const*, __cxxabiv1::__class_type_info const*, void const*, __cxxabiv1::__class_type_info::__dyncast_result&) const+0x286>
    1ac4:	2d03      	cmp	r5, #3
    1ac6:	d929      	bls.n	1b1c <__cxxabiv1::__vmi_class_type_info::__do_dyncast(int, __cxxabiv1::__class_type_info::__sub_kind, __cxxabiv1::__class_type_info const*, void const*, __cxxabiv1::__class_type_info const*, void const*, __cxxabiv1::__class_type_info::__dyncast_result&) const+0x260>
    1ac8:	07eb      	lsls	r3, r5, #31
    1aca:	d50d      	bpl.n	1ae8 <__cxxabiv1::__vmi_class_type_info::__do_dyncast(int, __cxxabiv1::__class_type_info::__sub_kind, __cxxabiv1::__class_type_info const*, void const*, __cxxabiv1::__class_type_info const*, void const*, __cxxabiv1::__class_type_info::__dyncast_result&) const+0x22c>
    1acc:	f8da 3008 	ldr.w	r3, [r10, #8]
    1ad0:	079e      	lsls	r6, r3, #30
    1ad2:	d509      	bpl.n	1ae8 <__cxxabiv1::__vmi_class_type_info::__do_dyncast(int, __cxxabiv1::__class_type_info::__sub_kind, __cxxabiv1::__class_type_info const*, void const*, __cxxabiv1::__class_type_info const*, void const*, __cxxabiv1::__class_type_info::__dyncast_result&) const+0x22c>
    1ad4:	e022      	b.n	1b1c <__cxxabiv1::__vmi_class_type_info::__do_dyncast(int, __cxxabiv1::__class_type_info::__sub_kind, __cxxabiv1::__class_type_info const*, void const*, __cxxabiv1::__class_type_info const*, void const*, __cxxabiv1::__class_type_info::__dyncast_result&) const+0x260>
    1ad6:	2e03      	cmp	r6, #3
    1ad8:	d929      	bls.n	1b2e <__cxxabiv1::__vmi_class_type_info::__do_dyncast(int, __cxxabiv1::__class_type_info::__sub_kind, __cxxabiv1::__class_type_info const*, void const*, __cxxabiv1::__class_type_info const*, void const*, __cxxabiv1::__class_type_info::__dyncast_result&) const+0x272>
    1ada:	07f0      	lsls	r0, r6, #31
    1adc:	d506      	bpl.n	1aec <__cxxabiv1::__vmi_class_type_info::__do_dyncast(int, __cxxabiv1::__class_type_info::__sub_kind, __cxxabiv1::__class_type_info const*, void const*, __cxxabiv1::__class_type_info const*, void const*, __cxxabiv1::__class_type_info::__dyncast_result&) const+0x230>
    1ade:	f8da 3008 	ldr.w	r3, [r10, #8]
    1ae2:	0799      	lsls	r1, r3, #30
    1ae4:	d423      	bmi.n	1b2e <__cxxabiv1::__vmi_class_type_info::__do_dyncast(int, __cxxabiv1::__class_type_info::__sub_kind, __cxxabiv1::__class_type_info const*, void const*, __cxxabiv1::__class_type_info const*, void const*, __cxxabiv1::__class_type_info::__dyncast_result&) const+0x272>
    1ae6:	e001      	b.n	1aec <__cxxabiv1::__vmi_class_type_info::__do_dyncast(int, __cxxabiv1::__class_type_info::__sub_kind, __cxxabiv1::__class_type_info const*, void const*, __cxxabiv1::__class_type_info const*, void const*, __cxxabiv1::__class_type_info::__dyncast_result&) const+0x230>
    1ae8:	2601      	movs	r6, #1
    1aea:	e7c1      	b.n	1a70 <__cxxabiv1::__vmi_class_type_info::__do_dyncast(int, __cxxabiv1::__class_type_info::__sub_kind, __cxxabiv1::__class_type_info const*, void const*, __cxxabiv1::__class_type_info const*, void const*, __cxxabiv1::__class_type_info::__dyncast_result&) const+0x1b4>
    1aec:	2501      	movs	r5, #1
    1aee:	e7bf      	b.n	1a70 <__cxxabiv1::__vmi_class_type_info::__do_dyncast(int, __cxxabiv1::__class_type_info::__sub_kind, __cxxabiv1::__class_type_info const*, void const*, __cxxabiv1::__class_type_info const*, void const*, __cxxabiv1::__class_type_info::__dyncast_result&) const+0x1b4>
    1af0:	4035      	ands	r5, r6
    1af2:	b2ed      	uxtb	r5, r5
    1af4:	2d03      	cmp	r5, #3
    1af6:	d905      	bls.n	1b04 <__cxxabiv1::__vmi_class_type_info::__do_dyncast(int, __cxxabiv1::__class_type_info::__sub_kind, __cxxabiv1::__class_type_info const*, void const*, __cxxabiv1::__class_type_info const*, void const*, __cxxabiv1::__class_type_info::__dyncast_result&) const+0x248>
    1af8:	2300      	movs	r3, #0
    1afa:	6023      	str	r3, [r4, #0]
    1afc:	2302      	movs	r3, #2
    1afe:	71a3      	strb	r3, [r4, #6]
    1b00:	2701      	movs	r7, #1
    1b02:	e01e      	b.n	1b42 <__cxxabiv1::__vmi_class_type_info::__do_dyncast(int, __cxxabiv1::__class_type_info::__sub_kind, __cxxabiv1::__class_type_info const*, void const*, __cxxabiv1::__class_type_info const*, void const*, __cxxabiv1::__class_type_info::__dyncast_result&) const+0x286>
    1b04:	2301      	movs	r3, #1
    1b06:	f8c4 b000 	str.w	r11, [r4]
    1b0a:	71a3      	strb	r3, [r4, #6]
    1b0c:	e7c5      	b.n	1a9a <__cxxabiv1::__vmi_class_type_info::__do_dyncast(int, __cxxabiv1::__class_type_info::__sub_kind, __cxxabiv1::__class_type_info const*, void const*, __cxxabiv1::__class_type_info const*, void const*, __cxxabiv1::__class_type_info::__dyncast_result&) const+0x1de>
    1b0e:	2e00      	cmp	r6, #0
    1b10:	bf08      	it	eq
    1b12:	2601      	moveq	r6, #1
    1b14:	2d00      	cmp	r5, #0
    1b16:	bf08      	it	eq
    1b18:	2501      	moveq	r5, #1
    1b1a:	e7a9      	b.n	1a70 <__cxxabiv1::__vmi_class_type_info::__do_dyncast(int, __cxxabiv1::__class_type_info::__sub_kind, __cxxabiv1::__class_type_info const*, void const*, __cxxabiv1::__class_type_info const*, void const*, __cxxabiv1::__class_type_info::__dyncast_result&) const+0x1b4>
    1b1c:	9b1c      	ldr	r3, [sp, #112]	; 0x70
    1b1e:	4641      	mov	r1, r8
    1b20:	9300      	str	r3, [sp, #0]
    1b22:	9807      	ldr	r0, [sp, #28]
    1b24:	9b1b      	ldr	r3, [sp, #108]	; 0x6c
    1b26:	f7ff feb4 	bl	1892 <__cxxabiv1::__class_type_info::__find_public_src(int, void const*, __cxxabiv1::__class_type_info const*, void const*) const>
    1b2a:	4606      	mov	r6, r0
    1b2c:	e79f      	b.n	1a6e <__cxxabiv1::__vmi_class_type_info::__do_dyncast(int, __cxxabiv1::__class_type_info::__sub_kind, __cxxabiv1::__class_type_info const*, void const*, __cxxabiv1::__class_type_info const*, void const*, __cxxabiv1::__class_type_info::__dyncast_result&) const+0x1b2>
    1b2e:	9b1c      	ldr	r3, [sp, #112]	; 0x70
    1b30:	9a0d      	ldr	r2, [sp, #52]	; 0x34
    1b32:	9300      	str	r3, [sp, #0]
    1b34:	4641      	mov	r1, r8
    1b36:	9b1b      	ldr	r3, [sp, #108]	; 0x6c
    1b38:	9807      	ldr	r0, [sp, #28]
    1b3a:	f7ff feaa 	bl	1892 <__cxxabiv1::__class_type_info::__find_public_src(int, void const*, __cxxabiv1::__class_type_info const*, void const*) const>
    1b3e:	4605      	mov	r5, r0
    1b40:	e796      	b.n	1a70 <__cxxabiv1::__vmi_class_type_info::__do_dyncast(int, __cxxabiv1::__class_type_info::__sub_kind, __cxxabiv1::__class_type_info const*, void const*, __cxxabiv1::__class_type_info const*, void const*, __cxxabiv1::__class_type_info::__dyncast_result&) const+0x1b4>
    1b42:	4638      	mov	r0, r7
    1b44:	b011      	add	sp, #68	; 0x44
    1b46:	e8bd 8ff0 	ldmia.w	sp!, {r4, r5, r6, r7, r8, r9, r10, r11, pc}

00001b4a <__cxxabiv1::__vmi_class_type_info::__do_upcast(__cxxabiv1::__class_type_info const*, void const*, __cxxabiv1::__class_type_info::__upcast_result&) const>:
    1b4a:	e92d 4ff0 	stmdb	sp!, {r4, r5, r6, r7, r8, r9, r10, r11, lr}
    1b4e:	b089      	sub	sp, #36	; 0x24
    1b50:	4680      	mov	r8, r0
    1b52:	9102      	str	r1, [sp, #8]
    1b54:	4692      	mov	r10, r2
    1b56:	461c      	mov	r4, r3
    1b58:	f000 f8ed 	bl	1d36 <__cxxabiv1::__class_type_info::__do_upcast(__cxxabiv1::__class_type_info const*, void const*, __cxxabiv1::__class_type_info::__upcast_result&) const>
    1b5c:	4605      	mov	r5, r0
    1b5e:	2800      	cmp	r0, #0
    1b60:	f040 8085 	bne.w	1c6e <__cxxabiv1::__vmi_class_type_info::__do_upcast(__cxxabiv1::__class_type_info const*, void const*, __cxxabiv1::__class_type_info::__upcast_result&) const+0x124>
    1b64:	f8d4 9008 	ldr.w	r9, [r4, #8]
    1b68:	f8d8 600c 	ldr.w	r6, [r8, #12]
    1b6c:	f019 0f10 	tst.w	r9, #16
    1b70:	bf18      	it	ne
    1b72:	f8d8 9008 	ldrne.w	r9, [r8, #8]
    1b76:	eb08 07c6 	add.w	r7, r8, r6, lsl #3
    1b7a:	f009 0301 	and.w	r3, r9, #1
    1b7e:	f04f 0b00 	mov.w	r11, #0
    1b82:	9303      	str	r3, [sp, #12]
    1b84:	2e00      	cmp	r6, #0
    1b86:	d05f      	beq.n	1c48 <__cxxabiv1::__vmi_class_type_info::__do_upcast(__cxxabiv1::__class_type_info const*, void const*, __cxxabiv1::__class_type_info::__upcast_result&) const+0xfe>
    1b88:	68fa      	ldr	r2, [r7, #12]
    1b8a:	f8cd b010 	str.w	r11, [sp, #16]
    1b8e:	f002 0301 	and.w	r3, r2, #1
    1b92:	9300      	str	r3, [sp, #0]
    1b94:	f012 0302 	ands.w	r3, r2, #2
    1b98:	f88d b014 	strb.w	r11, [sp, #20]
    1b9c:	f8cd 9018 	str.w	r9, [sp, #24]
    1ba0:	f8cd b01c 	str.w	r11, [sp, #28]
    1ba4:	9301      	str	r3, [sp, #4]
    1ba6:	d104      	bne.n	1bb2 <__cxxabiv1::__vmi_class_type_info::__do_upcast(__cxxabiv1::__class_type_info const*, void const*, __cxxabiv1::__class_type_info::__upcast_result&) const+0x68>
    1ba8:	9b03      	ldr	r3, [sp, #12]
    1baa:	b913      	cbnz	r3, 1bb2 <__cxxabiv1::__vmi_class_type_info::__do_upcast(__cxxabiv1::__class_type_info const*, void const*, __cxxabiv1::__class_type_info::__upcast_result&) const+0x68>
    1bac:	3e01      	subs	r6, #1
    1bae:	3f08      	subs	r7, #8
    1bb0:	e7e8      	b.n	1b84 <__cxxabiv1::__vmi_class_type_info::__do_upcast(__cxxabiv1::__class_type_info const*, void const*, __cxxabiv1::__class_type_info::__upcast_result&) const+0x3a>
    1bb2:	f1ba 0f00 	cmp.w	r10, #0
    1bb6:	d007      	beq.n	1bc8 <__cxxabiv1::__vmi_class_type_info::__do_upcast(__cxxabiv1::__class_type_info const*, void const*, __cxxabiv1::__class_type_info::__upcast_result&) const+0x7e>
    1bb8:	9b00      	ldr	r3, [sp, #0]
    1bba:	1212      	asrs	r2, r2, #8
    1bbc:	b113      	cbz	r3, 1bc4 <__cxxabiv1::__vmi_class_type_info::__do_upcast(__cxxabiv1::__class_type_info const*, void const*, __cxxabiv1::__class_type_info::__upcast_result&) const+0x7a>
    1bbe:	f8da 3000 	ldr.w	r3, [r10]
    1bc2:	589a      	ldr	r2, [r3, r2]
    1bc4:	4452      	add	r2, r10
    1bc6:	e000      	b.n	1bca <__cxxabiv1::__vmi_class_type_info::__do_upcast(__cxxabiv1::__class_type_info const*, void const*, __cxxabiv1::__class_type_info::__upcast_result&) const+0x80>
    1bc8:	4652      	mov	r2, r10
    1bca:	68b8      	ldr	r0, [r7, #8]
    1bcc:	9902      	ldr	r1, [sp, #8]
    1bce:	6803      	ldr	r3, [r0, #0]
    1bd0:	699d      	ldr	r5, [r3, #24]
    1bd2:	ab04      	add	r3, sp, #16
    1bd4:	47a8      	blx	r5
    1bd6:	4605      	mov	r5, r0
    1bd8:	2800      	cmp	r0, #0
    1bda:	d0e7      	beq.n	1bac <__cxxabiv1::__vmi_class_type_info::__do_upcast(__cxxabiv1::__class_type_info const*, void const*, __cxxabiv1::__class_type_info::__upcast_result&) const+0x62>
    1bdc:	9b07      	ldr	r3, [sp, #28]
    1bde:	2b08      	cmp	r3, #8
    1be0:	d103      	bne.n	1bea <__cxxabiv1::__vmi_class_type_info::__do_upcast(__cxxabiv1::__class_type_info const*, void const*, __cxxabiv1::__class_type_info::__upcast_result&) const+0xa0>
    1be2:	9b00      	ldr	r3, [sp, #0]
    1be4:	b10b      	cbz	r3, 1bea <__cxxabiv1::__vmi_class_type_info::__do_upcast(__cxxabiv1::__class_type_info const*, void const*, __cxxabiv1::__class_type_info::__upcast_result&) const+0xa0>
    1be6:	68bb      	ldr	r3, [r7, #8]
    1be8:	9307      	str	r3, [sp, #28]
    1bea:	f89d 3014 	ldrb.w	r3, [sp, #20]
    1bee:	2b03      	cmp	r3, #3
    1bf0:	d901      	bls.n	1bf6 <__cxxabiv1::__vmi_class_type_info::__do_upcast(__cxxabiv1::__class_type_info const*, void const*, __cxxabiv1::__class_type_info::__upcast_result&) const+0xac>
    1bf2:	9a01      	ldr	r2, [sp, #4]
    1bf4:	b36a      	cbz	r2, 1c52 <__cxxabiv1::__vmi_class_type_info::__do_upcast(__cxxabiv1::__class_type_info const*, void const*, __cxxabiv1::__class_type_info::__upcast_result&) const+0x108>
    1bf6:	68e1      	ldr	r1, [r4, #12]
    1bf8:	b9a9      	cbnz	r1, 1c26 <__cxxabiv1::__vmi_class_type_info::__do_upcast(__cxxabiv1::__class_type_info const*, void const*, __cxxabiv1::__class_type_info::__upcast_result&) const+0xdc>
    1bfa:	ab04      	add	r3, sp, #16
    1bfc:	cb0f      	ldmia	r3, {r0, r1, r2, r3}
    1bfe:	e884 000f 	stmia.w	r4, {r0, r1, r2, r3}
    1c02:	7923      	ldrb	r3, [r4, #4]
    1c04:	2b03      	cmp	r3, #3
    1c06:	d932      	bls.n	1c6e <__cxxabiv1::__vmi_class_type_info::__do_upcast(__cxxabiv1::__class_type_info const*, void const*, __cxxabiv1::__class_type_info::__upcast_result&) const+0x124>
    1c08:	079a      	lsls	r2, r3, #30
    1c0a:	d504      	bpl.n	1c16 <__cxxabiv1::__vmi_class_type_info::__do_upcast(__cxxabiv1::__class_type_info const*, void const*, __cxxabiv1::__class_type_info::__upcast_result&) const+0xcc>
    1c0c:	f8d8 3008 	ldr.w	r3, [r8, #8]
    1c10:	f013 0f01 	tst.w	r3, #1
    1c14:	e005      	b.n	1c22 <__cxxabiv1::__vmi_class_type_info::__do_upcast(__cxxabiv1::__class_type_info const*, void const*, __cxxabiv1::__class_type_info::__upcast_result&) const+0xd8>
    1c16:	07db      	lsls	r3, r3, #31
    1c18:	d529      	bpl.n	1c6e <__cxxabiv1::__vmi_class_type_info::__do_upcast(__cxxabiv1::__class_type_info const*, void const*, __cxxabiv1::__class_type_info::__upcast_result&) const+0x124>
    1c1a:	f8d8 3008 	ldr.w	r3, [r8, #8]
    1c1e:	f013 0f02 	tst.w	r3, #2
    1c22:	d1c3      	bne.n	1bac <__cxxabiv1::__vmi_class_type_info::__do_upcast(__cxxabiv1::__class_type_info const*, void const*, __cxxabiv1::__class_type_info::__upcast_result&) const+0x62>
    1c24:	e023      	b.n	1c6e <__cxxabiv1::__vmi_class_type_info::__do_upcast(__cxxabiv1::__class_type_info const*, void const*, __cxxabiv1::__class_type_info::__upcast_result&) const+0x124>
    1c26:	6823      	ldr	r3, [r4, #0]
    1c28:	9a04      	ldr	r2, [sp, #16]
    1c2a:	4293      	cmp	r3, r2
    1c2c:	d002      	beq.n	1c34 <__cxxabiv1::__vmi_class_type_info::__do_upcast(__cxxabiv1::__class_type_info const*, void const*, __cxxabiv1::__class_type_info::__upcast_result&) const+0xea>
    1c2e:	2300      	movs	r3, #0
    1c30:	6023      	str	r3, [r4, #0]
    1c32:	e013      	b.n	1c5c <__cxxabiv1::__vmi_class_type_info::__do_upcast(__cxxabiv1::__class_type_info const*, void const*, __cxxabiv1::__class_type_info::__upcast_result&) const+0x112>
    1c34:	b9ab      	cbnz	r3, 1c62 <__cxxabiv1::__vmi_class_type_info::__do_upcast(__cxxabiv1::__class_type_info const*, void const*, __cxxabiv1::__class_type_info::__upcast_result&) const+0x118>
    1c36:	9807      	ldr	r0, [sp, #28]
    1c38:	2808      	cmp	r0, #8
    1c3a:	d00f      	beq.n	1c5c <__cxxabiv1::__vmi_class_type_info::__do_upcast(__cxxabiv1::__class_type_info const*, void const*, __cxxabiv1::__class_type_info::__upcast_result&) const+0x112>
    1c3c:	2908      	cmp	r1, #8
    1c3e:	d00d      	beq.n	1c5c <__cxxabiv1::__vmi_class_type_info::__do_upcast(__cxxabiv1::__class_type_info const*, void const*, __cxxabiv1::__class_type_info::__upcast_result&) const+0x112>
    1c40:	f000 f82f 	bl	1ca2 <std::type_info::operator==(std::type_info const&) const>
    1c44:	b968      	cbnz	r0, 1c62 <__cxxabiv1::__vmi_class_type_info::__do_upcast(__cxxabiv1::__class_type_info const*, void const*, __cxxabiv1::__class_type_info::__upcast_result&) const+0x118>
    1c46:	e009      	b.n	1c5c <__cxxabiv1::__vmi_class_type_info::__do_upcast(__cxxabiv1::__class_type_info const*, void const*, __cxxabiv1::__class_type_info::__upcast_result&) const+0x112>
    1c48:	7925      	ldrb	r5, [r4, #4]
    1c4a:	3500      	adds	r5, #0
    1c4c:	bf18      	it	ne
    1c4e:	2501      	movne	r5, #1
    1c50:	e00d      	b.n	1c6e <__cxxabiv1::__vmi_class_type_info::__do_upcast(__cxxabiv1::__class_type_info const*, void const*, __cxxabiv1::__class_type_info::__upcast_result&) const+0x124>
    1c52:	f023 0302 	bic.w	r3, r3, #2
    1c56:	f88d 3014 	strb.w	r3, [sp, #20]
    1c5a:	e7cc      	b.n	1bf6 <__cxxabiv1::__vmi_class_type_info::__do_upcast(__cxxabiv1::__class_type_info const*, void const*, __cxxabiv1::__class_type_info::__upcast_result&) const+0xac>
    1c5c:	2302      	movs	r3, #2
    1c5e:	7123      	strb	r3, [r4, #4]
    1c60:	e005      	b.n	1c6e <__cxxabiv1::__vmi_class_type_info::__do_upcast(__cxxabiv1::__class_type_info const*, void const*, __cxxabiv1::__class_type_info::__upcast_result&) const+0x124>
    1c62:	7922      	ldrb	r2, [r4, #4]
    1c64:	f89d 3014 	ldrb.w	r3, [sp, #20]
    1c68:	4313      	orrs	r3, r2
    1c6a:	7123      	strb	r3, [r4, #4]
    1c6c:	e79e      	b.n	1bac <__cxxabiv1::__vmi_class_type_info::__do_upcast(__cxxabiv1::__class_type_info const*, void const*, __cxxabiv1::__class_type_info::__upcast_result&) const+0x62>
    1c6e:	4628      	mov	r0, r5
    1c70:	b009      	add	sp, #36	; 0x24
    1c72:	e8bd 8ff0 	ldmia.w	sp!, {r4, r5, r6, r7, r8, r9, r10, r11, pc}

00001c76 <operator new(unsigned int)>:
    1c76:	b510      	push	{r4, lr}
    1c78:	2800      	cmp	r0, #0
    1c7a:	bf14      	ite	ne
    1c7c:	4604      	movne	r4, r0
    1c7e:	2401      	moveq	r4, #1
    1c80:	4620      	mov	r0, r4
    1c82:	f000 fc01 	bl	2488 <malloc>
    1c86:	b930      	cbnz	r0, 1c96 <operator new(unsigned int)+0x20>
    1c88:	f000 f892 	bl	1db0 <std::get_new_handler()>
    1c8c:	b908      	cbnz	r0, 1c92 <operator new(unsigned int)+0x1c>
    1c8e:	f000 f89b 	bl	1dc8 <abort>
    1c92:	4780      	blx	r0
    1c94:	e7f4      	b.n	1c80 <operator new(unsigned int)+0xa>
    1c96:	bd10      	pop	{r4, pc}

00001c98 <operator new[](unsigned int)>:
    1c98:	f7ff bfed 	b.w	1c76 <operator new(unsigned int)>

00001c9c <std::type_info::~type_info()>:
    1c9c:	4770      	bx	lr

00001c9e <std::type_info::__is_pointer_p() const>:
    1c9e:	2000      	movs	r0, #0
    1ca0:	4770      	bx	lr

00001ca2 <std::type_info::operator==(std::type_info const&) const>:
    1ca2:	4281      	cmp	r1, r0
    1ca4:	b508      	push	{r3, lr}
    1ca6:	d00e      	beq.n	1cc6 <std::type_info::operator==(std::type_info const&) const+0x24>
    1ca8:	6840      	ldr	r0, [r0, #4]
    1caa:	7803      	ldrb	r3, [r0, #0]
    1cac:	2b2a      	cmp	r3, #42	; 0x2a
    1cae:	d00c      	beq.n	1cca <std::type_info::operator==(std::type_info const&) const+0x28>
    1cb0:	6849      	ldr	r1, [r1, #4]
    1cb2:	780b      	ldrb	r3, [r1, #0]
    1cb4:	2b2a      	cmp	r3, #42	; 0x2a
    1cb6:	bf08      	it	eq
    1cb8:	3101      	addeq	r1, #1
    1cba:	f001 ffa8 	bl	3c0e <strcmp>
    1cbe:	fab0 f080 	clz	r0, r0
    1cc2:	0940      	lsrs	r0, r0, #5
    1cc4:	bd08      	pop	{r3, pc}
    1cc6:	2001      	movs	r0, #1
    1cc8:	bd08      	pop	{r3, pc}
    1cca:	2000      	movs	r0, #0
    1ccc:	bd08      	pop	{r3, pc}

00001cce <__cxxabiv1::__class_type_info::__do_upcast(__cxxabiv1::__class_type_info const*, void**) const>:
    1cce:	b57f      	push	{r0, r1, r2, r3, r4, r5, r6, lr}
    1cd0:	2310      	movs	r3, #16
    1cd2:	9302      	str	r3, [sp, #8]
    1cd4:	6803      	ldr	r3, [r0, #0]
    1cd6:	2400      	movs	r4, #0
    1cd8:	4615      	mov	r5, r2
    1cda:	699e      	ldr	r6, [r3, #24]
    1cdc:	9400      	str	r4, [sp, #0]
    1cde:	466b      	mov	r3, sp
    1ce0:	f88d 4004 	strb.w	r4, [sp, #4]
    1ce4:	9403      	str	r4, [sp, #12]
    1ce6:	6812      	ldr	r2, [r2, #0]
    1ce8:	47b0      	blx	r6
    1cea:	f89d 3004 	ldrb.w	r3, [sp, #4]
    1cee:	f003 0306 	and.w	r3, r3, #6
    1cf2:	2b06      	cmp	r3, #6
    1cf4:	bf11      	iteee	ne
    1cf6:	4620      	movne	r0, r4
    1cf8:	9b00      	ldreq	r3, [sp, #0]
    1cfa:	2001      	moveq	r0, #1
    1cfc:	602b      	streq	r3, [r5, #0]
    1cfe:	b004      	add	sp, #16
    1d00:	bd70      	pop	{r4, r5, r6, pc}

00001d02 <__cxxabiv1::__class_type_info::__do_find_public_src(int, void const*, __cxxabiv1::__class_type_info const*, void const*) const>:
    1d02:	9800      	ldr	r0, [sp, #0]
    1d04:	4290      	cmp	r0, r2
    1d06:	bf0c      	ite	eq
    1d08:	2006      	moveq	r0, #6
    1d0a:	2001      	movne	r0, #1
    1d0c:	4770      	bx	lr
	...

00001d10 <__cxxabiv1::__class_type_info::~__class_type_info()>:
    1d10:	b510      	push	{r4, lr}
    1d12:	4604      	mov	r4, r0
    1d14:	4b02      	ldr	r3, [pc, #8]	; (1d20 <__cxxabiv1::__class_type_info::~__class_type_info()+0x10>)
    1d16:	6003      	str	r3, [r0, #0]
    1d18:	f7ff ffc0 	bl	1c9c <std::type_info::~type_info()>
    1d1c:	4620      	mov	r0, r4
    1d1e:	bd10      	pop	{r4, pc}
    1d20:	00008498 	.word	0x00008498

00001d24 <__cxxabiv1::__class_type_info::~__class_type_info()>:
    1d24:	b510      	push	{r4, lr}
    1d26:	4604      	mov	r4, r0
    1d28:	f7ff fff2 	bl	1d10 <__cxxabiv1::__class_type_info::~__class_type_info()>
    1d2c:	4620      	mov	r0, r4
    1d2e:	f7ff fcde 	bl	16ee <operator delete(void*)>
    1d32:	4620      	mov	r0, r4
    1d34:	bd10      	pop	{r4, pc}

00001d36 <__cxxabiv1::__class_type_info::__do_upcast(__cxxabiv1::__class_type_info const*, void const*, __cxxabiv1::__class_type_info::__upcast_result&) const>:
    1d36:	b538      	push	{r3, r4, r5, lr}
    1d38:	4615      	mov	r5, r2
    1d3a:	461c      	mov	r4, r3
    1d3c:	f7ff ffb1 	bl	1ca2 <std::type_info::operator==(std::type_info const&) const>
    1d40:	b120      	cbz	r0, 1d4c <__cxxabiv1::__class_type_info::__do_upcast(__cxxabiv1::__class_type_info const*, void const*, __cxxabiv1::__class_type_info::__upcast_result&) const+0x16>
    1d42:	2308      	movs	r3, #8
    1d44:	60e3      	str	r3, [r4, #12]
    1d46:	2306      	movs	r3, #6
    1d48:	6025      	str	r5, [r4, #0]
    1d4a:	7123      	strb	r3, [r4, #4]
    1d4c:	bd38      	pop	{r3, r4, r5, pc}

00001d4e <__cxxabiv1::__class_type_info::__do_dyncast(int, __cxxabiv1::__class_type_info::__sub_kind, __cxxabiv1::__class_type_info const*, void const*, __cxxabiv1::__class_type_info const*, void const*, __cxxabiv1::__class_type_info::__dyncast_result&) const>:
    1d4e:	e92d 41f0 	stmdb	sp!, {r4, r5, r6, r7, r8, lr}
    1d52:	9e06      	ldr	r6, [sp, #24]
    1d54:	4698      	mov	r8, r3
    1d56:	9b08      	ldr	r3, [sp, #32]
    1d58:	4607      	mov	r7, r0
    1d5a:	429e      	cmp	r6, r3
    1d5c:	4615      	mov	r5, r2
    1d5e:	9c09      	ldr	r4, [sp, #36]	; 0x24
    1d60:	d103      	bne.n	1d6a <__cxxabiv1::__class_type_info::__do_dyncast(int, __cxxabiv1::__class_type_info::__sub_kind, __cxxabiv1::__class_type_info const*, void const*, __cxxabiv1::__class_type_info const*, void const*, __cxxabiv1::__class_type_info::__dyncast_result&) const+0x1c>
    1d62:	9907      	ldr	r1, [sp, #28]
    1d64:	f7ff ff9d 	bl	1ca2 <std::type_info::operator==(std::type_info const&) const>
    1d68:	b948      	cbnz	r0, 1d7e <__cxxabiv1::__class_type_info::__do_dyncast(int, __cxxabiv1::__class_type_info::__sub_kind, __cxxabiv1::__class_type_info const*, void const*, __cxxabiv1::__class_type_info const*, void const*, __cxxabiv1::__class_type_info::__dyncast_result&) const+0x30>
    1d6a:	4641      	mov	r1, r8
    1d6c:	4638      	mov	r0, r7
    1d6e:	f7ff ff98 	bl	1ca2 <std::type_info::operator==(std::type_info const&) const>
    1d72:	b128      	cbz	r0, 1d80 <__cxxabiv1::__class_type_info::__do_dyncast(int, __cxxabiv1::__class_type_info::__sub_kind, __cxxabiv1::__class_type_info const*, void const*, __cxxabiv1::__class_type_info const*, void const*, __cxxabiv1::__class_type_info::__dyncast_result&) const+0x32>
    1d74:	2301      	movs	r3, #1
    1d76:	6026      	str	r6, [r4, #0]
    1d78:	7125      	strb	r5, [r4, #4]
    1d7a:	71a3      	strb	r3, [r4, #6]
    1d7c:	e000      	b.n	1d80 <__cxxabiv1::__class_type_info::__do_dyncast(int, __cxxabiv1::__class_type_info::__sub_kind, __cxxabiv1::__class_type_info const*, void const*, __cxxabiv1::__class_type_info const*, void const*, __cxxabiv1::__class_type_info::__dyncast_result&) const+0x32>
    1d7e:	7165      	strb	r5, [r4, #5]
    1d80:	2000      	movs	r0, #0
    1d82:	e8bd 81f0 	ldmia.w	sp!, {r4, r5, r6, r7, r8, pc}

00001d86 <__cxxabiv1::__class_type_info::__do_catch(std::type_info const*, void**, unsigned int) const>:
    1d86:	e92d 41f0 	stmdb	sp!, {r4, r5, r6, r7, r8, lr}
    1d8a:	4605      	mov	r5, r0
    1d8c:	460c      	mov	r4, r1
    1d8e:	4616      	mov	r6, r2
    1d90:	461f      	mov	r7, r3
    1d92:	f7ff ff86 	bl	1ca2 <std::type_info::operator==(std::type_info const&) const>
    1d96:	b948      	cbnz	r0, 1dac <__cxxabiv1::__class_type_info::__do_catch(std::type_info const*, void**, unsigned int) const+0x26>
    1d98:	2f03      	cmp	r7, #3
    1d9a:	d807      	bhi.n	1dac <__cxxabiv1::__class_type_info::__do_catch(std::type_info const*, void**, unsigned int) const+0x26>
    1d9c:	6823      	ldr	r3, [r4, #0]
    1d9e:	4632      	mov	r2, r6
    1da0:	4629      	mov	r1, r5
    1da2:	4620      	mov	r0, r4
    1da4:	e8bd 41f0 	ldmia.w	sp!, {r4, r5, r6, r7, r8, lr}
    1da8:	695b      	ldr	r3, [r3, #20]
    1daa:	4718      	bx	r3
    1dac:	e8bd 81f0 	ldmia.w	sp!, {r4, r5, r6, r7, r8, pc}

00001db0 <std::get_new_handler()>:
    1db0:	4b02      	ldr	r3, [pc, #8]	; (1dbc <std::get_new_handler()+0xc>)
    1db2:	6818      	ldr	r0, [r3, #0]
    1db4:	f3bf 8f5f 	dmb	sy
    1db8:	4770      	bx	lr
    1dba:	bf00      	nop
    1dbc:	1000049c 	.word	0x1000049c

00001dc0 <fabs>:
    1dc0:	f021 4100 	bic.w	r1, r1, #2147483648	; 0x80000000
    1dc4:	4770      	bx	lr
    1dc6:	bf00      	nop

00001dc8 <abort>:
    1dc8:	b508      	push	{r3, lr}
    1dca:	2006      	movs	r0, #6
    1dcc:	f001 fe70 	bl	3ab0 <raise>
    1dd0:	2001      	movs	r0, #1
    1dd2:	f006 f8f3 	bl	7fbc <_exit>
	...

00001dd8 <__cxa_atexit>:
    1dd8:	b510      	push	{r4, lr}
    1dda:	4c05      	ldr	r4, [pc, #20]	; (1df0 <__cxa_atexit+0x18>)
    1ddc:	4613      	mov	r3, r2
    1dde:	b12c      	cbz	r4, 1dec <__cxa_atexit+0x14>
    1de0:	460a      	mov	r2, r1
    1de2:	4601      	mov	r1, r0
    1de4:	2002      	movs	r0, #2
    1de6:	f3af 8000 	nop.w
    1dea:	bd10      	pop	{r4, pc}
    1dec:	4620      	mov	r0, r4
    1dee:	bd10      	pop	{r4, pc}
    1df0:	00000000 	.word	0x00000000

00001df4 <__errno>:
    1df4:	4b01      	ldr	r3, [pc, #4]	; (1dfc <__errno+0x8>)
    1df6:	6818      	ldr	r0, [r3, #0]
    1df8:	4770      	bx	lr
    1dfa:	bf00      	nop
    1dfc:	10000138 	.word	0x10000138

00001e00 <_fclose_r>:
    1e00:	b570      	push	{r4, r5, r6, lr}
    1e02:	4605      	mov	r5, r0
    1e04:	460c      	mov	r4, r1
    1e06:	b909      	cbnz	r1, 1e0c <_fclose_r+0xc>
    1e08:	2000      	movs	r0, #0
    1e0a:	bd70      	pop	{r4, r5, r6, pc}
    1e0c:	b118      	cbz	r0, 1e16 <_fclose_r+0x16>
    1e0e:	6983      	ldr	r3, [r0, #24]
    1e10:	b90b      	cbnz	r3, 1e16 <_fclose_r+0x16>
    1e12:	f000 f93f 	bl	2094 <__sinit>
    1e16:	4b20      	ldr	r3, [pc, #128]	; (1e98 <_fclose_r+0x98>)
    1e18:	429c      	cmp	r4, r3
    1e1a:	d101      	bne.n	1e20 <_fclose_r+0x20>
    1e1c:	686c      	ldr	r4, [r5, #4]
    1e1e:	e008      	b.n	1e32 <_fclose_r+0x32>
    1e20:	4b1e      	ldr	r3, [pc, #120]	; (1e9c <_fclose_r+0x9c>)
    1e22:	429c      	cmp	r4, r3
    1e24:	d101      	bne.n	1e2a <_fclose_r+0x2a>
    1e26:	68ac      	ldr	r4, [r5, #8]
    1e28:	e003      	b.n	1e32 <_fclose_r+0x32>
    1e2a:	4b1d      	ldr	r3, [pc, #116]	; (1ea0 <_fclose_r+0xa0>)
    1e2c:	429c      	cmp	r4, r3
    1e2e:	bf08      	it	eq
    1e30:	68ec      	ldreq	r4, [r5, #12]
    1e32:	f9b4 300c 	ldrsh.w	r3, [r4, #12]
    1e36:	2b00      	cmp	r3, #0
    1e38:	d0e6      	beq.n	1e08 <_fclose_r+0x8>
    1e3a:	4621      	mov	r1, r4
    1e3c:	4628      	mov	r0, r5
    1e3e:	f000 f839 	bl	1eb4 <__sflush_r>
    1e42:	6b23      	ldr	r3, [r4, #48]	; 0x30
    1e44:	4606      	mov	r6, r0
    1e46:	b133      	cbz	r3, 1e56 <_fclose_r+0x56>
    1e48:	6a21      	ldr	r1, [r4, #32]
    1e4a:	4628      	mov	r0, r5
    1e4c:	4798      	blx	r3
    1e4e:	2800      	cmp	r0, #0
    1e50:	bfb8      	it	lt
    1e52:	f04f 36ff 	movlt.w	r6, #4294967295
    1e56:	89a3      	ldrh	r3, [r4, #12]
    1e58:	061b      	lsls	r3, r3, #24
    1e5a:	d503      	bpl.n	1e64 <_fclose_r+0x64>
    1e5c:	6921      	ldr	r1, [r4, #16]
    1e5e:	4628      	mov	r0, r5
    1e60:	f000 fb5e 	bl	2520 <_free_r>
    1e64:	6b61      	ldr	r1, [r4, #52]	; 0x34
    1e66:	b141      	cbz	r1, 1e7a <_fclose_r+0x7a>
    1e68:	f104 0344 	add.w	r3, r4, #68	; 0x44
    1e6c:	4299      	cmp	r1, r3
    1e6e:	d002      	beq.n	1e76 <_fclose_r+0x76>
    1e70:	4628      	mov	r0, r5
    1e72:	f000 fb55 	bl	2520 <_free_r>
    1e76:	2300      	movs	r3, #0
    1e78:	6363      	str	r3, [r4, #52]	; 0x34
    1e7a:	6ca1      	ldr	r1, [r4, #72]	; 0x48
    1e7c:	b121      	cbz	r1, 1e88 <_fclose_r+0x88>
    1e7e:	4628      	mov	r0, r5
    1e80:	f000 fb4e 	bl	2520 <_free_r>
    1e84:	2300      	movs	r3, #0
    1e86:	64a3      	str	r3, [r4, #72]	; 0x48
    1e88:	f000 f970 	bl	216c <__sfp_lock_acquire>
    1e8c:	2300      	movs	r3, #0
    1e8e:	81a3      	strh	r3, [r4, #12]
    1e90:	f000 f96d 	bl	216e <__sfp_lock_release>
    1e94:	4630      	mov	r0, r6
    1e96:	bd70      	pop	{r4, r5, r6, pc}
    1e98:	000084ec 	.word	0x000084ec
    1e9c:	0000850c 	.word	0x0000850c
    1ea0:	0000852c 	.word	0x0000852c

00001ea4 <fclose>:
    1ea4:	4b02      	ldr	r3, [pc, #8]	; (1eb0 <fclose+0xc>)
    1ea6:	4601      	mov	r1, r0
    1ea8:	6818      	ldr	r0, [r3, #0]
    1eaa:	f7ff bfa9 	b.w	1e00 <_fclose_r>
    1eae:	bf00      	nop
    1eb0:	10000138 	.word	0x10000138

00001eb4 <__sflush_r>:
    1eb4:	898a      	ldrh	r2, [r1, #12]
    1eb6:	e92d 41f0 	stmdb	sp!, {r4, r5, r6, r7, r8, lr}
    1eba:	4605      	mov	r5, r0
    1ebc:	0710      	lsls	r0, r2, #28
    1ebe:	460c      	mov	r4, r1
    1ec0:	d459      	bmi.n	1f76 <__sflush_r+0xc2>
    1ec2:	684b      	ldr	r3, [r1, #4]
    1ec4:	2b00      	cmp	r3, #0
    1ec6:	dc02      	bgt.n	1ece <__sflush_r+0x1a>
    1ec8:	6c0b      	ldr	r3, [r1, #64]	; 0x40
    1eca:	2b00      	cmp	r3, #0
    1ecc:	dd17      	ble.n	1efe <__sflush_r+0x4a>
    1ece:	6ae6      	ldr	r6, [r4, #44]	; 0x2c
    1ed0:	b1ae      	cbz	r6, 1efe <__sflush_r+0x4a>
    1ed2:	f402 5280 	and.w	r2, r2, #4096	; 0x1000
    1ed6:	2300      	movs	r3, #0
    1ed8:	b292      	uxth	r2, r2
    1eda:	682f      	ldr	r7, [r5, #0]
    1edc:	602b      	str	r3, [r5, #0]
    1ede:	b10a      	cbz	r2, 1ee4 <__sflush_r+0x30>
    1ee0:	6d60      	ldr	r0, [r4, #84]	; 0x54
    1ee2:	e015      	b.n	1f10 <__sflush_r+0x5c>
    1ee4:	6a21      	ldr	r1, [r4, #32]
    1ee6:	2301      	movs	r3, #1
    1ee8:	4628      	mov	r0, r5
    1eea:	47b0      	blx	r6
    1eec:	1c41      	adds	r1, r0, #1
    1eee:	d10f      	bne.n	1f10 <__sflush_r+0x5c>
    1ef0:	682b      	ldr	r3, [r5, #0]
    1ef2:	b16b      	cbz	r3, 1f10 <__sflush_r+0x5c>
    1ef4:	2b1d      	cmp	r3, #29
    1ef6:	d001      	beq.n	1efc <__sflush_r+0x48>
    1ef8:	2b16      	cmp	r3, #22
    1efa:	d103      	bne.n	1f04 <__sflush_r+0x50>
    1efc:	602f      	str	r7, [r5, #0]
    1efe:	2000      	movs	r0, #0
    1f00:	e8bd 81f0 	ldmia.w	sp!, {r4, r5, r6, r7, r8, pc}
    1f04:	89a3      	ldrh	r3, [r4, #12]
    1f06:	f043 0340 	orr.w	r3, r3, #64	; 0x40
    1f0a:	81a3      	strh	r3, [r4, #12]
    1f0c:	e8bd 81f0 	ldmia.w	sp!, {r4, r5, r6, r7, r8, pc}
    1f10:	89a3      	ldrh	r3, [r4, #12]
    1f12:	075a      	lsls	r2, r3, #29
    1f14:	d505      	bpl.n	1f22 <__sflush_r+0x6e>
    1f16:	6863      	ldr	r3, [r4, #4]
    1f18:	1ac0      	subs	r0, r0, r3
    1f1a:	6b63      	ldr	r3, [r4, #52]	; 0x34
    1f1c:	b10b      	cbz	r3, 1f22 <__sflush_r+0x6e>
    1f1e:	6c23      	ldr	r3, [r4, #64]	; 0x40
    1f20:	1ac0      	subs	r0, r0, r3
    1f22:	2300      	movs	r3, #0
    1f24:	4602      	mov	r2, r0
    1f26:	6ae6      	ldr	r6, [r4, #44]	; 0x2c
    1f28:	6a21      	ldr	r1, [r4, #32]
    1f2a:	4628      	mov	r0, r5
    1f2c:	47b0      	blx	r6
    1f2e:	1c43      	adds	r3, r0, #1
    1f30:	89a3      	ldrh	r3, [r4, #12]
    1f32:	d106      	bne.n	1f42 <__sflush_r+0x8e>
    1f34:	6829      	ldr	r1, [r5, #0]
    1f36:	291d      	cmp	r1, #29
    1f38:	d839      	bhi.n	1fae <__sflush_r+0xfa>
    1f3a:	4a20      	ldr	r2, [pc, #128]	; (1fbc <__sflush_r+0x108>)
    1f3c:	40ca      	lsrs	r2, r1
    1f3e:	07d6      	lsls	r6, r2, #31
    1f40:	d535      	bpl.n	1fae <__sflush_r+0xfa>
    1f42:	2200      	movs	r2, #0
    1f44:	6062      	str	r2, [r4, #4]
    1f46:	6922      	ldr	r2, [r4, #16]
    1f48:	04d9      	lsls	r1, r3, #19
    1f4a:	6022      	str	r2, [r4, #0]
    1f4c:	d504      	bpl.n	1f58 <__sflush_r+0xa4>
    1f4e:	1c42      	adds	r2, r0, #1
    1f50:	d101      	bne.n	1f56 <__sflush_r+0xa2>
    1f52:	682b      	ldr	r3, [r5, #0]
    1f54:	b903      	cbnz	r3, 1f58 <__sflush_r+0xa4>
    1f56:	6560      	str	r0, [r4, #84]	; 0x54
    1f58:	6b61      	ldr	r1, [r4, #52]	; 0x34
    1f5a:	602f      	str	r7, [r5, #0]
    1f5c:	2900      	cmp	r1, #0
    1f5e:	d0ce      	beq.n	1efe <__sflush_r+0x4a>
    1f60:	f104 0344 	add.w	r3, r4, #68	; 0x44
    1f64:	4299      	cmp	r1, r3
    1f66:	d002      	beq.n	1f6e <__sflush_r+0xba>
    1f68:	4628      	mov	r0, r5
    1f6a:	f000 fad9 	bl	2520 <_free_r>
    1f6e:	2000      	movs	r0, #0
    1f70:	6360      	str	r0, [r4, #52]	; 0x34
    1f72:	e8bd 81f0 	ldmia.w	sp!, {r4, r5, r6, r7, r8, pc}
    1f76:	690f      	ldr	r7, [r1, #16]
    1f78:	2f00      	cmp	r7, #0
    1f7a:	d0c0      	beq.n	1efe <__sflush_r+0x4a>
    1f7c:	0793      	lsls	r3, r2, #30
    1f7e:	680e      	ldr	r6, [r1, #0]
    1f80:	bf0c      	ite	eq
    1f82:	694b      	ldreq	r3, [r1, #20]
    1f84:	2300      	movne	r3, #0
    1f86:	ebc7 0806 	rsb	r8, r7, r6
    1f8a:	600f      	str	r7, [r1, #0]
    1f8c:	608b      	str	r3, [r1, #8]
    1f8e:	e002      	b.n	1f96 <__sflush_r+0xe2>
    1f90:	4407      	add	r7, r0
    1f92:	ebc0 0808 	rsb	r8, r0, r8
    1f96:	f1b8 0f00 	cmp.w	r8, #0
    1f9a:	ddb0      	ble.n	1efe <__sflush_r+0x4a>
    1f9c:	4643      	mov	r3, r8
    1f9e:	463a      	mov	r2, r7
    1fa0:	6a21      	ldr	r1, [r4, #32]
    1fa2:	4628      	mov	r0, r5
    1fa4:	6aa6      	ldr	r6, [r4, #40]	; 0x28
    1fa6:	47b0      	blx	r6
    1fa8:	2800      	cmp	r0, #0
    1faa:	dcf1      	bgt.n	1f90 <__sflush_r+0xdc>
    1fac:	89a3      	ldrh	r3, [r4, #12]
    1fae:	f043 0340 	orr.w	r3, r3, #64	; 0x40
    1fb2:	81a3      	strh	r3, [r4, #12]
    1fb4:	f04f 30ff 	mov.w	r0, #4294967295
    1fb8:	e8bd 81f0 	ldmia.w	sp!, {r4, r5, r6, r7, r8, pc}
    1fbc:	20400001 	.word	0x20400001

00001fc0 <_fflush_r>:
    1fc0:	b538      	push	{r3, r4, r5, lr}
    1fc2:	690b      	ldr	r3, [r1, #16]
    1fc4:	4605      	mov	r5, r0
    1fc6:	460c      	mov	r4, r1
    1fc8:	b1db      	cbz	r3, 2002 <_fflush_r+0x42>
    1fca:	b118      	cbz	r0, 1fd4 <_fflush_r+0x14>
    1fcc:	6983      	ldr	r3, [r0, #24]
    1fce:	b90b      	cbnz	r3, 1fd4 <_fflush_r+0x14>
    1fd0:	f000 f860 	bl	2094 <__sinit>
    1fd4:	4b0c      	ldr	r3, [pc, #48]	; (2008 <_fflush_r+0x48>)
    1fd6:	429c      	cmp	r4, r3
    1fd8:	d101      	bne.n	1fde <_fflush_r+0x1e>
    1fda:	686c      	ldr	r4, [r5, #4]
    1fdc:	e008      	b.n	1ff0 <_fflush_r+0x30>
    1fde:	4b0b      	ldr	r3, [pc, #44]	; (200c <_fflush_r+0x4c>)
    1fe0:	429c      	cmp	r4, r3
    1fe2:	d101      	bne.n	1fe8 <_fflush_r+0x28>
    1fe4:	68ac      	ldr	r4, [r5, #8]
    1fe6:	e003      	b.n	1ff0 <_fflush_r+0x30>
    1fe8:	4b09      	ldr	r3, [pc, #36]	; (2010 <_fflush_r+0x50>)
    1fea:	429c      	cmp	r4, r3
    1fec:	bf08      	it	eq
    1fee:	68ec      	ldreq	r4, [r5, #12]
    1ff0:	f9b4 300c 	ldrsh.w	r3, [r4, #12]
    1ff4:	b12b      	cbz	r3, 2002 <_fflush_r+0x42>
    1ff6:	4621      	mov	r1, r4
    1ff8:	4628      	mov	r0, r5
    1ffa:	e8bd 4038 	ldmia.w	sp!, {r3, r4, r5, lr}
    1ffe:	f7ff bf59 	b.w	1eb4 <__sflush_r>
    2002:	2000      	movs	r0, #0
    2004:	bd38      	pop	{r3, r4, r5, pc}
    2006:	bf00      	nop
    2008:	000084ec 	.word	0x000084ec
    200c:	0000850c 	.word	0x0000850c
    2010:	0000852c 	.word	0x0000852c

00002014 <_cleanup_r>:
    2014:	4901      	ldr	r1, [pc, #4]	; (201c <_cleanup_r+0x8>)
    2016:	f000 b993 	b.w	2340 <_fwalk_reent>
    201a:	bf00      	nop
    201c:	00001fc1 	.word	0x00001fc1

00002020 <std.isra.0>:
    2020:	b510      	push	{r4, lr}
    2022:	4604      	mov	r4, r0
    2024:	2300      	movs	r3, #0
    2026:	6003      	str	r3, [r0, #0]
    2028:	6043      	str	r3, [r0, #4]
    202a:	6083      	str	r3, [r0, #8]
    202c:	8181      	strh	r1, [r0, #12]
    202e:	6643      	str	r3, [r0, #100]	; 0x64
    2030:	81c2      	strh	r2, [r0, #14]
    2032:	6103      	str	r3, [r0, #16]
    2034:	6143      	str	r3, [r0, #20]
    2036:	6183      	str	r3, [r0, #24]
    2038:	4619      	mov	r1, r3
    203a:	2208      	movs	r2, #8
    203c:	305c      	adds	r0, #92	; 0x5c
    203e:	f000 fa67 	bl	2510 <memset>
    2042:	4b05      	ldr	r3, [pc, #20]	; (2058 <std.isra.0+0x38>)
    2044:	6224      	str	r4, [r4, #32]
    2046:	6263      	str	r3, [r4, #36]	; 0x24
    2048:	4b04      	ldr	r3, [pc, #16]	; (205c <std.isra.0+0x3c>)
    204a:	62a3      	str	r3, [r4, #40]	; 0x28
    204c:	4b04      	ldr	r3, [pc, #16]	; (2060 <std.isra.0+0x40>)
    204e:	62e3      	str	r3, [r4, #44]	; 0x2c
    2050:	4b04      	ldr	r3, [pc, #16]	; (2064 <std.isra.0+0x44>)
    2052:	6323      	str	r3, [r4, #48]	; 0x30
    2054:	bd10      	pop	{r4, pc}
    2056:	bf00      	nop
    2058:	00003b85 	.word	0x00003b85
    205c:	00003bab 	.word	0x00003bab
    2060:	00003be3 	.word	0x00003be3
    2064:	00003c07 	.word	0x00003c07

00002068 <__sfmoreglue>:
    2068:	b570      	push	{r4, r5, r6, lr}
    206a:	2368      	movs	r3, #104	; 0x68
    206c:	1e4d      	subs	r5, r1, #1
    206e:	435d      	muls	r5, r3
    2070:	460e      	mov	r6, r1
    2072:	f105 0174 	add.w	r1, r5, #116	; 0x74
    2076:	f000 fa9f 	bl	25b8 <_malloc_r>
    207a:	4604      	mov	r4, r0
    207c:	b140      	cbz	r0, 2090 <__sfmoreglue+0x28>
    207e:	2100      	movs	r1, #0
    2080:	e880 0042 	stmia.w	r0, {r1, r6}
    2084:	300c      	adds	r0, #12
    2086:	60a0      	str	r0, [r4, #8]
    2088:	f105 0268 	add.w	r2, r5, #104	; 0x68
    208c:	f000 fa40 	bl	2510 <memset>
    2090:	4620      	mov	r0, r4
    2092:	bd70      	pop	{r4, r5, r6, pc}

00002094 <__sinit>:
    2094:	6983      	ldr	r3, [r0, #24]
    2096:	b510      	push	{r4, lr}
    2098:	4604      	mov	r4, r0
    209a:	bb33      	cbnz	r3, 20ea <__sinit+0x56>
    209c:	6483      	str	r3, [r0, #72]	; 0x48
    209e:	64c3      	str	r3, [r0, #76]	; 0x4c
    20a0:	6503      	str	r3, [r0, #80]	; 0x50
    20a2:	4b12      	ldr	r3, [pc, #72]	; (20ec <__sinit+0x58>)
    20a4:	4a12      	ldr	r2, [pc, #72]	; (20f0 <__sinit+0x5c>)
    20a6:	681b      	ldr	r3, [r3, #0]
    20a8:	6282      	str	r2, [r0, #40]	; 0x28
    20aa:	4298      	cmp	r0, r3
    20ac:	bf04      	itt	eq
    20ae:	2301      	moveq	r3, #1
    20b0:	6183      	streq	r3, [r0, #24]
    20b2:	f000 f81f 	bl	20f4 <__sfp>
    20b6:	6060      	str	r0, [r4, #4]
    20b8:	4620      	mov	r0, r4
    20ba:	f000 f81b 	bl	20f4 <__sfp>
    20be:	60a0      	str	r0, [r4, #8]
    20c0:	4620      	mov	r0, r4
    20c2:	f000 f817 	bl	20f4 <__sfp>
    20c6:	2200      	movs	r2, #0
    20c8:	60e0      	str	r0, [r4, #12]
    20ca:	2104      	movs	r1, #4
    20cc:	6860      	ldr	r0, [r4, #4]
    20ce:	f7ff ffa7 	bl	2020 <std.isra.0>
    20d2:	2201      	movs	r2, #1
    20d4:	2109      	movs	r1, #9
    20d6:	68a0      	ldr	r0, [r4, #8]
    20d8:	f7ff ffa2 	bl	2020 <std.isra.0>
    20dc:	2202      	movs	r2, #2
    20de:	2112      	movs	r1, #18
    20e0:	68e0      	ldr	r0, [r4, #12]
    20e2:	f7ff ff9d 	bl	2020 <std.isra.0>
    20e6:	2301      	movs	r3, #1
    20e8:	61a3      	str	r3, [r4, #24]
    20ea:	bd10      	pop	{r4, pc}
    20ec:	0000854c 	.word	0x0000854c
    20f0:	00002015 	.word	0x00002015

000020f4 <__sfp>:
    20f4:	b5f8      	push	{r3, r4, r5, r6, r7, lr}
    20f6:	4b1c      	ldr	r3, [pc, #112]	; (2168 <__sfp+0x74>)
    20f8:	4607      	mov	r7, r0
    20fa:	681e      	ldr	r6, [r3, #0]
    20fc:	69b3      	ldr	r3, [r6, #24]
    20fe:	b913      	cbnz	r3, 2106 <__sfp+0x12>
    2100:	4630      	mov	r0, r6
    2102:	f7ff ffc7 	bl	2094 <__sinit>
    2106:	3648      	adds	r6, #72	; 0x48
    2108:	68b4      	ldr	r4, [r6, #8]
    210a:	6873      	ldr	r3, [r6, #4]
    210c:	3b01      	subs	r3, #1
    210e:	d404      	bmi.n	211a <__sfp+0x26>
    2110:	f9b4 500c 	ldrsh.w	r5, [r4, #12]
    2114:	b17d      	cbz	r5, 2136 <__sfp+0x42>
    2116:	3468      	adds	r4, #104	; 0x68
    2118:	e7f8      	b.n	210c <__sfp+0x18>
    211a:	6833      	ldr	r3, [r6, #0]
    211c:	b10b      	cbz	r3, 2122 <__sfp+0x2e>
    211e:	6836      	ldr	r6, [r6, #0]
    2120:	e7f2      	b.n	2108 <__sfp+0x14>
    2122:	2104      	movs	r1, #4
    2124:	4638      	mov	r0, r7
    2126:	f7ff ff9f 	bl	2068 <__sfmoreglue>
    212a:	6030      	str	r0, [r6, #0]
    212c:	2800      	cmp	r0, #0
    212e:	d1f6      	bne.n	211e <__sfp+0x2a>
    2130:	230c      	movs	r3, #12
    2132:	603b      	str	r3, [r7, #0]
    2134:	bdf8      	pop	{r3, r4, r5, r6, r7, pc}
    2136:	f64f 73ff 	movw	r3, #65535	; 0xffff
    213a:	81e3      	strh	r3, [r4, #14]
    213c:	2301      	movs	r3, #1
    213e:	81a3      	strh	r3, [r4, #12]
    2140:	6665      	str	r5, [r4, #100]	; 0x64
    2142:	6025      	str	r5, [r4, #0]
    2144:	60a5      	str	r5, [r4, #8]
    2146:	6065      	str	r5, [r4, #4]
    2148:	6125      	str	r5, [r4, #16]
    214a:	6165      	str	r5, [r4, #20]
    214c:	61a5      	str	r5, [r4, #24]
    214e:	2208      	movs	r2, #8
    2150:	4629      	mov	r1, r5
    2152:	f104 005c 	add.w	r0, r4, #92	; 0x5c
    2156:	f000 f9db 	bl	2510 <memset>
    215a:	6365      	str	r5, [r4, #52]	; 0x34
    215c:	63a5      	str	r5, [r4, #56]	; 0x38
    215e:	64a5      	str	r5, [r4, #72]	; 0x48
    2160:	64e5      	str	r5, [r4, #76]	; 0x4c
    2162:	4620      	mov	r0, r4
    2164:	bdf8      	pop	{r3, r4, r5, r6, r7, pc}
    2166:	bf00      	nop
    2168:	0000854c 	.word	0x0000854c

0000216c <__sfp_lock_acquire>:
    216c:	4770      	bx	lr

0000216e <__sfp_lock_release>:
    216e:	4770      	bx	lr

00002170 <_fopen_r>:
    2170:	b5f7      	push	{r0, r1, r2, r4, r5, r6, r7, lr}
    2172:	460f      	mov	r7, r1
    2174:	4611      	mov	r1, r2
    2176:	aa01      	add	r2, sp, #4
    2178:	4605      	mov	r5, r0
    217a:	f003 fc05 	bl	5988 <__sflags>
    217e:	4606      	mov	r6, r0
    2180:	b908      	cbnz	r0, 2186 <_fopen_r+0x16>
    2182:	2000      	movs	r0, #0
    2184:	e029      	b.n	21da <_fopen_r+0x6a>
    2186:	4628      	mov	r0, r5
    2188:	f7ff ffb4 	bl	20f4 <__sfp>
    218c:	4604      	mov	r4, r0
    218e:	2800      	cmp	r0, #0
    2190:	d0f7      	beq.n	2182 <_fopen_r+0x12>
    2192:	f44f 73db 	mov.w	r3, #438	; 0x1b6
    2196:	9a01      	ldr	r2, [sp, #4]
    2198:	4639      	mov	r1, r7
    219a:	4628      	mov	r0, r5
    219c:	f001 fb56 	bl	384c <_open_r>
    21a0:	2800      	cmp	r0, #0
    21a2:	da06      	bge.n	21b2 <_fopen_r+0x42>
    21a4:	2500      	movs	r5, #0
    21a6:	f7ff ffe1 	bl	216c <__sfp_lock_acquire>
    21aa:	81a5      	strh	r5, [r4, #12]
    21ac:	f7ff ffdf 	bl	216e <__sfp_lock_release>
    21b0:	e7e7      	b.n	2182 <_fopen_r+0x12>
    21b2:	4b0b      	ldr	r3, [pc, #44]	; (21e0 <_fopen_r+0x70>)
    21b4:	81e0      	strh	r0, [r4, #14]
    21b6:	6263      	str	r3, [r4, #36]	; 0x24
    21b8:	4b0a      	ldr	r3, [pc, #40]	; (21e4 <_fopen_r+0x74>)
    21ba:	81a6      	strh	r6, [r4, #12]
    21bc:	62a3      	str	r3, [r4, #40]	; 0x28
    21be:	4b0a      	ldr	r3, [pc, #40]	; (21e8 <_fopen_r+0x78>)
    21c0:	6224      	str	r4, [r4, #32]
    21c2:	62e3      	str	r3, [r4, #44]	; 0x2c
    21c4:	4b09      	ldr	r3, [pc, #36]	; (21ec <_fopen_r+0x7c>)
    21c6:	6323      	str	r3, [r4, #48]	; 0x30
    21c8:	05f3      	lsls	r3, r6, #23
    21ca:	d505      	bpl.n	21d8 <_fopen_r+0x68>
    21cc:	2302      	movs	r3, #2
    21ce:	2200      	movs	r2, #0
    21d0:	4621      	mov	r1, r4
    21d2:	4628      	mov	r0, r5
    21d4:	f000 f826 	bl	2224 <_fseek_r>
    21d8:	4620      	mov	r0, r4
    21da:	b003      	add	sp, #12
    21dc:	bdf0      	pop	{r4, r5, r6, r7, pc}
    21de:	bf00      	nop
    21e0:	00003b85 	.word	0x00003b85
    21e4:	00003bab 	.word	0x00003bab
    21e8:	00003be3 	.word	0x00003be3
    21ec:	00003c07 	.word	0x00003c07

000021f0 <fopen>:
    21f0:	4b02      	ldr	r3, [pc, #8]	; (21fc <fopen+0xc>)
    21f2:	460a      	mov	r2, r1
    21f4:	4601      	mov	r1, r0
    21f6:	6818      	ldr	r0, [r3, #0]
    21f8:	f7ff bfba 	b.w	2170 <_fopen_r>
    21fc:	10000138 	.word	0x10000138

00002200 <fiprintf>:
    2200:	b40e      	push	{r1, r2, r3}
    2202:	b503      	push	{r0, r1, lr}
    2204:	4601      	mov	r1, r0
    2206:	ab03      	add	r3, sp, #12
    2208:	4805      	ldr	r0, [pc, #20]	; (2220 <fiprintf+0x20>)
    220a:	f853 2b04 	ldr.w	r2, [r3], #4
    220e:	6800      	ldr	r0, [r0, #0]
    2210:	9301      	str	r3, [sp, #4]
    2212:	f000 fa57 	bl	26c4 <_vfiprintf_r>
    2216:	b002      	add	sp, #8
    2218:	f85d eb04 	ldr.w	lr, [sp], #4
    221c:	b003      	add	sp, #12
    221e:	4770      	bx	lr
    2220:	10000138 	.word	0x10000138

00002224 <_fseek_r>:
    2224:	f000 b800 	b.w	2228 <_fseeko_r>

00002228 <_fseeko_r>:
    2228:	e92d 43f8 	stmdb	sp!, {r3, r4, r5, r6, r7, r8, r9, lr}
    222c:	460c      	mov	r4, r1
    222e:	4690      	mov	r8, r2
    2230:	461e      	mov	r6, r3
    2232:	4605      	mov	r5, r0
    2234:	b118      	cbz	r0, 223e <_fseeko_r+0x16>
    2236:	6983      	ldr	r3, [r0, #24]
    2238:	b90b      	cbnz	r3, 223e <_fseeko_r+0x16>
    223a:	f7ff ff2b 	bl	2094 <__sinit>
    223e:	4b3d      	ldr	r3, [pc, #244]	; (2334 <_fseeko_r+0x10c>)
    2240:	429c      	cmp	r4, r3
    2242:	d101      	bne.n	2248 <_fseeko_r+0x20>
    2244:	686c      	ldr	r4, [r5, #4]
    2246:	e008      	b.n	225a <_fseeko_r+0x32>
    2248:	4b3b      	ldr	r3, [pc, #236]	; (2338 <_fseeko_r+0x110>)
    224a:	429c      	cmp	r4, r3
    224c:	d101      	bne.n	2252 <_fseeko_r+0x2a>
    224e:	68ac      	ldr	r4, [r5, #8]
    2250:	e003      	b.n	225a <_fseeko_r+0x32>
    2252:	4b3a      	ldr	r3, [pc, #232]	; (233c <_fseeko_r+0x114>)
    2254:	429c      	cmp	r4, r3
    2256:	bf08      	it	eq
    2258:	68ec      	ldreq	r4, [r5, #12]
    225a:	89a3      	ldrh	r3, [r4, #12]
    225c:	f403 7384 	and.w	r3, r3, #264	; 0x108
    2260:	f5b3 7f84 	cmp.w	r3, #264	; 0x108
    2264:	d103      	bne.n	226e <_fseeko_r+0x46>
    2266:	4621      	mov	r1, r4
    2268:	4628      	mov	r0, r5
    226a:	f7ff fea9 	bl	1fc0 <_fflush_r>
    226e:	6ae7      	ldr	r7, [r4, #44]	; 0x2c
    2270:	b90f      	cbnz	r7, 2276 <_fseeko_r+0x4e>
    2272:	231d      	movs	r3, #29
    2274:	e02b      	b.n	22ce <_fseeko_r+0xa6>
    2276:	2e01      	cmp	r6, #1
    2278:	d004      	beq.n	2284 <_fseeko_r+0x5c>
    227a:	2e02      	cmp	r6, #2
    227c:	d02b      	beq.n	22d6 <_fseeko_r+0xae>
    227e:	b356      	cbz	r6, 22d6 <_fseeko_r+0xae>
    2280:	2316      	movs	r3, #22
    2282:	e024      	b.n	22ce <_fseeko_r+0xa6>
    2284:	4621      	mov	r1, r4
    2286:	4628      	mov	r0, r5
    2288:	f7ff fe9a 	bl	1fc0 <_fflush_r>
    228c:	89a2      	ldrh	r2, [r4, #12]
    228e:	f402 5280 	and.w	r2, r2, #4096	; 0x1000
    2292:	b292      	uxth	r2, r2
    2294:	b10a      	cbz	r2, 229a <_fseeko_r+0x72>
    2296:	6d60      	ldr	r0, [r4, #84]	; 0x54
    2298:	e005      	b.n	22a6 <_fseeko_r+0x7e>
    229a:	6a21      	ldr	r1, [r4, #32]
    229c:	4633      	mov	r3, r6
    229e:	4628      	mov	r0, r5
    22a0:	47b8      	blx	r7
    22a2:	1c41      	adds	r1, r0, #1
    22a4:	d014      	beq.n	22d0 <_fseeko_r+0xa8>
    22a6:	89a3      	ldrh	r3, [r4, #12]
    22a8:	075a      	lsls	r2, r3, #29
    22aa:	d506      	bpl.n	22ba <_fseeko_r+0x92>
    22ac:	6863      	ldr	r3, [r4, #4]
    22ae:	1ac0      	subs	r0, r0, r3
    22b0:	6b63      	ldr	r3, [r4, #52]	; 0x34
    22b2:	b14b      	cbz	r3, 22c8 <_fseeko_r+0xa0>
    22b4:	6c23      	ldr	r3, [r4, #64]	; 0x40
    22b6:	1ac0      	subs	r0, r0, r3
    22b8:	e006      	b.n	22c8 <_fseeko_r+0xa0>
    22ba:	071b      	lsls	r3, r3, #28
    22bc:	d504      	bpl.n	22c8 <_fseeko_r+0xa0>
    22be:	6823      	ldr	r3, [r4, #0]
    22c0:	b113      	cbz	r3, 22c8 <_fseeko_r+0xa0>
    22c2:	6922      	ldr	r2, [r4, #16]
    22c4:	1a9b      	subs	r3, r3, r2
    22c6:	4418      	add	r0, r3
    22c8:	4480      	add	r8, r0
    22ca:	2600      	movs	r6, #0
    22cc:	e003      	b.n	22d6 <_fseeko_r+0xae>
    22ce:	602b      	str	r3, [r5, #0]
    22d0:	f04f 39ff 	mov.w	r9, #4294967295
    22d4:	e02b      	b.n	232e <_fseeko_r+0x106>
    22d6:	6923      	ldr	r3, [r4, #16]
    22d8:	b91b      	cbnz	r3, 22e2 <_fseeko_r+0xba>
    22da:	4621      	mov	r1, r4
    22dc:	4628      	mov	r0, r5
    22de:	f000 f897 	bl	2410 <__smakebuf_r>
    22e2:	4621      	mov	r1, r4
    22e4:	4628      	mov	r0, r5
    22e6:	f7ff fe6b 	bl	1fc0 <_fflush_r>
    22ea:	4681      	mov	r9, r0
    22ec:	2800      	cmp	r0, #0
    22ee:	d1ef      	bne.n	22d0 <_fseeko_r+0xa8>
    22f0:	4633      	mov	r3, r6
    22f2:	4642      	mov	r2, r8
    22f4:	6a21      	ldr	r1, [r4, #32]
    22f6:	4628      	mov	r0, r5
    22f8:	47b8      	blx	r7
    22fa:	3001      	adds	r0, #1
    22fc:	d0e8      	beq.n	22d0 <_fseeko_r+0xa8>
    22fe:	6b61      	ldr	r1, [r4, #52]	; 0x34
    2300:	b141      	cbz	r1, 2314 <_fseeko_r+0xec>
    2302:	f104 0344 	add.w	r3, r4, #68	; 0x44
    2306:	4299      	cmp	r1, r3
    2308:	d002      	beq.n	2310 <_fseeko_r+0xe8>
    230a:	4628      	mov	r0, r5
    230c:	f000 f908 	bl	2520 <_free_r>
    2310:	2300      	movs	r3, #0
    2312:	6363      	str	r3, [r4, #52]	; 0x34
    2314:	6923      	ldr	r3, [r4, #16]
    2316:	2100      	movs	r1, #0
    2318:	6023      	str	r3, [r4, #0]
    231a:	89a3      	ldrh	r3, [r4, #12]
    231c:	6061      	str	r1, [r4, #4]
    231e:	f423 6302 	bic.w	r3, r3, #2080	; 0x820
    2322:	81a3      	strh	r3, [r4, #12]
    2324:	2208      	movs	r2, #8
    2326:	f104 005c 	add.w	r0, r4, #92	; 0x5c
    232a:	f000 f8f1 	bl	2510 <memset>
    232e:	4648      	mov	r0, r9
    2330:	e8bd 83f8 	ldmia.w	sp!, {r3, r4, r5, r6, r7, r8, r9, pc}
    2334:	000084ec 	.word	0x000084ec
    2338:	0000850c 	.word	0x0000850c
    233c:	0000852c 	.word	0x0000852c

00002340 <_fwalk_reent>:
    2340:	e92d 43f8 	stmdb	sp!, {r3, r4, r5, r6, r7, r8, r9, lr}
    2344:	4680      	mov	r8, r0
    2346:	4689      	mov	r9, r1
    2348:	f100 0448 	add.w	r4, r0, #72	; 0x48
    234c:	2600      	movs	r6, #0
    234e:	b194      	cbz	r4, 2376 <_fwalk_reent+0x36>
    2350:	68a5      	ldr	r5, [r4, #8]
    2352:	6867      	ldr	r7, [r4, #4]
    2354:	3f01      	subs	r7, #1
    2356:	d40c      	bmi.n	2372 <_fwalk_reent+0x32>
    2358:	89ab      	ldrh	r3, [r5, #12]
    235a:	2b01      	cmp	r3, #1
    235c:	d907      	bls.n	236e <_fwalk_reent+0x2e>
    235e:	f9b5 300e 	ldrsh.w	r3, [r5, #14]
    2362:	3301      	adds	r3, #1
    2364:	d003      	beq.n	236e <_fwalk_reent+0x2e>
    2366:	4629      	mov	r1, r5
    2368:	4640      	mov	r0, r8
    236a:	47c8      	blx	r9
    236c:	4306      	orrs	r6, r0
    236e:	3568      	adds	r5, #104	; 0x68
    2370:	e7f0      	b.n	2354 <_fwalk_reent+0x14>
    2372:	6824      	ldr	r4, [r4, #0]
    2374:	e7eb      	b.n	234e <_fwalk_reent+0xe>
    2376:	4630      	mov	r0, r6
    2378:	e8bd 83f8 	ldmia.w	sp!, {r3, r4, r5, r6, r7, r8, r9, pc}

0000237c <__libc_init_array>:
    237c:	4b0e      	ldr	r3, [pc, #56]	; (23b8 <__libc_init_array+0x3c>)
    237e:	b570      	push	{r4, r5, r6, lr}
    2380:	461e      	mov	r6, r3
    2382:	4c0e      	ldr	r4, [pc, #56]	; (23bc <__libc_init_array+0x40>)
    2384:	2500      	movs	r5, #0
    2386:	1ae4      	subs	r4, r4, r3
    2388:	10a4      	asrs	r4, r4, #2
    238a:	42a5      	cmp	r5, r4
    238c:	d004      	beq.n	2398 <__libc_init_array+0x1c>
    238e:	f856 3025 	ldr.w	r3, [r6, r5, lsl #2]
    2392:	4798      	blx	r3
    2394:	3501      	adds	r5, #1
    2396:	e7f8      	b.n	238a <__libc_init_array+0xe>
    2398:	f005 fe12 	bl	7fc0 <_init>
    239c:	4b08      	ldr	r3, [pc, #32]	; (23c0 <__libc_init_array+0x44>)
    239e:	4c09      	ldr	r4, [pc, #36]	; (23c4 <__libc_init_array+0x48>)
    23a0:	461e      	mov	r6, r3
    23a2:	1ae4      	subs	r4, r4, r3
    23a4:	10a4      	asrs	r4, r4, #2
    23a6:	2500      	movs	r5, #0
    23a8:	42a5      	cmp	r5, r4
    23aa:	d004      	beq.n	23b6 <__libc_init_array+0x3a>
    23ac:	f856 3025 	ldr.w	r3, [r6, r5, lsl #2]
    23b0:	4798      	blx	r3
    23b2:	3501      	adds	r5, #1
    23b4:	e7f8      	b.n	23a8 <__libc_init_array+0x2c>
    23b6:	bd70      	pop	{r4, r5, r6, pc}
    23b8:	100002a8 	.word	0x100002a8
    23bc:	100002a8 	.word	0x100002a8
    23c0:	100002a8 	.word	0x100002a8
    23c4:	100002b0 	.word	0x100002b0

000023c8 <__swhatbuf_r>:
    23c8:	b570      	push	{r4, r5, r6, lr}
    23ca:	460e      	mov	r6, r1
    23cc:	f9b1 100e 	ldrsh.w	r1, [r1, #14]
    23d0:	b090      	sub	sp, #64	; 0x40
    23d2:	2900      	cmp	r1, #0
    23d4:	4614      	mov	r4, r2
    23d6:	461d      	mov	r5, r3
    23d8:	da06      	bge.n	23e8 <__swhatbuf_r+0x20>
    23da:	2300      	movs	r3, #0
    23dc:	602b      	str	r3, [r5, #0]
    23de:	89b3      	ldrh	r3, [r6, #12]
    23e0:	061a      	lsls	r2, r3, #24
    23e2:	d50e      	bpl.n	2402 <__swhatbuf_r+0x3a>
    23e4:	2340      	movs	r3, #64	; 0x40
    23e6:	e00e      	b.n	2406 <__swhatbuf_r+0x3e>
    23e8:	aa01      	add	r2, sp, #4
    23ea:	f003 fb05 	bl	59f8 <_fstat_r>
    23ee:	2800      	cmp	r0, #0
    23f0:	dbf3      	blt.n	23da <__swhatbuf_r+0x12>
    23f2:	9a02      	ldr	r2, [sp, #8]
    23f4:	f402 4270 	and.w	r2, r2, #61440	; 0xf000
    23f8:	f5a2 5300 	sub.w	r3, r2, #8192	; 0x2000
    23fc:	425a      	negs	r2, r3
    23fe:	415a      	adcs	r2, r3
    2400:	602a      	str	r2, [r5, #0]
    2402:	f44f 6380 	mov.w	r3, #1024	; 0x400
    2406:	2000      	movs	r0, #0
    2408:	6023      	str	r3, [r4, #0]
    240a:	b010      	add	sp, #64	; 0x40
    240c:	bd70      	pop	{r4, r5, r6, pc}
	...

00002410 <__smakebuf_r>:
    2410:	898b      	ldrh	r3, [r1, #12]
    2412:	b573      	push	{r0, r1, r4, r5, r6, lr}
    2414:	079e      	lsls	r6, r3, #30
    2416:	4605      	mov	r5, r0
    2418:	460c      	mov	r4, r1
    241a:	d410      	bmi.n	243e <__smakebuf_r+0x2e>
    241c:	ab01      	add	r3, sp, #4
    241e:	466a      	mov	r2, sp
    2420:	f7ff ffd2 	bl	23c8 <__swhatbuf_r>
    2424:	9900      	ldr	r1, [sp, #0]
    2426:	4606      	mov	r6, r0
    2428:	4628      	mov	r0, r5
    242a:	f000 f8c5 	bl	25b8 <_malloc_r>
    242e:	b968      	cbnz	r0, 244c <__smakebuf_r+0x3c>
    2430:	f9b4 300c 	ldrsh.w	r3, [r4, #12]
    2434:	059a      	lsls	r2, r3, #22
    2436:	d422      	bmi.n	247e <__smakebuf_r+0x6e>
    2438:	f043 0302 	orr.w	r3, r3, #2
    243c:	81a3      	strh	r3, [r4, #12]
    243e:	f104 0347 	add.w	r3, r4, #71	; 0x47
    2442:	6023      	str	r3, [r4, #0]
    2444:	6123      	str	r3, [r4, #16]
    2446:	2301      	movs	r3, #1
    2448:	6163      	str	r3, [r4, #20]
    244a:	e018      	b.n	247e <__smakebuf_r+0x6e>
    244c:	4b0d      	ldr	r3, [pc, #52]	; (2484 <__smakebuf_r+0x74>)
    244e:	62ab      	str	r3, [r5, #40]	; 0x28
    2450:	89a3      	ldrh	r3, [r4, #12]
    2452:	6020      	str	r0, [r4, #0]
    2454:	f043 0380 	orr.w	r3, r3, #128	; 0x80
    2458:	81a3      	strh	r3, [r4, #12]
    245a:	9b00      	ldr	r3, [sp, #0]
    245c:	6120      	str	r0, [r4, #16]
    245e:	6163      	str	r3, [r4, #20]
    2460:	9b01      	ldr	r3, [sp, #4]
    2462:	b14b      	cbz	r3, 2478 <__smakebuf_r+0x68>
    2464:	f9b4 100e 	ldrsh.w	r1, [r4, #14]
    2468:	4628      	mov	r0, r5
    246a:	f003 fdf5 	bl	6058 <_isatty_r>
    246e:	b118      	cbz	r0, 2478 <__smakebuf_r+0x68>
    2470:	89a3      	ldrh	r3, [r4, #12]
    2472:	f043 0301 	orr.w	r3, r3, #1
    2476:	81a3      	strh	r3, [r4, #12]
    2478:	89a0      	ldrh	r0, [r4, #12]
    247a:	4330      	orrs	r0, r6
    247c:	81a0      	strh	r0, [r4, #12]
    247e:	b002      	add	sp, #8
    2480:	bd70      	pop	{r4, r5, r6, pc}
    2482:	bf00      	nop
    2484:	00002015 	.word	0x00002015

00002488 <malloc>:
    2488:	4b02      	ldr	r3, [pc, #8]	; (2494 <malloc+0xc>)
    248a:	4601      	mov	r1, r0
    248c:	6818      	ldr	r0, [r3, #0]
    248e:	f000 b893 	b.w	25b8 <_malloc_r>
    2492:	bf00      	nop
    2494:	10000138 	.word	0x10000138

00002498 <free>:
    2498:	4b02      	ldr	r3, [pc, #8]	; (24a4 <free+0xc>)
    249a:	4601      	mov	r1, r0
    249c:	6818      	ldr	r0, [r3, #0]
    249e:	f000 b83f 	b.w	2520 <_free_r>
    24a2:	bf00      	nop
    24a4:	10000138 	.word	0x10000138

000024a8 <memchr>:
    24a8:	b510      	push	{r4, lr}
    24aa:	b2c9      	uxtb	r1, r1
    24ac:	4402      	add	r2, r0
    24ae:	4290      	cmp	r0, r2
    24b0:	4603      	mov	r3, r0
    24b2:	d005      	beq.n	24c0 <memchr+0x18>
    24b4:	781c      	ldrb	r4, [r3, #0]
    24b6:	3001      	adds	r0, #1
    24b8:	428c      	cmp	r4, r1
    24ba:	d1f8      	bne.n	24ae <memchr+0x6>
    24bc:	4618      	mov	r0, r3
    24be:	bd10      	pop	{r4, pc}
    24c0:	2000      	movs	r0, #0
    24c2:	bd10      	pop	{r4, pc}

000024c4 <memcpy>:
    24c4:	b510      	push	{r4, lr}
    24c6:	1e43      	subs	r3, r0, #1
    24c8:	440a      	add	r2, r1
    24ca:	4291      	cmp	r1, r2
    24cc:	d004      	beq.n	24d8 <memcpy+0x14>
    24ce:	f811 4b01 	ldrb.w	r4, [r1], #1
    24d2:	f803 4f01 	strb.w	r4, [r3, #1]!
    24d6:	e7f8      	b.n	24ca <memcpy+0x6>
    24d8:	bd10      	pop	{r4, pc}

000024da <memmove>:
    24da:	4288      	cmp	r0, r1
    24dc:	b510      	push	{r4, lr}
    24de:	eb01 0302 	add.w	r3, r1, r2
    24e2:	d801      	bhi.n	24e8 <memmove+0xe>
    24e4:	1e42      	subs	r2, r0, #1
    24e6:	e00b      	b.n	2500 <memmove+0x26>
    24e8:	4298      	cmp	r0, r3
    24ea:	d2fb      	bcs.n	24e4 <memmove+0xa>
    24ec:	1881      	adds	r1, r0, r2
    24ee:	1ad2      	subs	r2, r2, r3
    24f0:	42d3      	cmn	r3, r2
    24f2:	d004      	beq.n	24fe <memmove+0x24>
    24f4:	f813 4d01 	ldrb.w	r4, [r3, #-1]!
    24f8:	f801 4d01 	strb.w	r4, [r1, #-1]!
    24fc:	e7f8      	b.n	24f0 <memmove+0x16>
    24fe:	bd10      	pop	{r4, pc}
    2500:	4299      	cmp	r1, r3
    2502:	d004      	beq.n	250e <memmove+0x34>
    2504:	f811 4b01 	ldrb.w	r4, [r1], #1
    2508:	f802 4f01 	strb.w	r4, [r2, #1]!
    250c:	e7f8      	b.n	2500 <memmove+0x26>
    250e:	bd10      	pop	{r4, pc}

00002510 <memset>:
    2510:	4603      	mov	r3, r0
    2512:	4402      	add	r2, r0
    2514:	4293      	cmp	r3, r2
    2516:	d002      	beq.n	251e <memset+0xe>
    2518:	f803 1b01 	strb.w	r1, [r3], #1
    251c:	e7fa      	b.n	2514 <memset+0x4>
    251e:	4770      	bx	lr

00002520 <_free_r>:
    2520:	b538      	push	{r3, r4, r5, lr}
    2522:	4605      	mov	r5, r0
    2524:	2900      	cmp	r1, #0
    2526:	d044      	beq.n	25b2 <_free_r+0x92>
    2528:	f851 3c04 	ldr.w	r3, [r1, #-4]
    252c:	1f0c      	subs	r4, r1, #4
    252e:	2b00      	cmp	r3, #0
    2530:	bfb8      	it	lt
    2532:	18e4      	addlt	r4, r4, r3
    2534:	f003 fdee 	bl	6114 <__malloc_lock>
    2538:	4a1e      	ldr	r2, [pc, #120]	; (25b4 <_free_r+0x94>)
    253a:	6813      	ldr	r3, [r2, #0]
    253c:	4611      	mov	r1, r2
    253e:	b913      	cbnz	r3, 2546 <_free_r+0x26>
    2540:	6063      	str	r3, [r4, #4]
    2542:	6014      	str	r4, [r2, #0]
    2544:	e030      	b.n	25a8 <_free_r+0x88>
    2546:	42a3      	cmp	r3, r4
    2548:	d90d      	bls.n	2566 <_free_r+0x46>
    254a:	6822      	ldr	r2, [r4, #0]
    254c:	18a0      	adds	r0, r4, r2
    254e:	4283      	cmp	r3, r0
    2550:	bf01      	itttt	eq
    2552:	6818      	ldreq	r0, [r3, #0]
    2554:	685b      	ldreq	r3, [r3, #4]
    2556:	1812      	addeq	r2, r2, r0
    2558:	6022      	streq	r2, [r4, #0]
    255a:	6063      	str	r3, [r4, #4]
    255c:	600c      	str	r4, [r1, #0]
    255e:	e023      	b.n	25a8 <_free_r+0x88>
    2560:	42a2      	cmp	r2, r4
    2562:	d803      	bhi.n	256c <_free_r+0x4c>
    2564:	4613      	mov	r3, r2
    2566:	685a      	ldr	r2, [r3, #4]
    2568:	2a00      	cmp	r2, #0
    256a:	d1f9      	bne.n	2560 <_free_r+0x40>
    256c:	6818      	ldr	r0, [r3, #0]
    256e:	1819      	adds	r1, r3, r0
    2570:	42a1      	cmp	r1, r4
    2572:	d10b      	bne.n	258c <_free_r+0x6c>
    2574:	6821      	ldr	r1, [r4, #0]
    2576:	4401      	add	r1, r0
    2578:	1858      	adds	r0, r3, r1
    257a:	4282      	cmp	r2, r0
    257c:	6019      	str	r1, [r3, #0]
    257e:	d113      	bne.n	25a8 <_free_r+0x88>
    2580:	6810      	ldr	r0, [r2, #0]
    2582:	6852      	ldr	r2, [r2, #4]
    2584:	4401      	add	r1, r0
    2586:	6019      	str	r1, [r3, #0]
    2588:	605a      	str	r2, [r3, #4]
    258a:	e00d      	b.n	25a8 <_free_r+0x88>
    258c:	d902      	bls.n	2594 <_free_r+0x74>
    258e:	230c      	movs	r3, #12
    2590:	602b      	str	r3, [r5, #0]
    2592:	e009      	b.n	25a8 <_free_r+0x88>
    2594:	6821      	ldr	r1, [r4, #0]
    2596:	1860      	adds	r0, r4, r1
    2598:	4282      	cmp	r2, r0
    259a:	bf01      	itttt	eq
    259c:	6810      	ldreq	r0, [r2, #0]
    259e:	6852      	ldreq	r2, [r2, #4]
    25a0:	1809      	addeq	r1, r1, r0
    25a2:	6021      	streq	r1, [r4, #0]
    25a4:	6062      	str	r2, [r4, #4]
    25a6:	605c      	str	r4, [r3, #4]
    25a8:	4628      	mov	r0, r5
    25aa:	e8bd 4038 	ldmia.w	sp!, {r3, r4, r5, lr}
    25ae:	f003 bdb2 	b.w	6116 <__malloc_unlock>
    25b2:	bd38      	pop	{r3, r4, r5, pc}
    25b4:	100004a4 	.word	0x100004a4

000025b8 <_malloc_r>:
    25b8:	b570      	push	{r4, r5, r6, lr}
    25ba:	1ccd      	adds	r5, r1, #3
    25bc:	f025 0503 	bic.w	r5, r5, #3
    25c0:	3508      	adds	r5, #8
    25c2:	2d0c      	cmp	r5, #12
    25c4:	bf38      	it	cc
    25c6:	250c      	movcc	r5, #12
    25c8:	2d00      	cmp	r5, #0
    25ca:	4606      	mov	r6, r0
    25cc:	db01      	blt.n	25d2 <_malloc_r+0x1a>
    25ce:	42a9      	cmp	r1, r5
    25d0:	d902      	bls.n	25d8 <_malloc_r+0x20>
    25d2:	230c      	movs	r3, #12
    25d4:	6033      	str	r3, [r6, #0]
    25d6:	e046      	b.n	2666 <_malloc_r+0xae>
    25d8:	f003 fd9c 	bl	6114 <__malloc_lock>
    25dc:	4b23      	ldr	r3, [pc, #140]	; (266c <_malloc_r+0xb4>)
    25de:	681c      	ldr	r4, [r3, #0]
    25e0:	461a      	mov	r2, r3
    25e2:	4621      	mov	r1, r4
    25e4:	b1a1      	cbz	r1, 2610 <_malloc_r+0x58>
    25e6:	680b      	ldr	r3, [r1, #0]
    25e8:	1b5b      	subs	r3, r3, r5
    25ea:	d40e      	bmi.n	260a <_malloc_r+0x52>
    25ec:	2b0b      	cmp	r3, #11
    25ee:	d903      	bls.n	25f8 <_malloc_r+0x40>
    25f0:	600b      	str	r3, [r1, #0]
    25f2:	18cc      	adds	r4, r1, r3
    25f4:	50cd      	str	r5, [r1, r3]
    25f6:	e01e      	b.n	2636 <_malloc_r+0x7e>
    25f8:	428c      	cmp	r4, r1
    25fa:	bf0b      	itete	eq
    25fc:	6863      	ldreq	r3, [r4, #4]
    25fe:	684b      	ldrne	r3, [r1, #4]
    2600:	6013      	streq	r3, [r2, #0]
    2602:	6063      	strne	r3, [r4, #4]
    2604:	bf18      	it	ne
    2606:	460c      	movne	r4, r1
    2608:	e015      	b.n	2636 <_malloc_r+0x7e>
    260a:	460c      	mov	r4, r1
    260c:	6849      	ldr	r1, [r1, #4]
    260e:	e7e9      	b.n	25e4 <_malloc_r+0x2c>
    2610:	4c17      	ldr	r4, [pc, #92]	; (2670 <_malloc_r+0xb8>)
    2612:	6823      	ldr	r3, [r4, #0]
    2614:	b91b      	cbnz	r3, 261e <_malloc_r+0x66>
    2616:	4630      	mov	r0, r6
    2618:	f001 f92a 	bl	3870 <_sbrk_r>
    261c:	6020      	str	r0, [r4, #0]
    261e:	4629      	mov	r1, r5
    2620:	4630      	mov	r0, r6
    2622:	f001 f925 	bl	3870 <_sbrk_r>
    2626:	1c43      	adds	r3, r0, #1
    2628:	d018      	beq.n	265c <_malloc_r+0xa4>
    262a:	1cc4      	adds	r4, r0, #3
    262c:	f024 0403 	bic.w	r4, r4, #3
    2630:	42a0      	cmp	r0, r4
    2632:	d10d      	bne.n	2650 <_malloc_r+0x98>
    2634:	6025      	str	r5, [r4, #0]
    2636:	4630      	mov	r0, r6
    2638:	f003 fd6d 	bl	6116 <__malloc_unlock>
    263c:	f104 000b 	add.w	r0, r4, #11
    2640:	1d23      	adds	r3, r4, #4
    2642:	f020 0007 	bic.w	r0, r0, #7
    2646:	1ac3      	subs	r3, r0, r3
    2648:	d00e      	beq.n	2668 <_malloc_r+0xb0>
    264a:	425a      	negs	r2, r3
    264c:	50e2      	str	r2, [r4, r3]
    264e:	bd70      	pop	{r4, r5, r6, pc}
    2650:	1a21      	subs	r1, r4, r0
    2652:	4630      	mov	r0, r6
    2654:	f001 f90c 	bl	3870 <_sbrk_r>
    2658:	3001      	adds	r0, #1
    265a:	d1eb      	bne.n	2634 <_malloc_r+0x7c>
    265c:	230c      	movs	r3, #12
    265e:	6033      	str	r3, [r6, #0]
    2660:	4630      	mov	r0, r6
    2662:	f003 fd58 	bl	6116 <__malloc_unlock>
    2666:	2000      	movs	r0, #0
    2668:	bd70      	pop	{r4, r5, r6, pc}
    266a:	bf00      	nop
    266c:	100004a4 	.word	0x100004a4
    2670:	100004a0 	.word	0x100004a0

00002674 <__sfputc_r>:
    2674:	6893      	ldr	r3, [r2, #8]
    2676:	b410      	push	{r4}
    2678:	3b01      	subs	r3, #1
    267a:	2b00      	cmp	r3, #0
    267c:	6093      	str	r3, [r2, #8]
    267e:	da08      	bge.n	2692 <__sfputc_r+0x1e>
    2680:	6994      	ldr	r4, [r2, #24]
    2682:	42a3      	cmp	r3, r4
    2684:	db02      	blt.n	268c <__sfputc_r+0x18>
    2686:	b2cb      	uxtb	r3, r1
    2688:	2b0a      	cmp	r3, #10
    268a:	d102      	bne.n	2692 <__sfputc_r+0x1e>
    268c:	bc10      	pop	{r4}
    268e:	f002 ba73 	b.w	4b78 <__swbuf_r>
    2692:	6813      	ldr	r3, [r2, #0]
    2694:	1c58      	adds	r0, r3, #1
    2696:	6010      	str	r0, [r2, #0]
    2698:	7019      	strb	r1, [r3, #0]
    269a:	b2c8      	uxtb	r0, r1
    269c:	bc10      	pop	{r4}
    269e:	4770      	bx	lr

000026a0 <__sfputs_r>:
    26a0:	b5f8      	push	{r3, r4, r5, r6, r7, lr}
    26a2:	4606      	mov	r6, r0
    26a4:	460f      	mov	r7, r1
    26a6:	4614      	mov	r4, r2
    26a8:	18d5      	adds	r5, r2, r3
    26aa:	42ac      	cmp	r4, r5
    26ac:	d008      	beq.n	26c0 <__sfputs_r+0x20>
    26ae:	463a      	mov	r2, r7
    26b0:	f814 1b01 	ldrb.w	r1, [r4], #1
    26b4:	4630      	mov	r0, r6
    26b6:	f7ff ffdd 	bl	2674 <__sfputc_r>
    26ba:	1c43      	adds	r3, r0, #1
    26bc:	d1f5      	bne.n	26aa <__sfputs_r+0xa>
    26be:	e000      	b.n	26c2 <__sfputs_r+0x22>
    26c0:	2000      	movs	r0, #0
    26c2:	bdf8      	pop	{r3, r4, r5, r6, r7, pc}

000026c4 <_vfiprintf_r>:
    26c4:	e92d 4ff0 	stmdb	sp!, {r4, r5, r6, r7, r8, r9, r10, r11, lr}
    26c8:	b09d      	sub	sp, #116	; 0x74
    26ca:	460c      	mov	r4, r1
    26cc:	4617      	mov	r7, r2
    26ce:	9303      	str	r3, [sp, #12]
    26d0:	4606      	mov	r6, r0
    26d2:	b118      	cbz	r0, 26dc <_vfiprintf_r+0x18>
    26d4:	6983      	ldr	r3, [r0, #24]
    26d6:	b90b      	cbnz	r3, 26dc <_vfiprintf_r+0x18>
    26d8:	f7ff fcdc 	bl	2094 <__sinit>
    26dc:	4b7f      	ldr	r3, [pc, #508]	; (28dc <_vfiprintf_r+0x218>)
    26de:	429c      	cmp	r4, r3
    26e0:	d101      	bne.n	26e6 <_vfiprintf_r+0x22>
    26e2:	6874      	ldr	r4, [r6, #4]
    26e4:	e008      	b.n	26f8 <_vfiprintf_r+0x34>
    26e6:	4b7e      	ldr	r3, [pc, #504]	; (28e0 <_vfiprintf_r+0x21c>)
    26e8:	429c      	cmp	r4, r3
    26ea:	d101      	bne.n	26f0 <_vfiprintf_r+0x2c>
    26ec:	68b4      	ldr	r4, [r6, #8]
    26ee:	e003      	b.n	26f8 <_vfiprintf_r+0x34>
    26f0:	4b7c      	ldr	r3, [pc, #496]	; (28e4 <_vfiprintf_r+0x220>)
    26f2:	429c      	cmp	r4, r3
    26f4:	bf08      	it	eq
    26f6:	68f4      	ldreq	r4, [r6, #12]
    26f8:	89a3      	ldrh	r3, [r4, #12]
    26fa:	0718      	lsls	r0, r3, #28
    26fc:	d50c      	bpl.n	2718 <_vfiprintf_r+0x54>
    26fe:	6923      	ldr	r3, [r4, #16]
    2700:	b153      	cbz	r3, 2718 <_vfiprintf_r+0x54>
    2702:	2300      	movs	r3, #0
    2704:	9309      	str	r3, [sp, #36]	; 0x24
    2706:	2320      	movs	r3, #32
    2708:	f88d 3029 	strb.w	r3, [sp, #41]	; 0x29
    270c:	2330      	movs	r3, #48	; 0x30
    270e:	f88d 302a 	strb.w	r3, [sp, #42]	; 0x2a
    2712:	f8df b1d4 	ldr.w	r11, [pc, #468]	; 28e8 <_vfiprintf_r+0x224>
    2716:	e044      	b.n	27a2 <_vfiprintf_r+0xde>
    2718:	4621      	mov	r1, r4
    271a:	4630      	mov	r0, r6
    271c:	f002 fa92 	bl	4c44 <__swsetup_r>
    2720:	2800      	cmp	r0, #0
    2722:	d0ee      	beq.n	2702 <_vfiprintf_r+0x3e>
    2724:	f04f 30ff 	mov.w	r0, #4294967295
    2728:	e0d5      	b.n	28d6 <_vfiprintf_r+0x212>
    272a:	9a03      	ldr	r2, [sp, #12]
    272c:	1d11      	adds	r1, r2, #4
    272e:	6812      	ldr	r2, [r2, #0]
    2730:	9103      	str	r1, [sp, #12]
    2732:	2a00      	cmp	r2, #0
    2734:	f280 808c 	bge.w	2850 <_vfiprintf_r+0x18c>
    2738:	4252      	negs	r2, r2
    273a:	f043 0002 	orr.w	r0, r3, #2
    273e:	9207      	str	r2, [sp, #28]
    2740:	9004      	str	r0, [sp, #16]
    2742:	f898 3000 	ldrb.w	r3, [r8]
    2746:	2b2e      	cmp	r3, #46	; 0x2e
    2748:	f000 8084 	beq.w	2854 <_vfiprintf_r+0x190>
    274c:	2203      	movs	r2, #3
    274e:	f898 1000 	ldrb.w	r1, [r8]
    2752:	4865      	ldr	r0, [pc, #404]	; (28e8 <_vfiprintf_r+0x224>)
    2754:	f7ff fea8 	bl	24a8 <memchr>
    2758:	b148      	cbz	r0, 276e <_vfiprintf_r+0xaa>
    275a:	2340      	movs	r3, #64	; 0x40
    275c:	ebcb 0000 	rsb	r0, r11, r0
    2760:	fa03 f000 	lsl.w	r0, r3, r0
    2764:	9b04      	ldr	r3, [sp, #16]
    2766:	f108 0801 	add.w	r8, r8, #1
    276a:	4318      	orrs	r0, r3
    276c:	9004      	str	r0, [sp, #16]
    276e:	f898 1000 	ldrb.w	r1, [r8]
    2772:	2206      	movs	r2, #6
    2774:	485d      	ldr	r0, [pc, #372]	; (28ec <_vfiprintf_r+0x228>)
    2776:	f108 0701 	add.w	r7, r8, #1
    277a:	f88d 1028 	strb.w	r1, [sp, #40]	; 0x28
    277e:	f7ff fe93 	bl	24a8 <memchr>
    2782:	2800      	cmp	r0, #0
    2784:	f000 8095 	beq.w	28b2 <_vfiprintf_r+0x1ee>
    2788:	4b59      	ldr	r3, [pc, #356]	; (28f0 <_vfiprintf_r+0x22c>)
    278a:	2b00      	cmp	r3, #0
    278c:	f040 8088 	bne.w	28a0 <_vfiprintf_r+0x1dc>
    2790:	9b03      	ldr	r3, [sp, #12]
    2792:	3307      	adds	r3, #7
    2794:	f023 0307 	bic.w	r3, r3, #7
    2798:	3308      	adds	r3, #8
    279a:	9303      	str	r3, [sp, #12]
    279c:	9b09      	ldr	r3, [sp, #36]	; 0x24
    279e:	4453      	add	r3, r10
    27a0:	9309      	str	r3, [sp, #36]	; 0x24
    27a2:	46b8      	mov	r8, r7
    27a4:	4645      	mov	r5, r8
    27a6:	f815 3b01 	ldrb.w	r3, [r5], #1
    27aa:	b91b      	cbnz	r3, 27b4 <_vfiprintf_r+0xf0>
    27ac:	ebb8 0907 	subs.w	r9, r8, r7
    27b0:	d00f      	beq.n	27d2 <_vfiprintf_r+0x10e>
    27b2:	e003      	b.n	27bc <_vfiprintf_r+0xf8>
    27b4:	2b25      	cmp	r3, #37	; 0x25
    27b6:	d0f9      	beq.n	27ac <_vfiprintf_r+0xe8>
    27b8:	46a8      	mov	r8, r5
    27ba:	e7f3      	b.n	27a4 <_vfiprintf_r+0xe0>
    27bc:	464b      	mov	r3, r9
    27be:	463a      	mov	r2, r7
    27c0:	4621      	mov	r1, r4
    27c2:	4630      	mov	r0, r6
    27c4:	f7ff ff6c 	bl	26a0 <__sfputs_r>
    27c8:	3001      	adds	r0, #1
    27ca:	d07f      	beq.n	28cc <_vfiprintf_r+0x208>
    27cc:	9b09      	ldr	r3, [sp, #36]	; 0x24
    27ce:	444b      	add	r3, r9
    27d0:	9309      	str	r3, [sp, #36]	; 0x24
    27d2:	f898 3000 	ldrb.w	r3, [r8]
    27d6:	2b00      	cmp	r3, #0
    27d8:	d078      	beq.n	28cc <_vfiprintf_r+0x208>
    27da:	2300      	movs	r3, #0
    27dc:	f04f 32ff 	mov.w	r2, #4294967295
    27e0:	9304      	str	r3, [sp, #16]
    27e2:	9307      	str	r3, [sp, #28]
    27e4:	9205      	str	r2, [sp, #20]
    27e6:	9306      	str	r3, [sp, #24]
    27e8:	f88d 3053 	strb.w	r3, [sp, #83]	; 0x53
    27ec:	931a      	str	r3, [sp, #104]	; 0x68
    27ee:	2701      	movs	r7, #1
    27f0:	2205      	movs	r2, #5
    27f2:	7829      	ldrb	r1, [r5, #0]
    27f4:	483f      	ldr	r0, [pc, #252]	; (28f4 <_vfiprintf_r+0x230>)
    27f6:	f7ff fe57 	bl	24a8 <memchr>
    27fa:	f105 0801 	add.w	r8, r5, #1
    27fe:	9b04      	ldr	r3, [sp, #16]
    2800:	b138      	cbz	r0, 2812 <_vfiprintf_r+0x14e>
    2802:	4a3c      	ldr	r2, [pc, #240]	; (28f4 <_vfiprintf_r+0x230>)
    2804:	4645      	mov	r5, r8
    2806:	1a80      	subs	r0, r0, r2
    2808:	fa07 f000 	lsl.w	r0, r7, r0
    280c:	4318      	orrs	r0, r3
    280e:	9004      	str	r0, [sp, #16]
    2810:	e7ee      	b.n	27f0 <_vfiprintf_r+0x12c>
    2812:	06d9      	lsls	r1, r3, #27
    2814:	bf44      	itt	mi
    2816:	2220      	movmi	r2, #32
    2818:	f88d 2053 	strbmi.w	r2, [sp, #83]	; 0x53
    281c:	071a      	lsls	r2, r3, #28
    281e:	bf44      	itt	mi
    2820:	222b      	movmi	r2, #43	; 0x2b
    2822:	f88d 2053 	strbmi.w	r2, [sp, #83]	; 0x53
    2826:	782a      	ldrb	r2, [r5, #0]
    2828:	2a2a      	cmp	r2, #42	; 0x2a
    282a:	f43f af7e 	beq.w	272a <_vfiprintf_r+0x66>
    282e:	9a07      	ldr	r2, [sp, #28]
    2830:	2100      	movs	r1, #0
    2832:	200a      	movs	r0, #10
    2834:	46a8      	mov	r8, r5
    2836:	f898 3000 	ldrb.w	r3, [r8]
    283a:	3501      	adds	r5, #1
    283c:	3b30      	subs	r3, #48	; 0x30
    283e:	2b09      	cmp	r3, #9
    2840:	d803      	bhi.n	284a <_vfiprintf_r+0x186>
    2842:	fb00 3202 	mla	r2, r0, r2, r3
    2846:	2101      	movs	r1, #1
    2848:	e7f4      	b.n	2834 <_vfiprintf_r+0x170>
    284a:	2900      	cmp	r1, #0
    284c:	f43f af79 	beq.w	2742 <_vfiprintf_r+0x7e>
    2850:	9207      	str	r2, [sp, #28]
    2852:	e776      	b.n	2742 <_vfiprintf_r+0x7e>
    2854:	f898 3001 	ldrb.w	r3, [r8, #1]
    2858:	2b2a      	cmp	r3, #42	; 0x2a
    285a:	d10b      	bne.n	2874 <_vfiprintf_r+0x1b0>
    285c:	9b03      	ldr	r3, [sp, #12]
    285e:	f108 0802 	add.w	r8, r8, #2
    2862:	1d1a      	adds	r2, r3, #4
    2864:	681b      	ldr	r3, [r3, #0]
    2866:	9203      	str	r2, [sp, #12]
    2868:	2b00      	cmp	r3, #0
    286a:	bfb8      	it	lt
    286c:	f04f 33ff 	movlt.w	r3, #4294967295
    2870:	9305      	str	r3, [sp, #20]
    2872:	e76b      	b.n	274c <_vfiprintf_r+0x88>
    2874:	2300      	movs	r3, #0
    2876:	4619      	mov	r1, r3
    2878:	9305      	str	r3, [sp, #20]
    287a:	f108 0001 	add.w	r0, r8, #1
    287e:	250a      	movs	r5, #10
    2880:	4680      	mov	r8, r0
    2882:	f898 2000 	ldrb.w	r2, [r8]
    2886:	3001      	adds	r0, #1
    2888:	3a30      	subs	r2, #48	; 0x30
    288a:	2a09      	cmp	r2, #9
    288c:	d803      	bhi.n	2896 <_vfiprintf_r+0x1d2>
    288e:	fb05 2101 	mla	r1, r5, r1, r2
    2892:	2301      	movs	r3, #1
    2894:	e7f4      	b.n	2880 <_vfiprintf_r+0x1bc>
    2896:	2b00      	cmp	r3, #0
    2898:	f43f af58 	beq.w	274c <_vfiprintf_r+0x88>
    289c:	9105      	str	r1, [sp, #20]
    289e:	e755      	b.n	274c <_vfiprintf_r+0x88>
    28a0:	ab03      	add	r3, sp, #12
    28a2:	9300      	str	r3, [sp, #0]
    28a4:	4622      	mov	r2, r4
    28a6:	4b14      	ldr	r3, [pc, #80]	; (28f8 <_vfiprintf_r+0x234>)
    28a8:	a904      	add	r1, sp, #16
    28aa:	4630      	mov	r0, r6
    28ac:	f000 f8b8 	bl	2a20 <_printf_float>
    28b0:	e007      	b.n	28c2 <_vfiprintf_r+0x1fe>
    28b2:	ab03      	add	r3, sp, #12
    28b4:	9300      	str	r3, [sp, #0]
    28b6:	4622      	mov	r2, r4
    28b8:	4b0f      	ldr	r3, [pc, #60]	; (28f8 <_vfiprintf_r+0x234>)
    28ba:	a904      	add	r1, sp, #16
    28bc:	4630      	mov	r0, r6
    28be:	f000 fb69 	bl	2f94 <_printf_i>
    28c2:	f1b0 3fff 	cmp.w	r0, #4294967295
    28c6:	4682      	mov	r10, r0
    28c8:	f47f af68 	bne.w	279c <_vfiprintf_r+0xd8>
    28cc:	89a3      	ldrh	r3, [r4, #12]
    28ce:	065b      	lsls	r3, r3, #25
    28d0:	f53f af28 	bmi.w	2724 <_vfiprintf_r+0x60>
    28d4:	9809      	ldr	r0, [sp, #36]	; 0x24
    28d6:	b01d      	add	sp, #116	; 0x74
    28d8:	e8bd 8ff0 	ldmia.w	sp!, {r4, r5, r6, r7, r8, r9, r10, r11, pc}
    28dc:	000084ec 	.word	0x000084ec
    28e0:	0000850c 	.word	0x0000850c
    28e4:	0000852c 	.word	0x0000852c
    28e8:	00008556 	.word	0x00008556
    28ec:	0000855a 	.word	0x0000855a
    28f0:	00002a21 	.word	0x00002a21
    28f4:	00008550 	.word	0x00008550
    28f8:	000026a1 	.word	0x000026a1

000028fc <__cvt>:
    28fc:	e92d 47f0 	stmdb	sp!, {r4, r5, r6, r7, r8, r9, r10, lr}
    2900:	b088      	sub	sp, #32
    2902:	9f14      	ldr	r7, [sp, #80]	; 0x50
    2904:	2b00      	cmp	r3, #0
    2906:	461e      	mov	r6, r3
    2908:	9912      	ldr	r1, [sp, #72]	; 0x48
    290a:	bfb8      	it	lt
    290c:	f103 4300 	addlt.w	r3, r3, #2147483648	; 0x80000000
    2910:	f027 0720 	bic.w	r7, r7, #32
    2914:	bfb6      	itet	lt
    2916:	461e      	movlt	r6, r3
    2918:	2300      	movge	r3, #0
    291a:	232d      	movlt	r3, #45	; 0x2d
    291c:	2f46      	cmp	r7, #70	; 0x46
    291e:	4614      	mov	r4, r2
    2920:	9d10      	ldr	r5, [sp, #64]	; 0x40
    2922:	f8dd a04c 	ldr.w	r10, [sp, #76]	; 0x4c
    2926:	700b      	strb	r3, [r1, #0]
    2928:	d003      	beq.n	2932 <__cvt+0x36>
    292a:	2f45      	cmp	r7, #69	; 0x45
    292c:	d103      	bne.n	2936 <__cvt+0x3a>
    292e:	3501      	adds	r5, #1
    2930:	e001      	b.n	2936 <__cvt+0x3a>
    2932:	2303      	movs	r3, #3
    2934:	e000      	b.n	2938 <__cvt+0x3c>
    2936:	2302      	movs	r3, #2
    2938:	aa07      	add	r2, sp, #28
    293a:	9204      	str	r2, [sp, #16]
    293c:	aa06      	add	r2, sp, #24
    293e:	9203      	str	r2, [sp, #12]
    2940:	e88d 0428 	stmia.w	sp, {r3, r5, r10}
    2944:	4622      	mov	r2, r4
    2946:	4633      	mov	r3, r6
    2948:	f002 fa86 	bl	4e58 <_dtoa_r>
    294c:	2f47      	cmp	r7, #71	; 0x47
    294e:	4680      	mov	r8, r0
    2950:	d102      	bne.n	2958 <__cvt+0x5c>
    2952:	9b11      	ldr	r3, [sp, #68]	; 0x44
    2954:	07db      	lsls	r3, r3, #31
    2956:	d528      	bpl.n	29aa <__cvt+0xae>
    2958:	2f46      	cmp	r7, #70	; 0x46
    295a:	eb08 0905 	add.w	r9, r8, r5
    295e:	d111      	bne.n	2984 <__cvt+0x88>
    2960:	f898 3000 	ldrb.w	r3, [r8]
    2964:	2b30      	cmp	r3, #48	; 0x30
    2966:	d10a      	bne.n	297e <__cvt+0x82>
    2968:	2200      	movs	r2, #0
    296a:	2300      	movs	r3, #0
    296c:	4620      	mov	r0, r4
    296e:	4631      	mov	r1, r6
    2970:	f004 ff3a 	bl	77e8 <__aeabi_dcmpeq>
    2974:	b918      	cbnz	r0, 297e <__cvt+0x82>
    2976:	f1c5 0501 	rsb	r5, r5, #1
    297a:	f8ca 5000 	str.w	r5, [r10]
    297e:	f8da 3000 	ldr.w	r3, [r10]
    2982:	4499      	add	r9, r3
    2984:	2200      	movs	r2, #0
    2986:	2300      	movs	r3, #0
    2988:	4620      	mov	r0, r4
    298a:	4631      	mov	r1, r6
    298c:	f004 ff2c 	bl	77e8 <__aeabi_dcmpeq>
    2990:	b908      	cbnz	r0, 2996 <__cvt+0x9a>
    2992:	2230      	movs	r2, #48	; 0x30
    2994:	e002      	b.n	299c <__cvt+0xa0>
    2996:	f8cd 901c 	str.w	r9, [sp, #28]
    299a:	e006      	b.n	29aa <__cvt+0xae>
    299c:	9b07      	ldr	r3, [sp, #28]
    299e:	4599      	cmp	r9, r3
    29a0:	d903      	bls.n	29aa <__cvt+0xae>
    29a2:	1c59      	adds	r1, r3, #1
    29a4:	9107      	str	r1, [sp, #28]
    29a6:	701a      	strb	r2, [r3, #0]
    29a8:	e7f8      	b.n	299c <__cvt+0xa0>
    29aa:	4640      	mov	r0, r8
    29ac:	9b07      	ldr	r3, [sp, #28]
    29ae:	9a15      	ldr	r2, [sp, #84]	; 0x54
    29b0:	ebc8 0303 	rsb	r3, r8, r3
    29b4:	6013      	str	r3, [r2, #0]
    29b6:	b008      	add	sp, #32
    29b8:	e8bd 87f0 	ldmia.w	sp!, {r4, r5, r6, r7, r8, r9, r10, pc}

000029bc <__exponent>:
    29bc:	4603      	mov	r3, r0
    29be:	b573      	push	{r0, r1, r4, r5, r6, lr}
    29c0:	2900      	cmp	r1, #0
    29c2:	bfb8      	it	lt
    29c4:	4249      	neglt	r1, r1
    29c6:	f803 2b02 	strb.w	r2, [r3], #2
    29ca:	bfb4      	ite	lt
    29cc:	222d      	movlt	r2, #45	; 0x2d
    29ce:	222b      	movge	r2, #43	; 0x2b
    29d0:	2909      	cmp	r1, #9
    29d2:	7042      	strb	r2, [r0, #1]
    29d4:	dd1a      	ble.n	2a0c <__exponent+0x50>
    29d6:	f10d 0207 	add.w	r2, sp, #7
    29da:	4616      	mov	r6, r2
    29dc:	250a      	movs	r5, #10
    29de:	fb91 f4f5 	sdiv	r4, r1, r5
    29e2:	fb05 1114 	mls	r1, r5, r4, r1
    29e6:	2c09      	cmp	r4, #9
    29e8:	f101 0130 	add.w	r1, r1, #48	; 0x30
    29ec:	f802 1d01 	strb.w	r1, [r2, #-1]!
    29f0:	4621      	mov	r1, r4
    29f2:	dcf4      	bgt.n	29de <__exponent+0x22>
    29f4:	3130      	adds	r1, #48	; 0x30
    29f6:	1e54      	subs	r4, r2, #1
    29f8:	f802 1c01 	strb.w	r1, [r2, #-1]
    29fc:	42b4      	cmp	r4, r6
    29fe:	461a      	mov	r2, r3
    2a00:	d20a      	bcs.n	2a18 <__exponent+0x5c>
    2a02:	f814 2b01 	ldrb.w	r2, [r4], #1
    2a06:	f803 2b01 	strb.w	r2, [r3], #1
    2a0a:	e7f7      	b.n	29fc <__exponent+0x40>
    2a0c:	461a      	mov	r2, r3
    2a0e:	2430      	movs	r4, #48	; 0x30
    2a10:	4421      	add	r1, r4
    2a12:	f802 4b02 	strb.w	r4, [r2], #2
    2a16:	7059      	strb	r1, [r3, #1]
    2a18:	1a10      	subs	r0, r2, r0
    2a1a:	b002      	add	sp, #8
    2a1c:	bd70      	pop	{r4, r5, r6, pc}
	...

00002a20 <_printf_float>:
    2a20:	e92d 4ff0 	stmdb	sp!, {r4, r5, r6, r7, r8, r9, r10, r11, lr}
    2a24:	b091      	sub	sp, #68	; 0x44
    2a26:	460c      	mov	r4, r1
    2a28:	f8dd 8068 	ldr.w	r8, [sp, #104]	; 0x68
    2a2c:	4616      	mov	r6, r2
    2a2e:	461f      	mov	r7, r3
    2a30:	4605      	mov	r5, r0
    2a32:	f003 fb3d 	bl	60b0 <_localeconv_r>
    2a36:	6803      	ldr	r3, [r0, #0]
    2a38:	4618      	mov	r0, r3
    2a3a:	9309      	str	r3, [sp, #36]	; 0x24
    2a3c:	f001 f8f1 	bl	3c22 <strlen>
    2a40:	2300      	movs	r3, #0
    2a42:	930e      	str	r3, [sp, #56]	; 0x38
    2a44:	f8d8 3000 	ldr.w	r3, [r8]
    2a48:	900a      	str	r0, [sp, #40]	; 0x28
    2a4a:	3307      	adds	r3, #7
    2a4c:	f023 0307 	bic.w	r3, r3, #7
    2a50:	f103 0208 	add.w	r2, r3, #8
    2a54:	f894 9018 	ldrb.w	r9, [r4, #24]
    2a58:	f8d4 b000 	ldr.w	r11, [r4]
    2a5c:	f8c8 2000 	str.w	r2, [r8]
    2a60:	e9d3 2300 	ldrd	r2, r3, [r3]
    2a64:	e9c4 2312 	strd	r2, r3, [r4, #72]	; 0x48
    2a68:	f8d4 a04c 	ldr.w	r10, [r4, #76]	; 0x4c
    2a6c:	f8d4 8048 	ldr.w	r8, [r4, #72]	; 0x48
    2a70:	f02a 4300 	bic.w	r3, r10, #2147483648	; 0x80000000
    2a74:	930b      	str	r3, [sp, #44]	; 0x2c
    2a76:	f04f 32ff 	mov.w	r2, #4294967295
    2a7a:	4ba7      	ldr	r3, [pc, #668]	; (2d18 <_printf_float+0x2f8>)
    2a7c:	4640      	mov	r0, r8
    2a7e:	990b      	ldr	r1, [sp, #44]	; 0x2c
    2a80:	f004 fee4 	bl	784c <__aeabi_dcmpun>
    2a84:	b9a0      	cbnz	r0, 2ab0 <_printf_float+0x90>
    2a86:	f04f 32ff 	mov.w	r2, #4294967295
    2a8a:	4ba3      	ldr	r3, [pc, #652]	; (2d18 <_printf_float+0x2f8>)
    2a8c:	4640      	mov	r0, r8
    2a8e:	990b      	ldr	r1, [sp, #44]	; 0x2c
    2a90:	f004 febe 	bl	7810 <__aeabi_dcmple>
    2a94:	b960      	cbnz	r0, 2ab0 <_printf_float+0x90>
    2a96:	2200      	movs	r2, #0
    2a98:	2300      	movs	r3, #0
    2a9a:	4640      	mov	r0, r8
    2a9c:	4651      	mov	r1, r10
    2a9e:	f004 fead 	bl	77fc <__aeabi_dcmplt>
    2aa2:	b110      	cbz	r0, 2aaa <_printf_float+0x8a>
    2aa4:	232d      	movs	r3, #45	; 0x2d
    2aa6:	f884 3043 	strb.w	r3, [r4, #67]	; 0x43
    2aaa:	4b9c      	ldr	r3, [pc, #624]	; (2d1c <_printf_float+0x2fc>)
    2aac:	4a9c      	ldr	r2, [pc, #624]	; (2d20 <_printf_float+0x300>)
    2aae:	e00a      	b.n	2ac6 <_printf_float+0xa6>
    2ab0:	4642      	mov	r2, r8
    2ab2:	4653      	mov	r3, r10
    2ab4:	4640      	mov	r0, r8
    2ab6:	4651      	mov	r1, r10
    2ab8:	f004 fec8 	bl	784c <__aeabi_dcmpun>
    2abc:	2800      	cmp	r0, #0
    2abe:	f000 8192 	beq.w	2de6 <_printf_float+0x3c6>
    2ac2:	4b98      	ldr	r3, [pc, #608]	; (2d24 <_printf_float+0x304>)
    2ac4:	4a98      	ldr	r2, [pc, #608]	; (2d28 <_printf_float+0x308>)
    2ac6:	f1b9 0f47 	cmp.w	r9, #71	; 0x47
    2aca:	bf8c      	ite	hi
    2acc:	4690      	movhi	r8, r2
    2ace:	4698      	movls	r8, r3
    2ad0:	2303      	movs	r3, #3
    2ad2:	6123      	str	r3, [r4, #16]
    2ad4:	f02b 0304 	bic.w	r3, r11, #4
    2ad8:	6023      	str	r3, [r4, #0]
    2ada:	f04f 0a00 	mov.w	r10, #0
    2ade:	e03d      	b.n	2b5c <_printf_float+0x13c>
    2ae0:	f1b9 0f67 	cmp.w	r9, #103	; 0x67
    2ae4:	f000 818a 	beq.w	2dfc <_printf_float+0x3dc>
    2ae8:	f1b9 0f47 	cmp.w	r9, #71	; 0x47
    2aec:	f000 8186 	beq.w	2dfc <_printf_float+0x3dc>
    2af0:	6023      	str	r3, [r4, #0]
    2af2:	9301      	str	r3, [sp, #4]
    2af4:	6863      	ldr	r3, [r4, #4]
    2af6:	2100      	movs	r1, #0
    2af8:	f10d 0233 	add.w	r2, sp, #51	; 0x33
    2afc:	9005      	str	r0, [sp, #20]
    2afe:	9202      	str	r2, [sp, #8]
    2b00:	9300      	str	r3, [sp, #0]
    2b02:	4642      	mov	r2, r8
    2b04:	4653      	mov	r3, r10
    2b06:	9106      	str	r1, [sp, #24]
    2b08:	f8cd 9010 	str.w	r9, [sp, #16]
    2b0c:	f8cd e00c 	str.w	lr, [sp, #12]
    2b10:	4628      	mov	r0, r5
    2b12:	f7ff fef3 	bl	28fc <__cvt>
    2b16:	f009 03df 	and.w	r3, r9, #223	; 0xdf
    2b1a:	2b47      	cmp	r3, #71	; 0x47
    2b1c:	4680      	mov	r8, r0
    2b1e:	f000 8184 	beq.w	2e2a <_printf_float+0x40a>
    2b22:	f1b9 0f65 	cmp.w	r9, #101	; 0x65
    2b26:	990d      	ldr	r1, [sp, #52]	; 0x34
    2b28:	f200 818d 	bhi.w	2e46 <_printf_float+0x426>
    2b2c:	3901      	subs	r1, #1
    2b2e:	464a      	mov	r2, r9
    2b30:	f104 0050 	add.w	r0, r4, #80	; 0x50
    2b34:	910d      	str	r1, [sp, #52]	; 0x34
    2b36:	f7ff ff41 	bl	29bc <__exponent>
    2b3a:	9a0e      	ldr	r2, [sp, #56]	; 0x38
    2b3c:	4682      	mov	r10, r0
    2b3e:	1883      	adds	r3, r0, r2
    2b40:	2a01      	cmp	r2, #1
    2b42:	6123      	str	r3, [r4, #16]
    2b44:	f300 817c 	bgt.w	2e40 <_printf_float+0x420>
    2b48:	6822      	ldr	r2, [r4, #0]
    2b4a:	07d1      	lsls	r1, r2, #31
    2b4c:	f100 8178 	bmi.w	2e40 <_printf_float+0x420>
    2b50:	f89d 3033 	ldrb.w	r3, [sp, #51]	; 0x33
    2b54:	b113      	cbz	r3, 2b5c <_printf_float+0x13c>
    2b56:	232d      	movs	r3, #45	; 0x2d
    2b58:	f884 3043 	strb.w	r3, [r4, #67]	; 0x43
    2b5c:	9700      	str	r7, [sp, #0]
    2b5e:	4633      	mov	r3, r6
    2b60:	aa0f      	add	r2, sp, #60	; 0x3c
    2b62:	4621      	mov	r1, r4
    2b64:	4628      	mov	r0, r5
    2b66:	f000 f99f 	bl	2ea8 <_printf_common>
    2b6a:	3001      	adds	r0, #1
    2b6c:	d102      	bne.n	2b74 <_printf_float+0x154>
    2b6e:	f04f 30ff 	mov.w	r0, #4294967295
    2b72:	e196      	b.n	2ea2 <_printf_float+0x482>
    2b74:	6823      	ldr	r3, [r4, #0]
    2b76:	055a      	lsls	r2, r3, #21
    2b78:	d401      	bmi.n	2b7e <_printf_float+0x15e>
    2b7a:	6923      	ldr	r3, [r4, #16]
    2b7c:	e065      	b.n	2c4a <_printf_float+0x22a>
    2b7e:	f1b9 0f65 	cmp.w	r9, #101	; 0x65
    2b82:	f240 80d5 	bls.w	2d30 <_printf_float+0x310>
    2b86:	e9d4 0112 	ldrd	r0, r1, [r4, #72]	; 0x48
    2b8a:	2200      	movs	r2, #0
    2b8c:	2300      	movs	r3, #0
    2b8e:	f004 fe2b 	bl	77e8 <__aeabi_dcmpeq>
    2b92:	b378      	cbz	r0, 2bf4 <_printf_float+0x1d4>
    2b94:	2301      	movs	r3, #1
    2b96:	4a65      	ldr	r2, [pc, #404]	; (2d2c <_printf_float+0x30c>)
    2b98:	4631      	mov	r1, r6
    2b9a:	4628      	mov	r0, r5
    2b9c:	47b8      	blx	r7
    2b9e:	3001      	adds	r0, #1
    2ba0:	d0e5      	beq.n	2b6e <_printf_float+0x14e>
    2ba2:	9b0e      	ldr	r3, [sp, #56]	; 0x38
    2ba4:	9a0d      	ldr	r2, [sp, #52]	; 0x34
    2ba6:	429a      	cmp	r2, r3
    2ba8:	db0b      	blt.n	2bc2 <_printf_float+0x1a2>
    2baa:	6823      	ldr	r3, [r4, #0]
    2bac:	07d8      	lsls	r0, r3, #31
    2bae:	d408      	bmi.n	2bc2 <_printf_float+0x1a2>
    2bb0:	6823      	ldr	r3, [r4, #0]
    2bb2:	079b      	lsls	r3, r3, #30
    2bb4:	f140 8111 	bpl.w	2dda <_printf_float+0x3ba>
    2bb8:	f04f 0800 	mov.w	r8, #0
    2bbc:	f104 0919 	add.w	r9, r4, #25
    2bc0:	e106      	b.n	2dd0 <_printf_float+0x3b0>
    2bc2:	9b0a      	ldr	r3, [sp, #40]	; 0x28
    2bc4:	9a09      	ldr	r2, [sp, #36]	; 0x24
    2bc6:	4631      	mov	r1, r6
    2bc8:	4628      	mov	r0, r5
    2bca:	47b8      	blx	r7
    2bcc:	3001      	adds	r0, #1
    2bce:	d0ce      	beq.n	2b6e <_printf_float+0x14e>
    2bd0:	f04f 0800 	mov.w	r8, #0
    2bd4:	f104 091a 	add.w	r9, r4, #26
    2bd8:	9b0e      	ldr	r3, [sp, #56]	; 0x38
    2bda:	3b01      	subs	r3, #1
    2bdc:	4598      	cmp	r8, r3
    2bde:	dae7      	bge.n	2bb0 <_printf_float+0x190>
    2be0:	2301      	movs	r3, #1
    2be2:	464a      	mov	r2, r9
    2be4:	4631      	mov	r1, r6
    2be6:	4628      	mov	r0, r5
    2be8:	47b8      	blx	r7
    2bea:	3001      	adds	r0, #1
    2bec:	d0bf      	beq.n	2b6e <_printf_float+0x14e>
    2bee:	f108 0801 	add.w	r8, r8, #1
    2bf2:	e7f1      	b.n	2bd8 <_printf_float+0x1b8>
    2bf4:	9b0d      	ldr	r3, [sp, #52]	; 0x34
    2bf6:	2b00      	cmp	r3, #0
    2bf8:	dc29      	bgt.n	2c4e <_printf_float+0x22e>
    2bfa:	2301      	movs	r3, #1
    2bfc:	4a4b      	ldr	r2, [pc, #300]	; (2d2c <_printf_float+0x30c>)
    2bfe:	4631      	mov	r1, r6
    2c00:	4628      	mov	r0, r5
    2c02:	47b8      	blx	r7
    2c04:	3001      	adds	r0, #1
    2c06:	d0b2      	beq.n	2b6e <_printf_float+0x14e>
    2c08:	9b0d      	ldr	r3, [sp, #52]	; 0x34
    2c0a:	b923      	cbnz	r3, 2c16 <_printf_float+0x1f6>
    2c0c:	9b0e      	ldr	r3, [sp, #56]	; 0x38
    2c0e:	b913      	cbnz	r3, 2c16 <_printf_float+0x1f6>
    2c10:	6823      	ldr	r3, [r4, #0]
    2c12:	07d9      	lsls	r1, r3, #31
    2c14:	d5cc      	bpl.n	2bb0 <_printf_float+0x190>
    2c16:	9b0a      	ldr	r3, [sp, #40]	; 0x28
    2c18:	9a09      	ldr	r2, [sp, #36]	; 0x24
    2c1a:	4631      	mov	r1, r6
    2c1c:	4628      	mov	r0, r5
    2c1e:	47b8      	blx	r7
    2c20:	3001      	adds	r0, #1
    2c22:	d0a4      	beq.n	2b6e <_printf_float+0x14e>
    2c24:	f04f 0900 	mov.w	r9, #0
    2c28:	f104 0a1a 	add.w	r10, r4, #26
    2c2c:	9b0d      	ldr	r3, [sp, #52]	; 0x34
    2c2e:	425b      	negs	r3, r3
    2c30:	4599      	cmp	r9, r3
    2c32:	da09      	bge.n	2c48 <_printf_float+0x228>
    2c34:	2301      	movs	r3, #1
    2c36:	4652      	mov	r2, r10
    2c38:	4631      	mov	r1, r6
    2c3a:	4628      	mov	r0, r5
    2c3c:	47b8      	blx	r7
    2c3e:	3001      	adds	r0, #1
    2c40:	d095      	beq.n	2b6e <_printf_float+0x14e>
    2c42:	f109 0901 	add.w	r9, r9, #1
    2c46:	e7f1      	b.n	2c2c <_printf_float+0x20c>
    2c48:	9b0e      	ldr	r3, [sp, #56]	; 0x38
    2c4a:	4642      	mov	r2, r8
    2c4c:	e0a7      	b.n	2d9e <_printf_float+0x37e>
    2c4e:	9a0e      	ldr	r2, [sp, #56]	; 0x38
    2c50:	6da3      	ldr	r3, [r4, #88]	; 0x58
    2c52:	429a      	cmp	r2, r3
    2c54:	bfa8      	it	ge
    2c56:	461a      	movge	r2, r3
    2c58:	2a00      	cmp	r2, #0
    2c5a:	4691      	mov	r9, r2
    2c5c:	dc06      	bgt.n	2c6c <_printf_float+0x24c>
    2c5e:	f04f 0a00 	mov.w	r10, #0
    2c62:	ea29 79e9 	bic.w	r9, r9, r9, asr #31
    2c66:	f104 0b1a 	add.w	r11, r4, #26
    2c6a:	e011      	b.n	2c90 <_printf_float+0x270>
    2c6c:	4613      	mov	r3, r2
    2c6e:	4631      	mov	r1, r6
    2c70:	4642      	mov	r2, r8
    2c72:	4628      	mov	r0, r5
    2c74:	47b8      	blx	r7
    2c76:	3001      	adds	r0, #1
    2c78:	d1f1      	bne.n	2c5e <_printf_float+0x23e>
    2c7a:	e778      	b.n	2b6e <_printf_float+0x14e>
    2c7c:	2301      	movs	r3, #1
    2c7e:	465a      	mov	r2, r11
    2c80:	4631      	mov	r1, r6
    2c82:	4628      	mov	r0, r5
    2c84:	47b8      	blx	r7
    2c86:	3001      	adds	r0, #1
    2c88:	f43f af71 	beq.w	2b6e <_printf_float+0x14e>
    2c8c:	f10a 0a01 	add.w	r10, r10, #1
    2c90:	6da3      	ldr	r3, [r4, #88]	; 0x58
    2c92:	ebc9 0203 	rsb	r2, r9, r3
    2c96:	4592      	cmp	r10, r2
    2c98:	dbf0      	blt.n	2c7c <_printf_float+0x25c>
    2c9a:	eb08 0903 	add.w	r9, r8, r3
    2c9e:	9a0d      	ldr	r2, [sp, #52]	; 0x34
    2ca0:	9b0e      	ldr	r3, [sp, #56]	; 0x38
    2ca2:	429a      	cmp	r2, r3
    2ca4:	db0f      	blt.n	2cc6 <_printf_float+0x2a6>
    2ca6:	6823      	ldr	r3, [r4, #0]
    2ca8:	07da      	lsls	r2, r3, #31
    2caa:	d40c      	bmi.n	2cc6 <_printf_float+0x2a6>
    2cac:	9b0e      	ldr	r3, [sp, #56]	; 0x38
    2cae:	9a0d      	ldr	r2, [sp, #52]	; 0x34
    2cb0:	4498      	add	r8, r3
    2cb2:	ebc9 0808 	rsb	r8, r9, r8
    2cb6:	1a9b      	subs	r3, r3, r2
    2cb8:	4598      	cmp	r8, r3
    2cba:	bfa8      	it	ge
    2cbc:	4698      	movge	r8, r3
    2cbe:	f1b8 0f00 	cmp.w	r8, #0
    2cc2:	dc08      	bgt.n	2cd6 <_printf_float+0x2b6>
    2cc4:	e00f      	b.n	2ce6 <_printf_float+0x2c6>
    2cc6:	9b0a      	ldr	r3, [sp, #40]	; 0x28
    2cc8:	9a09      	ldr	r2, [sp, #36]	; 0x24
    2cca:	4631      	mov	r1, r6
    2ccc:	4628      	mov	r0, r5
    2cce:	47b8      	blx	r7
    2cd0:	3001      	adds	r0, #1
    2cd2:	d1eb      	bne.n	2cac <_printf_float+0x28c>
    2cd4:	e74b      	b.n	2b6e <_printf_float+0x14e>
    2cd6:	4643      	mov	r3, r8
    2cd8:	464a      	mov	r2, r9
    2cda:	4631      	mov	r1, r6
    2cdc:	4628      	mov	r0, r5
    2cde:	47b8      	blx	r7
    2ce0:	3001      	adds	r0, #1
    2ce2:	f43f af44 	beq.w	2b6e <_printf_float+0x14e>
    2ce6:	f04f 0900 	mov.w	r9, #0
    2cea:	ea28 78e8 	bic.w	r8, r8, r8, asr #31
    2cee:	f104 0a1a 	add.w	r10, r4, #26
    2cf2:	e009      	b.n	2d08 <_printf_float+0x2e8>
    2cf4:	2301      	movs	r3, #1
    2cf6:	4652      	mov	r2, r10
    2cf8:	4631      	mov	r1, r6
    2cfa:	4628      	mov	r0, r5
    2cfc:	47b8      	blx	r7
    2cfe:	3001      	adds	r0, #1
    2d00:	f43f af35 	beq.w	2b6e <_printf_float+0x14e>
    2d04:	f109 0901 	add.w	r9, r9, #1
    2d08:	9a0d      	ldr	r2, [sp, #52]	; 0x34
    2d0a:	9b0e      	ldr	r3, [sp, #56]	; 0x38
    2d0c:	1a9b      	subs	r3, r3, r2
    2d0e:	ebc8 0303 	rsb	r3, r8, r3
    2d12:	4599      	cmp	r9, r3
    2d14:	dbee      	blt.n	2cf4 <_printf_float+0x2d4>
    2d16:	e74b      	b.n	2bb0 <_printf_float+0x190>
    2d18:	7fefffff 	.word	0x7fefffff
    2d1c:	00008561 	.word	0x00008561
    2d20:	00008565 	.word	0x00008565
    2d24:	00008569 	.word	0x00008569
    2d28:	0000856d 	.word	0x0000856d
    2d2c:	000085ba 	.word	0x000085ba
    2d30:	9a0e      	ldr	r2, [sp, #56]	; 0x38
    2d32:	2a01      	cmp	r2, #1
    2d34:	dc01      	bgt.n	2d3a <_printf_float+0x31a>
    2d36:	07db      	lsls	r3, r3, #31
    2d38:	d538      	bpl.n	2dac <_printf_float+0x38c>
    2d3a:	2301      	movs	r3, #1
    2d3c:	4642      	mov	r2, r8
    2d3e:	4631      	mov	r1, r6
    2d40:	4628      	mov	r0, r5
    2d42:	47b8      	blx	r7
    2d44:	3001      	adds	r0, #1
    2d46:	f43f af12 	beq.w	2b6e <_printf_float+0x14e>
    2d4a:	9b0a      	ldr	r3, [sp, #40]	; 0x28
    2d4c:	9a09      	ldr	r2, [sp, #36]	; 0x24
    2d4e:	4631      	mov	r1, r6
    2d50:	4628      	mov	r0, r5
    2d52:	47b8      	blx	r7
    2d54:	3001      	adds	r0, #1
    2d56:	f43f af0a 	beq.w	2b6e <_printf_float+0x14e>
    2d5a:	e9d4 0112 	ldrd	r0, r1, [r4, #72]	; 0x48
    2d5e:	2200      	movs	r2, #0
    2d60:	2300      	movs	r3, #0
    2d62:	f004 fd41 	bl	77e8 <__aeabi_dcmpeq>
    2d66:	b120      	cbz	r0, 2d72 <_printf_float+0x352>
    2d68:	f04f 0800 	mov.w	r8, #0
    2d6c:	f104 091a 	add.w	r9, r4, #26
    2d70:	e00e      	b.n	2d90 <_printf_float+0x370>
    2d72:	9b0e      	ldr	r3, [sp, #56]	; 0x38
    2d74:	f108 0201 	add.w	r2, r8, #1
    2d78:	3b01      	subs	r3, #1
    2d7a:	e019      	b.n	2db0 <_printf_float+0x390>
    2d7c:	2301      	movs	r3, #1
    2d7e:	464a      	mov	r2, r9
    2d80:	4631      	mov	r1, r6
    2d82:	4628      	mov	r0, r5
    2d84:	47b8      	blx	r7
    2d86:	3001      	adds	r0, #1
    2d88:	f43f aef1 	beq.w	2b6e <_printf_float+0x14e>
    2d8c:	f108 0801 	add.w	r8, r8, #1
    2d90:	9b0e      	ldr	r3, [sp, #56]	; 0x38
    2d92:	3b01      	subs	r3, #1
    2d94:	4598      	cmp	r8, r3
    2d96:	dbf1      	blt.n	2d7c <_printf_float+0x35c>
    2d98:	4653      	mov	r3, r10
    2d9a:	f104 0250 	add.w	r2, r4, #80	; 0x50
    2d9e:	4631      	mov	r1, r6
    2da0:	4628      	mov	r0, r5
    2da2:	47b8      	blx	r7
    2da4:	3001      	adds	r0, #1
    2da6:	f47f af03 	bne.w	2bb0 <_printf_float+0x190>
    2daa:	e6e0      	b.n	2b6e <_printf_float+0x14e>
    2dac:	4642      	mov	r2, r8
    2dae:	2301      	movs	r3, #1
    2db0:	4631      	mov	r1, r6
    2db2:	4628      	mov	r0, r5
    2db4:	47b8      	blx	r7
    2db6:	3001      	adds	r0, #1
    2db8:	d1ee      	bne.n	2d98 <_printf_float+0x378>
    2dba:	e6d8      	b.n	2b6e <_printf_float+0x14e>
    2dbc:	2301      	movs	r3, #1
    2dbe:	464a      	mov	r2, r9
    2dc0:	4631      	mov	r1, r6
    2dc2:	4628      	mov	r0, r5
    2dc4:	47b8      	blx	r7
    2dc6:	3001      	adds	r0, #1
    2dc8:	f43f aed1 	beq.w	2b6e <_printf_float+0x14e>
    2dcc:	f108 0801 	add.w	r8, r8, #1
    2dd0:	68e3      	ldr	r3, [r4, #12]
    2dd2:	9a0f      	ldr	r2, [sp, #60]	; 0x3c
    2dd4:	1a9b      	subs	r3, r3, r2
    2dd6:	4598      	cmp	r8, r3
    2dd8:	dbf0      	blt.n	2dbc <_printf_float+0x39c>
    2dda:	68e0      	ldr	r0, [r4, #12]
    2ddc:	9b0f      	ldr	r3, [sp, #60]	; 0x3c
    2dde:	4298      	cmp	r0, r3
    2de0:	bfb8      	it	lt
    2de2:	4618      	movlt	r0, r3
    2de4:	e05d      	b.n	2ea2 <_printf_float+0x482>
    2de6:	6862      	ldr	r2, [r4, #4]
    2de8:	a80e      	add	r0, sp, #56	; 0x38
    2dea:	1c53      	adds	r3, r2, #1
    2dec:	f10d 0e34 	add.w	lr, sp, #52	; 0x34
    2df0:	f44b 6380 	orr.w	r3, r11, #1024	; 0x400
    2df4:	f47f ae74 	bne.w	2ae0 <_printf_float+0xc0>
    2df8:	2206      	movs	r2, #6
    2dfa:	e001      	b.n	2e00 <_printf_float+0x3e0>
    2dfc:	b912      	cbnz	r2, 2e04 <_printf_float+0x3e4>
    2dfe:	2201      	movs	r2, #1
    2e00:	6062      	str	r2, [r4, #4]
    2e02:	e675      	b.n	2af0 <_printf_float+0xd0>
    2e04:	2100      	movs	r1, #0
    2e06:	9106      	str	r1, [sp, #24]
    2e08:	f10d 0133 	add.w	r1, sp, #51	; 0x33
    2e0c:	e88d 000c 	stmia.w	sp, {r2, r3}
    2e10:	6023      	str	r3, [r4, #0]
    2e12:	9005      	str	r0, [sp, #20]
    2e14:	4642      	mov	r2, r8
    2e16:	f8cd 9010 	str.w	r9, [sp, #16]
    2e1a:	f8cd e00c 	str.w	lr, [sp, #12]
    2e1e:	9102      	str	r1, [sp, #8]
    2e20:	4653      	mov	r3, r10
    2e22:	4628      	mov	r0, r5
    2e24:	f7ff fd6a 	bl	28fc <__cvt>
    2e28:	4680      	mov	r8, r0
    2e2a:	9b0d      	ldr	r3, [sp, #52]	; 0x34
    2e2c:	1cd8      	adds	r0, r3, #3
    2e2e:	db02      	blt.n	2e36 <_printf_float+0x416>
    2e30:	6862      	ldr	r2, [r4, #4]
    2e32:	4293      	cmp	r3, r2
    2e34:	dd1d      	ble.n	2e72 <_printf_float+0x452>
    2e36:	f1a9 0902 	sub.w	r9, r9, #2
    2e3a:	fa5f f989 	uxtb.w	r9, r9
    2e3e:	e670      	b.n	2b22 <_printf_float+0x102>
    2e40:	3301      	adds	r3, #1
    2e42:	6123      	str	r3, [r4, #16]
    2e44:	e684      	b.n	2b50 <_printf_float+0x130>
    2e46:	f1b9 0f66 	cmp.w	r9, #102	; 0x66
    2e4a:	d114      	bne.n	2e76 <_printf_float+0x456>
    2e4c:	2900      	cmp	r1, #0
    2e4e:	6863      	ldr	r3, [r4, #4]
    2e50:	dd07      	ble.n	2e62 <_printf_float+0x442>
    2e52:	6121      	str	r1, [r4, #16]
    2e54:	b913      	cbnz	r3, 2e5c <_printf_float+0x43c>
    2e56:	6822      	ldr	r2, [r4, #0]
    2e58:	07d2      	lsls	r2, r2, #31
    2e5a:	d51d      	bpl.n	2e98 <_printf_float+0x478>
    2e5c:	3301      	adds	r3, #1
    2e5e:	440b      	add	r3, r1
    2e60:	e019      	b.n	2e96 <_printf_float+0x476>
    2e62:	b913      	cbnz	r3, 2e6a <_printf_float+0x44a>
    2e64:	6822      	ldr	r2, [r4, #0]
    2e66:	07d0      	lsls	r0, r2, #31
    2e68:	d501      	bpl.n	2e6e <_printf_float+0x44e>
    2e6a:	3302      	adds	r3, #2
    2e6c:	e013      	b.n	2e96 <_printf_float+0x476>
    2e6e:	2301      	movs	r3, #1
    2e70:	e011      	b.n	2e96 <_printf_float+0x476>
    2e72:	f04f 0967 	mov.w	r9, #103	; 0x67
    2e76:	9b0d      	ldr	r3, [sp, #52]	; 0x34
    2e78:	9a0e      	ldr	r2, [sp, #56]	; 0x38
    2e7a:	4293      	cmp	r3, r2
    2e7c:	db05      	blt.n	2e8a <_printf_float+0x46a>
    2e7e:	6822      	ldr	r2, [r4, #0]
    2e80:	6123      	str	r3, [r4, #16]
    2e82:	07d1      	lsls	r1, r2, #31
    2e84:	d508      	bpl.n	2e98 <_printf_float+0x478>
    2e86:	3301      	adds	r3, #1
    2e88:	e005      	b.n	2e96 <_printf_float+0x476>
    2e8a:	2b00      	cmp	r3, #0
    2e8c:	bfd4      	ite	le
    2e8e:	f1c3 0302 	rsble	r3, r3, #2
    2e92:	2301      	movgt	r3, #1
    2e94:	4413      	add	r3, r2
    2e96:	6123      	str	r3, [r4, #16]
    2e98:	9b0d      	ldr	r3, [sp, #52]	; 0x34
    2e9a:	f04f 0a00 	mov.w	r10, #0
    2e9e:	65a3      	str	r3, [r4, #88]	; 0x58
    2ea0:	e656      	b.n	2b50 <_printf_float+0x130>
    2ea2:	b011      	add	sp, #68	; 0x44
    2ea4:	e8bd 8ff0 	ldmia.w	sp!, {r4, r5, r6, r7, r8, r9, r10, r11, pc}

00002ea8 <_printf_common>:
    2ea8:	e92d 47f0 	stmdb	sp!, {r4, r5, r6, r7, r8, r9, r10, lr}
    2eac:	4691      	mov	r9, r2
    2eae:	461f      	mov	r7, r3
    2eb0:	690a      	ldr	r2, [r1, #16]
    2eb2:	688b      	ldr	r3, [r1, #8]
    2eb4:	4606      	mov	r6, r0
    2eb6:	4293      	cmp	r3, r2
    2eb8:	bfb8      	it	lt
    2eba:	4613      	movlt	r3, r2
    2ebc:	f8c9 3000 	str.w	r3, [r9]
    2ec0:	f891 2043 	ldrb.w	r2, [r1, #67]	; 0x43
    2ec4:	460c      	mov	r4, r1
    2ec6:	f8dd 8020 	ldr.w	r8, [sp, #32]
    2eca:	b112      	cbz	r2, 2ed2 <_printf_common+0x2a>
    2ecc:	3301      	adds	r3, #1
    2ece:	f8c9 3000 	str.w	r3, [r9]
    2ed2:	6823      	ldr	r3, [r4, #0]
    2ed4:	0699      	lsls	r1, r3, #26
    2ed6:	bf42      	ittt	mi
    2ed8:	f8d9 3000 	ldrmi.w	r3, [r9]
    2edc:	3302      	addmi	r3, #2
    2ede:	f8c9 3000 	strmi.w	r3, [r9]
    2ee2:	6825      	ldr	r5, [r4, #0]
    2ee4:	f015 0506 	ands.w	r5, r5, #6
    2ee8:	d110      	bne.n	2f0c <_printf_common+0x64>
    2eea:	f104 0a19 	add.w	r10, r4, #25
    2eee:	e007      	b.n	2f00 <_printf_common+0x58>
    2ef0:	2301      	movs	r3, #1
    2ef2:	4652      	mov	r2, r10
    2ef4:	4639      	mov	r1, r7
    2ef6:	4630      	mov	r0, r6
    2ef8:	47c0      	blx	r8
    2efa:	3001      	adds	r0, #1
    2efc:	d01a      	beq.n	2f34 <_printf_common+0x8c>
    2efe:	3501      	adds	r5, #1
    2f00:	68e3      	ldr	r3, [r4, #12]
    2f02:	f8d9 2000 	ldr.w	r2, [r9]
    2f06:	1a9b      	subs	r3, r3, r2
    2f08:	429d      	cmp	r5, r3
    2f0a:	dbf1      	blt.n	2ef0 <_printf_common+0x48>
    2f0c:	f894 3043 	ldrb.w	r3, [r4, #67]	; 0x43
    2f10:	6822      	ldr	r2, [r4, #0]
    2f12:	3300      	adds	r3, #0
    2f14:	bf18      	it	ne
    2f16:	2301      	movne	r3, #1
    2f18:	0692      	lsls	r2, r2, #26
    2f1a:	d50f      	bpl.n	2f3c <_printf_common+0x94>
    2f1c:	18e1      	adds	r1, r4, r3
    2f1e:	2030      	movs	r0, #48	; 0x30
    2f20:	f881 0043 	strb.w	r0, [r1, #67]	; 0x43
    2f24:	1c5a      	adds	r2, r3, #1
    2f26:	f894 1045 	ldrb.w	r1, [r4, #69]	; 0x45
    2f2a:	4422      	add	r2, r4
    2f2c:	3302      	adds	r3, #2
    2f2e:	f882 1043 	strb.w	r1, [r2, #67]	; 0x43
    2f32:	e003      	b.n	2f3c <_printf_common+0x94>
    2f34:	f04f 30ff 	mov.w	r0, #4294967295
    2f38:	e8bd 87f0 	ldmia.w	sp!, {r4, r5, r6, r7, r8, r9, r10, pc}
    2f3c:	f104 0243 	add.w	r2, r4, #67	; 0x43
    2f40:	4639      	mov	r1, r7
    2f42:	4630      	mov	r0, r6
    2f44:	47c0      	blx	r8
    2f46:	3001      	adds	r0, #1
    2f48:	d0f4      	beq.n	2f34 <_printf_common+0x8c>
    2f4a:	6822      	ldr	r2, [r4, #0]
    2f4c:	f8d9 5000 	ldr.w	r5, [r9]
    2f50:	68e3      	ldr	r3, [r4, #12]
    2f52:	f002 0206 	and.w	r2, r2, #6
    2f56:	2a04      	cmp	r2, #4
    2f58:	bf08      	it	eq
    2f5a:	1b5d      	subeq	r5, r3, r5
    2f5c:	6922      	ldr	r2, [r4, #16]
    2f5e:	68a3      	ldr	r3, [r4, #8]
    2f60:	bf0c      	ite	eq
    2f62:	ea25 75e5 	biceq.w	r5, r5, r5, asr #31
    2f66:	2500      	movne	r5, #0
    2f68:	4293      	cmp	r3, r2
    2f6a:	bfc4      	itt	gt
    2f6c:	1a9b      	subgt	r3, r3, r2
    2f6e:	18ed      	addgt	r5, r5, r3
    2f70:	f04f 0900 	mov.w	r9, #0
    2f74:	341a      	adds	r4, #26
    2f76:	454d      	cmp	r5, r9
    2f78:	d009      	beq.n	2f8e <_printf_common+0xe6>
    2f7a:	2301      	movs	r3, #1
    2f7c:	4622      	mov	r2, r4
    2f7e:	4639      	mov	r1, r7
    2f80:	4630      	mov	r0, r6
    2f82:	47c0      	blx	r8
    2f84:	3001      	adds	r0, #1
    2f86:	d0d5      	beq.n	2f34 <_printf_common+0x8c>
    2f88:	f109 0901 	add.w	r9, r9, #1
    2f8c:	e7f3      	b.n	2f76 <_printf_common+0xce>
    2f8e:	2000      	movs	r0, #0
    2f90:	e8bd 87f0 	ldmia.w	sp!, {r4, r5, r6, r7, r8, r9, r10, pc}

00002f94 <_printf_i>:
    2f94:	e92d 43f0 	stmdb	sp!, {r4, r5, r6, r7, r8, r9, lr}
    2f98:	4617      	mov	r7, r2
    2f9a:	7e0a      	ldrb	r2, [r1, #24]
    2f9c:	b085      	sub	sp, #20
    2f9e:	2a6e      	cmp	r2, #110	; 0x6e
    2fa0:	4698      	mov	r8, r3
    2fa2:	4606      	mov	r6, r0
    2fa4:	460c      	mov	r4, r1
    2fa6:	9b0c      	ldr	r3, [sp, #48]	; 0x30
    2fa8:	f101 0e43 	add.w	lr, r1, #67	; 0x43
    2fac:	f000 80ae 	beq.w	310c <_printf_i+0x178>
    2fb0:	d811      	bhi.n	2fd6 <_printf_i+0x42>
    2fb2:	2a63      	cmp	r2, #99	; 0x63
    2fb4:	d022      	beq.n	2ffc <_printf_i+0x68>
    2fb6:	d809      	bhi.n	2fcc <_printf_i+0x38>
    2fb8:	2a00      	cmp	r2, #0
    2fba:	f000 80bb 	beq.w	3134 <_printf_i+0x1a0>
    2fbe:	2a58      	cmp	r2, #88	; 0x58
    2fc0:	f040 80ca 	bne.w	3158 <_printf_i+0x1c4>
    2fc4:	f881 2045 	strb.w	r2, [r1, #69]	; 0x45
    2fc8:	4983      	ldr	r1, [pc, #524]	; (31d8 <_printf_i+0x244>)
    2fca:	e055      	b.n	3078 <_printf_i+0xe4>
    2fcc:	2a64      	cmp	r2, #100	; 0x64
    2fce:	d01e      	beq.n	300e <_printf_i+0x7a>
    2fd0:	2a69      	cmp	r2, #105	; 0x69
    2fd2:	d01c      	beq.n	300e <_printf_i+0x7a>
    2fd4:	e0c0      	b.n	3158 <_printf_i+0x1c4>
    2fd6:	2a73      	cmp	r2, #115	; 0x73
    2fd8:	f000 80b0 	beq.w	313c <_printf_i+0x1a8>
    2fdc:	d809      	bhi.n	2ff2 <_printf_i+0x5e>
    2fde:	2a6f      	cmp	r2, #111	; 0x6f
    2fe0:	d02e      	beq.n	3040 <_printf_i+0xac>
    2fe2:	2a70      	cmp	r2, #112	; 0x70
    2fe4:	f040 80b8 	bne.w	3158 <_printf_i+0x1c4>
    2fe8:	680a      	ldr	r2, [r1, #0]
    2fea:	f042 0220 	orr.w	r2, r2, #32
    2fee:	600a      	str	r2, [r1, #0]
    2ff0:	e03e      	b.n	3070 <_printf_i+0xdc>
    2ff2:	2a75      	cmp	r2, #117	; 0x75
    2ff4:	d024      	beq.n	3040 <_printf_i+0xac>
    2ff6:	2a78      	cmp	r2, #120	; 0x78
    2ff8:	d03a      	beq.n	3070 <_printf_i+0xdc>
    2ffa:	e0ad      	b.n	3158 <_printf_i+0x1c4>
    2ffc:	681a      	ldr	r2, [r3, #0]
    2ffe:	f101 0542 	add.w	r5, r1, #66	; 0x42
    3002:	1d11      	adds	r1, r2, #4
    3004:	6019      	str	r1, [r3, #0]
    3006:	6813      	ldr	r3, [r2, #0]
    3008:	f884 3042 	strb.w	r3, [r4, #66]	; 0x42
    300c:	e0a8      	b.n	3160 <_printf_i+0x1cc>
    300e:	6821      	ldr	r1, [r4, #0]
    3010:	681a      	ldr	r2, [r3, #0]
    3012:	f011 0f80 	tst.w	r1, #128	; 0x80
    3016:	d002      	beq.n	301e <_printf_i+0x8a>
    3018:	1d11      	adds	r1, r2, #4
    301a:	6019      	str	r1, [r3, #0]
    301c:	e008      	b.n	3030 <_printf_i+0x9c>
    301e:	f011 0f40 	tst.w	r1, #64	; 0x40
    3022:	f102 0104 	add.w	r1, r2, #4
    3026:	6019      	str	r1, [r3, #0]
    3028:	d002      	beq.n	3030 <_printf_i+0x9c>
    302a:	f9b2 3000 	ldrsh.w	r3, [r2]
    302e:	e000      	b.n	3032 <_printf_i+0x9e>
    3030:	6813      	ldr	r3, [r2, #0]
    3032:	2b00      	cmp	r3, #0
    3034:	da3c      	bge.n	30b0 <_printf_i+0x11c>
    3036:	222d      	movs	r2, #45	; 0x2d
    3038:	425b      	negs	r3, r3
    303a:	f884 2043 	strb.w	r2, [r4, #67]	; 0x43
    303e:	e037      	b.n	30b0 <_printf_i+0x11c>
    3040:	6821      	ldr	r1, [r4, #0]
    3042:	681a      	ldr	r2, [r3, #0]
    3044:	f011 0f80 	tst.w	r1, #128	; 0x80
    3048:	d002      	beq.n	3050 <_printf_i+0xbc>
    304a:	1d11      	adds	r1, r2, #4
    304c:	6019      	str	r1, [r3, #0]
    304e:	e007      	b.n	3060 <_printf_i+0xcc>
    3050:	f011 0f40 	tst.w	r1, #64	; 0x40
    3054:	f102 0104 	add.w	r1, r2, #4
    3058:	6019      	str	r1, [r3, #0]
    305a:	d001      	beq.n	3060 <_printf_i+0xcc>
    305c:	8813      	ldrh	r3, [r2, #0]
    305e:	e000      	b.n	3062 <_printf_i+0xce>
    3060:	6813      	ldr	r3, [r2, #0]
    3062:	7e22      	ldrb	r2, [r4, #24]
    3064:	495c      	ldr	r1, [pc, #368]	; (31d8 <_printf_i+0x244>)
    3066:	2a6f      	cmp	r2, #111	; 0x6f
    3068:	bf14      	ite	ne
    306a:	220a      	movne	r2, #10
    306c:	2208      	moveq	r2, #8
    306e:	e01b      	b.n	30a8 <_printf_i+0x114>
    3070:	2278      	movs	r2, #120	; 0x78
    3072:	495a      	ldr	r1, [pc, #360]	; (31dc <_printf_i+0x248>)
    3074:	f884 2045 	strb.w	r2, [r4, #69]	; 0x45
    3078:	6822      	ldr	r2, [r4, #0]
    307a:	6818      	ldr	r0, [r3, #0]
    307c:	f012 0f80 	tst.w	r2, #128	; 0x80
    3080:	f100 0504 	add.w	r5, r0, #4
    3084:	601d      	str	r5, [r3, #0]
    3086:	d103      	bne.n	3090 <_printf_i+0xfc>
    3088:	0655      	lsls	r5, r2, #25
    308a:	d501      	bpl.n	3090 <_printf_i+0xfc>
    308c:	8803      	ldrh	r3, [r0, #0]
    308e:	e000      	b.n	3092 <_printf_i+0xfe>
    3090:	6803      	ldr	r3, [r0, #0]
    3092:	07d0      	lsls	r0, r2, #31
    3094:	bf44      	itt	mi
    3096:	f042 0220 	orrmi.w	r2, r2, #32
    309a:	6022      	strmi	r2, [r4, #0]
    309c:	b91b      	cbnz	r3, 30a6 <_printf_i+0x112>
    309e:	6822      	ldr	r2, [r4, #0]
    30a0:	f022 0220 	bic.w	r2, r2, #32
    30a4:	6022      	str	r2, [r4, #0]
    30a6:	2210      	movs	r2, #16
    30a8:	2000      	movs	r0, #0
    30aa:	f884 0043 	strb.w	r0, [r4, #67]	; 0x43
    30ae:	e001      	b.n	30b4 <_printf_i+0x120>
    30b0:	4949      	ldr	r1, [pc, #292]	; (31d8 <_printf_i+0x244>)
    30b2:	220a      	movs	r2, #10
    30b4:	6865      	ldr	r5, [r4, #4]
    30b6:	2d00      	cmp	r5, #0
    30b8:	60a5      	str	r5, [r4, #8]
    30ba:	db08      	blt.n	30ce <_printf_i+0x13a>
    30bc:	6820      	ldr	r0, [r4, #0]
    30be:	f020 0004 	bic.w	r0, r0, #4
    30c2:	6020      	str	r0, [r4, #0]
    30c4:	b92b      	cbnz	r3, 30d2 <_printf_i+0x13e>
    30c6:	2d00      	cmp	r5, #0
    30c8:	d17d      	bne.n	31c6 <_printf_i+0x232>
    30ca:	4675      	mov	r5, lr
    30cc:	e00c      	b.n	30e8 <_printf_i+0x154>
    30ce:	2b00      	cmp	r3, #0
    30d0:	d079      	beq.n	31c6 <_printf_i+0x232>
    30d2:	4675      	mov	r5, lr
    30d4:	fbb3 f0f2 	udiv	r0, r3, r2
    30d8:	fb02 3310 	mls	r3, r2, r0, r3
    30dc:	5ccb      	ldrb	r3, [r1, r3]
    30de:	f805 3d01 	strb.w	r3, [r5, #-1]!
    30e2:	4603      	mov	r3, r0
    30e4:	2800      	cmp	r0, #0
    30e6:	d1f5      	bne.n	30d4 <_printf_i+0x140>
    30e8:	2a08      	cmp	r2, #8
    30ea:	d10b      	bne.n	3104 <_printf_i+0x170>
    30ec:	6823      	ldr	r3, [r4, #0]
    30ee:	07da      	lsls	r2, r3, #31
    30f0:	d508      	bpl.n	3104 <_printf_i+0x170>
    30f2:	6923      	ldr	r3, [r4, #16]
    30f4:	6862      	ldr	r2, [r4, #4]
    30f6:	429a      	cmp	r2, r3
    30f8:	bfde      	ittt	le
    30fa:	2330      	movle	r3, #48	; 0x30
    30fc:	f805 3c01 	strble.w	r3, [r5, #-1]
    3100:	f105 35ff 	addle.w	r5, r5, #4294967295
    3104:	ebc5 030e 	rsb	r3, r5, lr
    3108:	6123      	str	r3, [r4, #16]
    310a:	e02e      	b.n	316a <_printf_i+0x1d6>
    310c:	6808      	ldr	r0, [r1, #0]
    310e:	681a      	ldr	r2, [r3, #0]
    3110:	f010 0f80 	tst.w	r0, #128	; 0x80
    3114:	6949      	ldr	r1, [r1, #20]
    3116:	d003      	beq.n	3120 <_printf_i+0x18c>
    3118:	1d10      	adds	r0, r2, #4
    311a:	6018      	str	r0, [r3, #0]
    311c:	6813      	ldr	r3, [r2, #0]
    311e:	e008      	b.n	3132 <_printf_i+0x19e>
    3120:	f010 0f40 	tst.w	r0, #64	; 0x40
    3124:	f102 0004 	add.w	r0, r2, #4
    3128:	6018      	str	r0, [r3, #0]
    312a:	6813      	ldr	r3, [r2, #0]
    312c:	d001      	beq.n	3132 <_printf_i+0x19e>
    312e:	8019      	strh	r1, [r3, #0]
    3130:	e000      	b.n	3134 <_printf_i+0x1a0>
    3132:	6019      	str	r1, [r3, #0]
    3134:	2300      	movs	r3, #0
    3136:	6123      	str	r3, [r4, #16]
    3138:	4675      	mov	r5, lr
    313a:	e016      	b.n	316a <_printf_i+0x1d6>
    313c:	681a      	ldr	r2, [r3, #0]
    313e:	1d11      	adds	r1, r2, #4
    3140:	6019      	str	r1, [r3, #0]
    3142:	6815      	ldr	r5, [r2, #0]
    3144:	2100      	movs	r1, #0
    3146:	6862      	ldr	r2, [r4, #4]
    3148:	4628      	mov	r0, r5
    314a:	f7ff f9ad 	bl	24a8 <memchr>
    314e:	b108      	cbz	r0, 3154 <_printf_i+0x1c0>
    3150:	1b40      	subs	r0, r0, r5
    3152:	6060      	str	r0, [r4, #4]
    3154:	6863      	ldr	r3, [r4, #4]
    3156:	e004      	b.n	3162 <_printf_i+0x1ce>
    3158:	f104 0542 	add.w	r5, r4, #66	; 0x42
    315c:	f884 2042 	strb.w	r2, [r4, #66]	; 0x42
    3160:	2301      	movs	r3, #1
    3162:	6123      	str	r3, [r4, #16]
    3164:	2300      	movs	r3, #0
    3166:	f884 3043 	strb.w	r3, [r4, #67]	; 0x43
    316a:	f8cd 8000 	str.w	r8, [sp]
    316e:	463b      	mov	r3, r7
    3170:	aa03      	add	r2, sp, #12
    3172:	4621      	mov	r1, r4
    3174:	4630      	mov	r0, r6
    3176:	f7ff fe97 	bl	2ea8 <_printf_common>
    317a:	3001      	adds	r0, #1
    317c:	d102      	bne.n	3184 <_printf_i+0x1f0>
    317e:	f04f 30ff 	mov.w	r0, #4294967295
    3182:	e026      	b.n	31d2 <_printf_i+0x23e>
    3184:	6923      	ldr	r3, [r4, #16]
    3186:	462a      	mov	r2, r5
    3188:	4639      	mov	r1, r7
    318a:	4630      	mov	r0, r6
    318c:	47c0      	blx	r8
    318e:	3001      	adds	r0, #1
    3190:	d0f5      	beq.n	317e <_printf_i+0x1ea>
    3192:	6823      	ldr	r3, [r4, #0]
    3194:	079b      	lsls	r3, r3, #30
    3196:	d510      	bpl.n	31ba <_printf_i+0x226>
    3198:	2500      	movs	r5, #0
    319a:	f104 0919 	add.w	r9, r4, #25
    319e:	e007      	b.n	31b0 <_printf_i+0x21c>
    31a0:	2301      	movs	r3, #1
    31a2:	464a      	mov	r2, r9
    31a4:	4639      	mov	r1, r7
    31a6:	4630      	mov	r0, r6
    31a8:	47c0      	blx	r8
    31aa:	3001      	adds	r0, #1
    31ac:	d0e7      	beq.n	317e <_printf_i+0x1ea>
    31ae:	3501      	adds	r5, #1
    31b0:	68e3      	ldr	r3, [r4, #12]
    31b2:	9a03      	ldr	r2, [sp, #12]
    31b4:	1a9b      	subs	r3, r3, r2
    31b6:	429d      	cmp	r5, r3
    31b8:	dbf2      	blt.n	31a0 <_printf_i+0x20c>
    31ba:	68e0      	ldr	r0, [r4, #12]
    31bc:	9b03      	ldr	r3, [sp, #12]
    31be:	4298      	cmp	r0, r3
    31c0:	bfb8      	it	lt
    31c2:	4618      	movlt	r0, r3
    31c4:	e005      	b.n	31d2 <_printf_i+0x23e>
    31c6:	780b      	ldrb	r3, [r1, #0]
    31c8:	f104 0542 	add.w	r5, r4, #66	; 0x42
    31cc:	f884 3042 	strb.w	r3, [r4, #66]	; 0x42
    31d0:	e78a      	b.n	30e8 <_printf_i+0x154>
    31d2:	b005      	add	sp, #20
    31d4:	e8bd 83f0 	ldmia.w	sp!, {r4, r5, r6, r7, r8, r9, pc}
    31d8:	00008571 	.word	0x00008571
    31dc:	00008582 	.word	0x00008582

000031e0 <_scanf_float>:
    31e0:	e92d 4ff0 	stmdb	sp!, {r4, r5, r6, r7, r8, r9, r10, r11, lr}
    31e4:	469a      	mov	r10, r3
    31e6:	688b      	ldr	r3, [r1, #8]
    31e8:	4616      	mov	r6, r2
    31ea:	1e5a      	subs	r2, r3, #1
    31ec:	f5b2 7fae 	cmp.w	r2, #348	; 0x15c
    31f0:	bf88      	it	hi
    31f2:	f46f 72ae 	mvnhi.w	r2, #348	; 0x15c
    31f6:	b087      	sub	sp, #28
    31f8:	bf82      	ittt	hi
    31fa:	189b      	addhi	r3, r3, r2
    31fc:	9301      	strhi	r3, [sp, #4]
    31fe:	f240 135d 	movwhi	r3, #349	; 0x15d
    3202:	4688      	mov	r8, r1
    3204:	bf96      	itet	ls
    3206:	2300      	movls	r3, #0
    3208:	608b      	strhi	r3, [r1, #8]
    320a:	9301      	strls	r3, [sp, #4]
    320c:	680b      	ldr	r3, [r1, #0]
    320e:	f04f 0b00 	mov.w	r11, #0
    3212:	f443 63f0 	orr.w	r3, r3, #1920	; 0x780
    3216:	f848 3b1c 	str.w	r3, [r8], #28
    321a:	4607      	mov	r7, r0
    321c:	460c      	mov	r4, r1
    321e:	4645      	mov	r5, r8
    3220:	465a      	mov	r2, r11
    3222:	46d9      	mov	r9, r11
    3224:	f8cd b010 	str.w	r11, [sp, #16]
    3228:	f8cd b00c 	str.w	r11, [sp, #12]
    322c:	f8cd b008 	str.w	r11, [sp, #8]
    3230:	68a1      	ldr	r1, [r4, #8]
    3232:	2900      	cmp	r1, #0
    3234:	f000 80e5 	beq.w	3402 <_scanf_float+0x222>
    3238:	6833      	ldr	r3, [r6, #0]
    323a:	781b      	ldrb	r3, [r3, #0]
    323c:	2b49      	cmp	r3, #73	; 0x49
    323e:	d070      	beq.n	3322 <_scanf_float+0x142>
    3240:	d816      	bhi.n	3270 <_scanf_float+0x90>
    3242:	2b39      	cmp	r3, #57	; 0x39
    3244:	d80d      	bhi.n	3262 <_scanf_float+0x82>
    3246:	2b31      	cmp	r3, #49	; 0x31
    3248:	d240      	bcs.n	32cc <_scanf_float+0xec>
    324a:	2b2d      	cmp	r3, #45	; 0x2d
    324c:	d046      	beq.n	32dc <_scanf_float+0xfc>
    324e:	d802      	bhi.n	3256 <_scanf_float+0x76>
    3250:	2b2b      	cmp	r3, #43	; 0x2b
    3252:	d043      	beq.n	32dc <_scanf_float+0xfc>
    3254:	e0d5      	b.n	3402 <_scanf_float+0x222>
    3256:	2b2e      	cmp	r3, #46	; 0x2e
    3258:	f000 8092 	beq.w	3380 <_scanf_float+0x1a0>
    325c:	2b30      	cmp	r3, #48	; 0x30
    325e:	d023      	beq.n	32a8 <_scanf_float+0xc8>
    3260:	e0cf      	b.n	3402 <_scanf_float+0x222>
    3262:	2b45      	cmp	r3, #69	; 0x45
    3264:	f000 8095 	beq.w	3392 <_scanf_float+0x1b2>
    3268:	2b46      	cmp	r3, #70	; 0x46
    326a:	d077      	beq.n	335c <_scanf_float+0x17c>
    326c:	2b41      	cmp	r3, #65	; 0x41
    326e:	e00c      	b.n	328a <_scanf_float+0xaa>
    3270:	2b65      	cmp	r3, #101	; 0x65
    3272:	f000 808e 	beq.w	3392 <_scanf_float+0x1b2>
    3276:	d80a      	bhi.n	328e <_scanf_float+0xae>
    3278:	2b54      	cmp	r3, #84	; 0x54
    327a:	d075      	beq.n	3368 <_scanf_float+0x188>
    327c:	d802      	bhi.n	3284 <_scanf_float+0xa4>
    327e:	2b4e      	cmp	r3, #78	; 0x4e
    3280:	d034      	beq.n	32ec <_scanf_float+0x10c>
    3282:	e0be      	b.n	3402 <_scanf_float+0x222>
    3284:	2b59      	cmp	r3, #89	; 0x59
    3286:	d075      	beq.n	3374 <_scanf_float+0x194>
    3288:	2b61      	cmp	r3, #97	; 0x61
    328a:	d046      	beq.n	331a <_scanf_float+0x13a>
    328c:	e0b9      	b.n	3402 <_scanf_float+0x222>
    328e:	2b6e      	cmp	r3, #110	; 0x6e
    3290:	d02c      	beq.n	32ec <_scanf_float+0x10c>
    3292:	d804      	bhi.n	329e <_scanf_float+0xbe>
    3294:	2b66      	cmp	r3, #102	; 0x66
    3296:	d061      	beq.n	335c <_scanf_float+0x17c>
    3298:	2b69      	cmp	r3, #105	; 0x69
    329a:	d042      	beq.n	3322 <_scanf_float+0x142>
    329c:	e0b1      	b.n	3402 <_scanf_float+0x222>
    329e:	2b74      	cmp	r3, #116	; 0x74
    32a0:	d062      	beq.n	3368 <_scanf_float+0x188>
    32a2:	2b79      	cmp	r3, #121	; 0x79
    32a4:	d066      	beq.n	3374 <_scanf_float+0x194>
    32a6:	e0ac      	b.n	3402 <_scanf_float+0x222>
    32a8:	6820      	ldr	r0, [r4, #0]
    32aa:	f410 7f80 	tst.w	r0, #256	; 0x100
    32ae:	d00d      	beq.n	32cc <_scanf_float+0xec>
    32b0:	9b01      	ldr	r3, [sp, #4]
    32b2:	f020 0080 	bic.w	r0, r0, #128	; 0x80
    32b6:	6020      	str	r0, [r4, #0]
    32b8:	f109 0901 	add.w	r9, r9, #1
    32bc:	2b00      	cmp	r3, #0
    32be:	f000 8087 	beq.w	33d0 <_scanf_float+0x1f0>
    32c2:	3b01      	subs	r3, #1
    32c4:	3101      	adds	r1, #1
    32c6:	9301      	str	r3, [sp, #4]
    32c8:	60a1      	str	r1, [r4, #8]
    32ca:	e081      	b.n	33d0 <_scanf_float+0x1f0>
    32cc:	eb12 0f0b 	cmn.w	r2, r11
    32d0:	f040 8097 	bne.w	3402 <_scanf_float+0x222>
    32d4:	6821      	ldr	r1, [r4, #0]
    32d6:	f421 71c0 	bic.w	r1, r1, #384	; 0x180
    32da:	e005      	b.n	32e8 <_scanf_float+0x108>
    32dc:	6821      	ldr	r1, [r4, #0]
    32de:	0608      	lsls	r0, r1, #24
    32e0:	f140 808f 	bpl.w	3402 <_scanf_float+0x222>
    32e4:	f021 0180 	bic.w	r1, r1, #128	; 0x80
    32e8:	6021      	str	r1, [r4, #0]
    32ea:	e06f      	b.n	33cc <_scanf_float+0x1ec>
    32ec:	b96a      	cbnz	r2, 330a <_scanf_float+0x12a>
    32ee:	f1b9 0f00 	cmp.w	r9, #0
    32f2:	d10c      	bne.n	330e <_scanf_float+0x12e>
    32f4:	6821      	ldr	r1, [r4, #0]
    32f6:	f401 60e0 	and.w	r0, r1, #1792	; 0x700
    32fa:	f5b0 6fe0 	cmp.w	r0, #1792	; 0x700
    32fe:	d106      	bne.n	330e <_scanf_float+0x12e>
    3300:	f421 61f0 	bic.w	r1, r1, #1920	; 0x780
    3304:	6021      	str	r1, [r4, #0]
    3306:	2201      	movs	r2, #1
    3308:	e060      	b.n	33cc <_scanf_float+0x1ec>
    330a:	2a02      	cmp	r2, #2
    330c:	d05d      	beq.n	33ca <_scanf_float+0x1ea>
    330e:	f1bb 0f01 	cmp.w	r11, #1
    3312:	d01e      	beq.n	3352 <_scanf_float+0x172>
    3314:	f1bb 0f04 	cmp.w	r11, #4
    3318:	e01a      	b.n	3350 <_scanf_float+0x170>
    331a:	2a01      	cmp	r2, #1
    331c:	d171      	bne.n	3402 <_scanf_float+0x222>
    331e:	2202      	movs	r2, #2
