
test_gcc_arm.elf:     file format elf32-littlearm
architecture: arm, flags 0x00000112:
EXEC_P, HAS_SYMS, D_PAGED
start address 0x00000455


Disassembly of section .text:

00000000 <__isr_vector>:
       0:	10008000 	.word	0x10008000
       4:	00000455 	.word	0x00000455
       8:	00000489 	.word	0x00000489
       c:	0000048b 	.word	0x0000048b
      10:	0000048d 	.word	0x0000048d
      14:	0000048f 	.word	0x0000048f
      18:	00000491 	.word	0x00000491
	...
      2c:	00000493 	.word	0x00000493
      30:	00000495 	.word	0x00000495
      34:	00000000 	.word	0x00000000
      38:	00000497 	.word	0x00000497
      3c:	00000499 	.word	0x00000499
      40:	0000049d 	.word	0x0000049d
      44:	0000049f 	.word	0x0000049f
      48:	000004a1 	.word	0x000004a1
      4c:	000004a3 	.word	0x000004a3
      50:	000004a5 	.word	0x000004a5
      54:	000004a7 	.word	0x000004a7
      58:	000004a9 	.word	0x000004a9
      5c:	000004ab 	.word	0x000004ab
      60:	000004ad 	.word	0x000004ad
      64:	000004af 	.word	0x000004af
      68:	000004b1 	.word	0x000004b1
      6c:	000004b3 	.word	0x000004b3
      70:	000004b5 	.word	0x000004b5
      74:	000004b7 	.word	0x000004b7
      78:	000004b9 	.word	0x000004b9
      7c:	000004bb 	.word	0x000004bb
      80:	000004bd 	.word	0x000004bd
      84:	000004bf 	.word	0x000004bf
      88:	000004c1 	.word	0x000004c1
      8c:	000004c3 	.word	0x000004c3
      90:	000004c5 	.word	0x000004c5
      94:	000004c7 	.word	0x000004c7
      98:	000004c9 	.word	0x000004c9
      9c:	000004cb 	.word	0x000004cb
      a0:	000004cd 	.word	0x000004cd
      a4:	000004cf 	.word	0x000004cf
      a8:	000004d1 	.word	0x000004d1
      ac:	000004d3 	.word	0x000004d3
      b0:	000004d5 	.word	0x000004d5
      b4:	000004d7 	.word	0x000004d7
      b8:	000004d9 	.word	0x000004d9
      bc:	000004db 	.word	0x000004db
      c0:	000004dd 	.word	0x000004dd
      c4:	000004df 	.word	0x000004df
      c8:	000004e1 	.word	0x000004e1

000000cc <__do_global_dtors_aux>:
      cc:	b510      	push	{r4, lr}
      ce:	4c05      	ldr	r4, [pc, #20]	; (e4 <__do_global_dtors_aux+0x18>)
      d0:	7823      	ldrb	r3, [r4, #0]
      d2:	b933      	cbnz	r3, e2 <__do_global_dtors_aux+0x16>
      d4:	4b04      	ldr	r3, [pc, #16]	; (e8 <__do_global_dtors_aux+0x1c>)
      d6:	b113      	cbz	r3, de <__do_global_dtors_aux+0x12>
      d8:	4804      	ldr	r0, [pc, #16]	; (ec <__do_global_dtors_aux+0x20>)
      da:	f3af 8000 	nop.w
      de:	2301      	movs	r3, #1
      e0:	7023      	strb	r3, [r4, #0]
      e2:	bd10      	pop	{r4, pc}
      e4:	100002b4 	.word	0x100002b4
      e8:	00000000 	.word	0x00000000
      ec:	00008828 	.word	0x00008828

000000f0 <frame_dummy>:
      f0:	4b08      	ldr	r3, [pc, #32]	; (114 <frame_dummy+0x24>)
      f2:	b510      	push	{r4, lr}
      f4:	b11b      	cbz	r3, fe <frame_dummy+0xe>
      f6:	4908      	ldr	r1, [pc, #32]	; (118 <frame_dummy+0x28>)
      f8:	4808      	ldr	r0, [pc, #32]	; (11c <frame_dummy+0x2c>)
      fa:	f3af 8000 	nop.w
      fe:	4808      	ldr	r0, [pc, #32]	; (120 <frame_dummy+0x30>)
     100:	6803      	ldr	r3, [r0, #0]
     102:	b903      	cbnz	r3, 106 <frame_dummy+0x16>
     104:	bd10      	pop	{r4, pc}
     106:	4b07      	ldr	r3, [pc, #28]	; (124 <frame_dummy+0x34>)
     108:	2b00      	cmp	r3, #0
     10a:	d0fb      	beq.n	104 <frame_dummy+0x14>
     10c:	e8bd 4010 	ldmia.w	sp!, {r4, lr}
     110:	4718      	bx	r3
     112:	bf00      	nop
     114:	00000000 	.word	0x00000000
     118:	100002b8 	.word	0x100002b8
     11c:	00008828 	.word	0x00008828
     120:	100002b4 	.word	0x100002b4
     124:	00000000 	.word	0x00000000

00000128 <_mainCRTStartup>:
     128:	4b15      	ldr	r3, [pc, #84]	; (180 <_mainCRTStartup+0x58>)
     12a:	2b00      	cmp	r3, #0
     12c:	bf08      	it	eq
     12e:	4b13      	ldreq	r3, [pc, #76]	; (17c <_mainCRTStartup+0x54>)
     130:	469d      	mov	sp, r3
     132:	f5a3 3a80 	sub.w	r10, r3, #65536	; 0x10000
     136:	2100      	movs	r1, #0
     138:	468b      	mov	r11, r1
     13a:	460f      	mov	r7, r1
     13c:	4813      	ldr	r0, [pc, #76]	; (18c <_mainCRTStartup+0x64>)
     13e:	4a14      	ldr	r2, [pc, #80]	; (190 <_mainCRTStartup+0x68>)
     140:	1a12      	subs	r2, r2, r0
     142:	f002 f9e5 	bl	2510 <memset>
     146:	4b0f      	ldr	r3, [pc, #60]	; (184 <_mainCRTStartup+0x5c>)
     148:	2b00      	cmp	r3, #0
     14a:	d000      	beq.n	14e <_mainCRTStartup+0x26>
     14c:	4798      	blx	r3
     14e:	4b0e      	ldr	r3, [pc, #56]	; (188 <_mainCRTStartup+0x60>)
     150:	2b00      	cmp	r3, #0
     152:	d000      	beq.n	156 <_mainCRTStartup+0x2e>
     154:	4798      	blx	r3
     156:	2000      	movs	r0, #0
     158:	2100      	movs	r1, #0
     15a:	0004      	movs	r4, r0
     15c:	000d      	movs	r5, r1
     15e:	480d      	ldr	r0, [pc, #52]	; (194 <_mainCRTStartup+0x6c>)
     160:	2800      	cmp	r0, #0
     162:	d002      	beq.n	16a <_mainCRTStartup+0x42>
     164:	480c      	ldr	r0, [pc, #48]	; (198 <_mainCRTStartup+0x70>)
     166:	f3af 8000 	nop.w
     16a:	f002 f907 	bl	237c <__libc_init_array>
     16e:	0020      	movs	r0, r4
     170:	0029      	movs	r1, r5
     172:	f000 f86d 	bl	250 <main>
     176:	f000 fed3 	bl	f20 <exit>
     17a:	bf00      	nop
     17c:	00080000 	.word	0x00080000
     180:	10008000 	.word	0x10008000
	...
     18c:	100002b4 	.word	0x100002b4
     190:	100004b4 	.word	0x100004b4
	...

0000019c <mbed::Serial::~Serial()>:
     19c:	b570      	push	{r4, r5, r6, lr}
     19e:	4604      	mov	r4, r0
     1a0:	4b0a      	ldr	r3, [pc, #40]	; (1cc <mbed::Serial::~Serial()+0x30>)
     1a2:	f100 0620 	add.w	r6, r0, #32
     1a6:	6003      	str	r3, [r0, #0]
     1a8:	3334      	adds	r3, #52	; 0x34
     1aa:	6043      	str	r3, [r0, #4]
     1ac:	f100 0540 	add.w	r5, r0, #64	; 0x40
     1b0:	42b5      	cmp	r5, r6
     1b2:	d005      	beq.n	1c0 <mbed::Serial::~Serial()+0x24>
     1b4:	f855 3d10 	ldr.w	r3, [r5, #-16]!
     1b8:	681b      	ldr	r3, [r3, #0]
     1ba:	4628      	mov	r0, r5
     1bc:	4798      	blx	r3
     1be:	e7f7      	b.n	1b0 <mbed::Serial::~Serial()+0x14>
     1c0:	4620      	mov	r0, r4
     1c2:	f001 f867 	bl	1294 <mbed::Stream::~Stream()>
     1c6:	4620      	mov	r0, r4
     1c8:	bd70      	pop	{r4, r5, r6, pc}
     1ca:	bf00      	nop
     1cc:	00008230 	.word	0x00008230

000001d0 <non-virtual thunk to mbed::Serial::~Serial()>:
     1d0:	f1a0 0004 	sub.w	r0, r0, #4
     1d4:	e7e2      	b.n	19c <mbed::Serial::~Serial()>
     1d6:	bf00      	nop

000001d8 <ledtoggle(mbed::DigitalOut*, int, int)>:
     1d8:	b538      	push	{r3, r4, r5, lr}
     1da:	4604      	mov	r4, r0
     1dc:	4615      	mov	r5, r2
     1de:	68c3      	ldr	r3, [r0, #12]
     1e0:	6842      	ldr	r2, [r0, #4]
     1e2:	4608      	mov	r0, r1
     1e4:	601a      	str	r2, [r3, #0]
     1e6:	f007 fc99 	bl	7b1c <__aeabi_i2f>
     1ea:	f000 ff2b 	bl	1044 <wait>
     1ee:	6923      	ldr	r3, [r4, #16]
     1f0:	6862      	ldr	r2, [r4, #4]
     1f2:	4628      	mov	r0, r5
     1f4:	601a      	str	r2, [r3, #0]
     1f6:	f007 fc91 	bl	7b1c <__aeabi_i2f>
     1fa:	e8bd 4038 	ldmia.w	sp!, {r3, r4, r5, lr}
     1fe:	f000 bf21 	b.w	1044 <wait>
	...

00000204 <AppInit()>:
     204:	b538      	push	{r3, r4, r5, lr}
     206:	4d0f      	ldr	r5, [pc, #60]	; (244 <AppInit()+0x40>)
     208:	4c0f      	ldr	r4, [pc, #60]	; (248 <AppInit()+0x44>)
     20a:	68eb      	ldr	r3, [r5, #12]
     20c:	686a      	ldr	r2, [r5, #4]
     20e:	f04f 507c 	mov.w	r0, #1056964608	; 0x3f000000
     212:	601a      	str	r2, [r3, #0]
     214:	6862      	ldr	r2, [r4, #4]
     216:	68e3      	ldr	r3, [r4, #12]
     218:	601a      	str	r2, [r3, #0]
     21a:	f000 ff13 	bl	1044 <wait>
     21e:	692b      	ldr	r3, [r5, #16]
     220:	686a      	ldr	r2, [r5, #4]
     222:	f04f 507f 	mov.w	r0, #1069547520	; 0x3fc00000
     226:	601a      	str	r2, [r3, #0]
     228:	6862      	ldr	r2, [r4, #4]
     22a:	6923      	ldr	r3, [r4, #16]
     22c:	4c07      	ldr	r4, [pc, #28]	; (24c <AppInit()+0x48>)
     22e:	601a      	str	r2, [r3, #0]
     230:	6862      	ldr	r2, [r4, #4]
     232:	68e3      	ldr	r3, [r4, #12]
     234:	601a      	str	r2, [r3, #0]
     236:	f000 ff05 	bl	1044 <wait>
     23a:	6923      	ldr	r3, [r4, #16]
     23c:	6862      	ldr	r2, [r4, #4]
     23e:	601a      	str	r2, [r3, #0]
     240:	bd38      	pop	{r3, r4, r5, pc}
     242:	bf00      	nop
     244:	100002d0 	.word	0x100002d0
     248:	10000318 	.word	0x10000318
     24c:	10000300 	.word	0x10000300

00000250 <main>:
     250:	b508      	push	{r3, lr}
     252:	f7ff ffd7 	bl	204 <AppInit()>
     256:	4b0e      	ldr	r3, [pc, #56]	; (290 <main+0x40>)
     258:	2100      	movs	r1, #0
     25a:	461d      	mov	r5, r3
     25c:	681a      	ldr	r2, [r3, #0]
     25e:	6011      	str	r1, [r2, #0]
     260:	682b      	ldr	r3, [r5, #0]
     262:	2401      	movs	r4, #1
     264:	601c      	str	r4, [r3, #0]
     266:	4622      	mov	r2, r4
     268:	2102      	movs	r1, #2
     26a:	480a      	ldr	r0, [pc, #40]	; (294 <main+0x44>)
     26c:	f7ff ffb4 	bl	1d8 <ledtoggle(mbed::DigitalOut*, int, int)>
     270:	4622      	mov	r2, r4
     272:	2102      	movs	r1, #2
     274:	4808      	ldr	r0, [pc, #32]	; (298 <main+0x48>)
     276:	f7ff ffaf 	bl	1d8 <ledtoggle(mbed::DigitalOut*, int, int)>
     27a:	4622      	mov	r2, r4
     27c:	2102      	movs	r1, #2
     27e:	4807      	ldr	r0, [pc, #28]	; (29c <main+0x4c>)
     280:	f7ff ffaa 	bl	1d8 <ledtoggle(mbed::DigitalOut*, int, int)>
     284:	4622      	mov	r2, r4
     286:	2102      	movs	r1, #2
     288:	4805      	ldr	r0, [pc, #20]	; (2a0 <main+0x50>)
     28a:	f7ff ffa5 	bl	1d8 <ledtoggle(mbed::DigitalOut*, int, int)>
     28e:	e7e7      	b.n	260 <main+0x10>
     290:	100000cc 	.word	0x100000cc
     294:	100002d0 	.word	0x100002d0
     298:	100002e8 	.word	0x100002e8
     29c:	10000300 	.word	0x10000300
     2a0:	10000318 	.word	0x10000318

000002a4 <mbed::Serial::~Serial()>:
     2a4:	b510      	push	{r4, lr}
     2a6:	4604      	mov	r4, r0
     2a8:	f7ff ff78 	bl	19c <mbed::Serial::~Serial()>
     2ac:	4620      	mov	r0, r4
     2ae:	f001 fa1e 	bl	16ee <operator delete(void*)>
     2b2:	4620      	mov	r0, r4
     2b4:	bd10      	pop	{r4, pc}

000002b6 <non-virtual thunk to mbed::Serial::~Serial()>:
     2b6:	f1a0 0004 	sub.w	r0, r0, #4
     2ba:	e7f3      	b.n	2a4 <mbed::Serial::~Serial()>

000002bc <_GLOBAL__sub_I_flag>:
     2bc:	b510      	push	{r4, lr}
     2be:	2201      	movs	r2, #1
     2c0:	4910      	ldr	r1, [pc, #64]	; (304 <_GLOBAL__sub_I_flag+0x48>)
     2c2:	4811      	ldr	r0, [pc, #68]	; (308 <_GLOBAL__sub_I_flag+0x4c>)
     2c4:	f000 fadc 	bl	880 <gpio_init>
     2c8:	2201      	movs	r2, #1
     2ca:	4910      	ldr	r1, [pc, #64]	; (30c <_GLOBAL__sub_I_flag+0x50>)
     2cc:	4810      	ldr	r0, [pc, #64]	; (310 <_GLOBAL__sub_I_flag+0x54>)
     2ce:	f000 fad7 	bl	880 <gpio_init>
     2d2:	4c10      	ldr	r4, [pc, #64]	; (314 <_GLOBAL__sub_I_flag+0x58>)
     2d4:	2201      	movs	r2, #1
     2d6:	4910      	ldr	r1, [pc, #64]	; (318 <_GLOBAL__sub_I_flag+0x5c>)
     2d8:	4810      	ldr	r0, [pc, #64]	; (31c <_GLOBAL__sub_I_flag+0x60>)
     2da:	f000 fad1 	bl	880 <gpio_init>
     2de:	2201      	movs	r2, #1
     2e0:	490f      	ldr	r1, [pc, #60]	; (320 <_GLOBAL__sub_I_flag+0x64>)
     2e2:	4810      	ldr	r0, [pc, #64]	; (324 <_GLOBAL__sub_I_flag+0x68>)
     2e4:	f000 facc 	bl	880 <gpio_init>
     2e8:	4a0f      	ldr	r2, [pc, #60]	; (328 <_GLOBAL__sub_I_flag+0x6c>)
     2ea:	4910      	ldr	r1, [pc, #64]	; (32c <_GLOBAL__sub_I_flag+0x70>)
     2ec:	4620      	mov	r0, r4
     2ee:	2300      	movs	r3, #0
     2f0:	f000 ff20 	bl	1134 <mbed::Serial::Serial(PinName, PinName, char const*)>
     2f4:	4620      	mov	r0, r4
     2f6:	e8bd 4010 	ldmia.w	sp!, {r4, lr}
     2fa:	4a0d      	ldr	r2, [pc, #52]	; (330 <_GLOBAL__sub_I_flag+0x74>)
     2fc:	490d      	ldr	r1, [pc, #52]	; (334 <_GLOBAL__sub_I_flag+0x78>)
     2fe:	f001 b9f1 	b.w	16e4 <__aeabi_atexit>
     302:	bf00      	nop
     304:	2009c032 	.word	0x2009c032
     308:	100002d0 	.word	0x100002d0
     30c:	2009c034 	.word	0x2009c034
     310:	100002e8 	.word	0x100002e8
     314:	10000330 	.word	0x10000330
     318:	2009c035 	.word	0x2009c035
     31c:	10000300 	.word	0x10000300
     320:	2009c037 	.word	0x2009c037
     324:	10000318 	.word	0x10000318
     328:	2009c003 	.word	0x2009c003
     32c:	2009c002 	.word	0x2009c002
     330:	100000c8 	.word	0x100000c8
     334:	0000019d 	.word	0x0000019d

00000338 <NVIC_SetVector>:
     338:	f44f 436d 	mov.w	r3, #60672	; 0xed00
     33c:	f2ce 0300 	movt	r3, #57344	; 0xe000
     340:	b4f0      	push	{r4, r5, r6, r7}
     342:	689f      	ldr	r7, [r3, #8]
     344:	689a      	ldr	r2, [r3, #8]
     346:	463b      	mov	r3, r7
     348:	b9ba      	cbnz	r2, 37a <NVIC_SetVector+0x42>
     34a:	f853 5b04 	ldr.w	r5, [r3], #4
     34e:	f04f 5480 	mov.w	r4, #268435456	; 0x10000000
     352:	37c4      	adds	r7, #196	; 0xc4
     354:	6025      	str	r5, [r4, #0]
     356:	461a      	mov	r2, r3
     358:	f852 6b04 	ldr.w	r6, [r2], #4
     35c:	1d25      	adds	r5, r4, #4
     35e:	6066      	str	r6, [r4, #4]
     360:	685c      	ldr	r4, [r3, #4]
     362:	1d13      	adds	r3, r2, #4
     364:	606c      	str	r4, [r5, #4]
     366:	1d2c      	adds	r4, r5, #4
     368:	42bb      	cmp	r3, r7
     36a:	d1f4      	bne.n	356 <NVIC_SetVector+0x1e>
     36c:	f44f 426d 	mov.w	r2, #60672	; 0xed00
     370:	f04f 5380 	mov.w	r3, #268435456	; 0x10000000
     374:	f2ce 0200 	movt	r2, #57344	; 0xe000
     378:	6093      	str	r3, [r2, #8]
     37a:	3010      	adds	r0, #16
     37c:	f843 1020 	str.w	r1, [r3, r0, lsl #2]
     380:	bcf0      	pop	{r4, r5, r6, r7}
     382:	4770      	bx	lr

00000384 <SystemInit>:
     384:	f44f 4240 	mov.w	r2, #49152	; 0xc000
     388:	f2c4 020f 	movt	r2, #16399	; 0x400f
     38c:	2320      	movs	r3, #32
     38e:	b430      	push	{r4, r5}
     390:	f8c2 31a0 	str.w	r3, [r2, #416]	; 0x1a0
     394:	f8d2 01a0 	ldr.w	r0, [r2, #416]	; 0x1a0
     398:	0680      	lsls	r0, r0, #26
     39a:	d451      	bmi.n	440 <SystemInit+0xbc>
     39c:	f44f 4340 	mov.w	r3, #49152	; 0xc000
     3a0:	f2c4 030f 	movt	r3, #16399	; 0x400f
     3a4:	2500      	movs	r5, #0
     3a6:	2102      	movs	r1, #2
     3a8:	f8c3 1104 	str.w	r1, [r3, #260]	; 0x104
     3ac:	2401      	movs	r4, #1
     3ae:	f8c3 51a8 	str.w	r5, [r3, #424]	; 0x1a8
     3b2:	20aa      	movs	r0, #170	; 0xaa
     3b4:	f8c3 51ac 	str.w	r5, [r3, #428]	; 0x1ac
     3b8:	2255      	movs	r2, #85	; 0x55
     3ba:	250b      	movs	r5, #11
     3bc:	f8c3 410c 	str.w	r4, [r3, #268]	; 0x10c
     3c0:	4619      	mov	r1, r3
     3c2:	f8c3 5084 	str.w	r5, [r3, #132]	; 0x84
     3c6:	f8c3 008c 	str.w	r0, [r3, #140]	; 0x8c
     3ca:	f8c3 208c 	str.w	r2, [r3, #140]	; 0x8c
     3ce:	f8c3 4080 	str.w	r4, [r3, #128]	; 0x80
     3d2:	f8c3 008c 	str.w	r0, [r3, #140]	; 0x8c
     3d6:	f8c3 208c 	str.w	r2, [r3, #140]	; 0x8c
     3da:	f8d1 0088 	ldr.w	r0, [r1, #136]	; 0x88
     3de:	f44f 4340 	mov.w	r3, #49152	; 0xc000
     3e2:	0142      	lsls	r2, r0, #5
     3e4:	f2c4 030f 	movt	r3, #16399	; 0x400f
     3e8:	d5f7      	bpl.n	3da <SystemInit+0x56>
     3ea:	2203      	movs	r2, #3
     3ec:	f8c3 2080 	str.w	r2, [r3, #128]	; 0x80
     3f0:	20aa      	movs	r0, #170	; 0xaa
     3f2:	2255      	movs	r2, #85	; 0x55
     3f4:	f8c3 008c 	str.w	r0, [r3, #140]	; 0x8c
     3f8:	4619      	mov	r1, r3
     3fa:	f8c3 208c 	str.w	r2, [r3, #140]	; 0x8c
     3fe:	f8d1 0088 	ldr.w	r0, [r1, #136]	; 0x88
     402:	f44f 4340 	mov.w	r3, #49152	; 0xc000
     406:	f010 7f40 	tst.w	r0, #50331648	; 0x3000000
     40a:	f2c4 030f 	movt	r3, #16399	; 0x400f
     40e:	d0f6      	beq.n	3fe <SystemInit+0x7a>
     410:	f248 72de 	movw	r2, #34782	; 0x87de
     414:	f2c0 4228 	movt	r2, #1064	; 0x428
     418:	2105      	movs	r1, #5
     41a:	2000      	movs	r0, #0
     41c:	f8c3 1108 	str.w	r1, [r3, #264]	; 0x108
     420:	f8c3 20c4 	str.w	r2, [r3, #196]	; 0xc4
     424:	f8c3 01c8 	str.w	r0, [r3, #456]	; 0x1c8
     428:	681a      	ldr	r2, [r3, #0]
     42a:	f422 4170 	bic.w	r1, r2, #61440	; 0xf000
     42e:	f021 003a 	bic.w	r0, r1, #58	; 0x3a
     432:	f440 5240 	orr.w	r2, r0, #12288	; 0x3000
     436:	f042 013a 	orr.w	r1, r2, #58	; 0x3a
     43a:	6019      	str	r1, [r3, #0]
     43c:	bc30      	pop	{r4, r5}
     43e:	4770      	bx	lr
     440:	f8d2 11a0 	ldr.w	r1, [r2, #416]	; 0x1a0
     444:	0649      	lsls	r1, r1, #25
     446:	d4a9      	bmi.n	39c <SystemInit+0x18>
     448:	f8d2 11a0 	ldr.w	r1, [r2, #416]	; 0x1a0
     44c:	0649      	lsls	r1, r1, #25
     44e:	d5f7      	bpl.n	440 <SystemInit+0xbc>
     450:	e7a4      	b.n	39c <SystemInit+0x18>
     452:	bf00      	nop

00000454 <Reset_Handler>:
     454:	4907      	ldr	r1, [pc, #28]	; (474 <.flash_to_ram_loop+0x1a>)
     456:	4a08      	ldr	r2, [pc, #32]	; (478 <.flash_to_ram_loop+0x1e>)
     458:	4b08      	ldr	r3, [pc, #32]	; (47c <.flash_to_ram_loop+0x22>)

0000045a <.flash_to_ram_loop>:
     45a:	429a      	cmp	r2, r3
     45c:	bfbe      	ittt	lt
     45e:	f851 0b04 	ldrlt.w	r0, [r1], #4
     462:	f842 0b04 	strlt.w	r0, [r2], #4
     466:	f7ff bff8 	blt.w	45a <.flash_to_ram_loop>
     46a:	4805      	ldr	r0, [pc, #20]	; (480 <.flash_to_ram_loop+0x26>)
     46c:	4780      	blx	r0
     46e:	4805      	ldr	r0, [pc, #20]	; (484 <.flash_to_ram_loop+0x2a>)
     470:	4700      	bx	r0
     472:	0000      	.short	0x0000
     474:	00008834 	.word	0x00008834
     478:	100000c8 	.word	0x100000c8
     47c:	100002b4 	.word	0x100002b4
     480:	00000385 	.word	0x00000385
     484:	00000129 	.word	0x00000129

00000488 <NMI_Handler>:
     488:	e7fe      	b.n	488 <NMI_Handler>

0000048a <HardFault_Handler>:
     48a:	e7fe      	b.n	48a <HardFault_Handler>

0000048c <MemManage_Handler>:
     48c:	e7fe      	b.n	48c <MemManage_Handler>

0000048e <BusFault_Handler>:
     48e:	e7fe      	b.n	48e <BusFault_Handler>

00000490 <UsageFault_Handler>:
     490:	e7fe      	b.n	490 <UsageFault_Handler>

00000492 <SVC_Handler>:
     492:	e7fe      	b.n	492 <SVC_Handler>

00000494 <DebugMon_Handler>:
     494:	e7fe      	b.n	494 <DebugMon_Handler>

00000496 <PendSV_Handler>:
     496:	e7fe      	b.n	496 <PendSV_Handler>

00000498 <SysTick_Handler>:
     498:	e7fe      	b.n	498 <SysTick_Handler>

0000049a <DEF_IRQHandler>:
     49a:	e7fe      	b.n	49a <DEF_IRQHandler>

0000049c <WDT_IRQHandler>:
     49c:	e7fe      	b.n	49c <WDT_IRQHandler>

0000049e <TIMER0_IRQHandler>:
     49e:	e7fe      	b.n	49e <TIMER0_IRQHandler>

000004a0 <TIMER1_IRQHandler>:
     4a0:	e7fe      	b.n	4a0 <TIMER1_IRQHandler>

000004a2 <TIMER2_IRQHandler>:
     4a2:	e7fe      	b.n	4a2 <TIMER2_IRQHandler>

000004a4 <TIMER3_IRQHandler>:
     4a4:	e7fe      	b.n	4a4 <TIMER3_IRQHandler>

000004a6 <UART0_IRQHandler>:
     4a6:	e7fe      	b.n	4a6 <UART0_IRQHandler>

000004a8 <UART1_IRQHandler>:
     4a8:	e7fe      	b.n	4a8 <UART1_IRQHandler>

000004aa <UART2_IRQHandler>:
     4aa:	e7fe      	b.n	4aa <UART2_IRQHandler>

000004ac <UART3_IRQHandler>:
     4ac:	e7fe      	b.n	4ac <UART3_IRQHandler>

000004ae <PWM1_IRQHandler>:
     4ae:	e7fe      	b.n	4ae <PWM1_IRQHandler>

000004b0 <I2C0_IRQHandler>:
     4b0:	e7fe      	b.n	4b0 <I2C0_IRQHandler>

000004b2 <I2C1_IRQHandler>:
     4b2:	e7fe      	b.n	4b2 <I2C1_IRQHandler>

000004b4 <I2C2_IRQHandler>:
     4b4:	e7fe      	b.n	4b4 <I2C2_IRQHandler>

000004b6 <SPI_IRQHandler>:
     4b6:	e7fe      	b.n	4b6 <SPI_IRQHandler>

000004b8 <SSP0_IRQHandler>:
     4b8:	e7fe      	b.n	4b8 <SSP0_IRQHandler>

000004ba <SSP1_IRQHandler>:
     4ba:	e7fe      	b.n	4ba <SSP1_IRQHandler>

000004bc <PLL0_IRQHandler>:
     4bc:	e7fe      	b.n	4bc <PLL0_IRQHandler>

000004be <RTC_IRQHandler>:
     4be:	e7fe      	b.n	4be <RTC_IRQHandler>

000004c0 <EINT0_IRQHandler>:
     4c0:	e7fe      	b.n	4c0 <EINT0_IRQHandler>

000004c2 <EINT1_IRQHandler>:
     4c2:	e7fe      	b.n	4c2 <EINT1_IRQHandler>

000004c4 <EINT2_IRQHandler>:
     4c4:	e7fe      	b.n	4c4 <EINT2_IRQHandler>

000004c6 <EINT3_IRQHandler>:
     4c6:	e7fe      	b.n	4c6 <EINT3_IRQHandler>

000004c8 <ADC_IRQHandler>:
     4c8:	e7fe      	b.n	4c8 <ADC_IRQHandler>

000004ca <BOD_IRQHandler>:
     4ca:	e7fe      	b.n	4ca <BOD_IRQHandler>

000004cc <USB_IRQHandler>:
     4cc:	e7fe      	b.n	4cc <USB_IRQHandler>

000004ce <CAN_IRQHandler>:
     4ce:	e7fe      	b.n	4ce <CAN_IRQHandler>

000004d0 <DMA_IRQHandler>:
     4d0:	e7fe      	b.n	4d0 <DMA_IRQHandler>

000004d2 <I2S_IRQHandler>:
     4d2:	e7fe      	b.n	4d2 <I2S_IRQHandler>

000004d4 <ENET_IRQHandler>:
     4d4:	e7fe      	b.n	4d4 <ENET_IRQHandler>

000004d6 <RIT_IRQHandler>:
     4d6:	e7fe      	b.n	4d6 <RIT_IRQHandler>

000004d8 <MCPWM_IRQHandler>:
     4d8:	e7fe      	b.n	4d8 <MCPWM_IRQHandler>

000004da <QEI_IRQHandler>:
     4da:	e7fe      	b.n	4da <QEI_IRQHandler>

000004dc <PLL1_IRQHandler>:
     4dc:	e7fe      	b.n	4dc <PLL1_IRQHandler>

000004de <USBActivity_IRQHandler>:
     4de:	e7fe      	b.n	4de <USBActivity_IRQHandler>

000004e0 <CANActivity_IRQHandler>:
     4e0:	e7fe      	b.n	4e0 <CANActivity_IRQHandler>
     4e2:	bf00      	nop

000004e4 <mbed::FileHandle::flen()>:
     4e4:	6803      	ldr	r3, [r0, #0]
     4e6:	b570      	push	{r4, r5, r6, lr}
     4e8:	2100      	movs	r1, #0
     4ea:	691d      	ldr	r5, [r3, #16]
     4ec:	2201      	movs	r2, #1
     4ee:	4604      	mov	r4, r0
     4f0:	47a8      	blx	r5
     4f2:	1c43      	adds	r3, r0, #1
     4f4:	4605      	mov	r5, r0
     4f6:	d00e      	beq.n	516 <mbed::FileHandle::flen()+0x32>
     4f8:	6821      	ldr	r1, [r4, #0]
     4fa:	2202      	movs	r2, #2
     4fc:	690e      	ldr	r6, [r1, #16]
     4fe:	4620      	mov	r0, r4
     500:	2100      	movs	r1, #0
     502:	47b0      	blx	r6
     504:	6822      	ldr	r2, [r4, #0]
     506:	4606      	mov	r6, r0
     508:	6913      	ldr	r3, [r2, #16]
     50a:	4620      	mov	r0, r4
     50c:	4629      	mov	r1, r5
     50e:	2200      	movs	r2, #0
     510:	4798      	blx	r3
     512:	4630      	mov	r0, r6
     514:	bd70      	pop	{r4, r5, r6, pc}
     516:	4606      	mov	r6, r0
     518:	e7fb      	b.n	512 <mbed::FileHandle::flen()+0x2e>
     51a:	bf00      	nop

0000051c <mbed::FileHandle::~FileHandle()>:
     51c:	4b0d      	ldr	r3, [pc, #52]	; (554 <mbed::FileHandle::~FileHandle()+0x38>)
     51e:	4a0e      	ldr	r2, [pc, #56]	; (558 <mbed::FileHandle::~FileHandle()+0x3c>)
     520:	b430      	push	{r4, r5}
     522:	6002      	str	r2, [r0, #0]
     524:	f503 7480 	add.w	r4, r3, #256	; 0x100
     528:	2500      	movs	r5, #0
     52a:	e001      	b.n	530 <mbed::FileHandle::~FileHandle()+0x14>
     52c:	42a3      	cmp	r3, r4
     52e:	d00f      	beq.n	550 <mbed::FileHandle::~FileHandle()+0x34>
     530:	461a      	mov	r2, r3
     532:	f852 1b04 	ldr.w	r1, [r2], #4
     536:	4281      	cmp	r1, r0
     538:	bf08      	it	eq
     53a:	f842 5c04 	streq.w	r5, [r2, #-4]
     53e:	4613      	mov	r3, r2
     540:	f853 2b04 	ldr.w	r2, [r3], #4
     544:	4282      	cmp	r2, r0
     546:	d1f1      	bne.n	52c <mbed::FileHandle::~FileHandle()+0x10>
     548:	42a3      	cmp	r3, r4
     54a:	f843 5c04 	str.w	r5, [r3, #-4]
     54e:	d1ef      	bne.n	530 <mbed::FileHandle::~FileHandle()+0x14>
     550:	bc30      	pop	{r4, r5}
     552:	4770      	bx	lr
     554:	10000374 	.word	0x10000374
     558:	00008018 	.word	0x00008018

0000055c <mbed::FileHandle::~FileHandle()>:
     55c:	b538      	push	{r3, r4, r5, lr}
     55e:	4a0f      	ldr	r2, [pc, #60]	; (59c <mbed::FileHandle::~FileHandle()+0x40>)
     560:	4b0f      	ldr	r3, [pc, #60]	; (5a0 <mbed::FileHandle::~FileHandle()+0x44>)
     562:	4604      	mov	r4, r0
     564:	6002      	str	r2, [r0, #0]
     566:	2500      	movs	r5, #0
     568:	f503 7080 	add.w	r0, r3, #256	; 0x100
     56c:	e001      	b.n	572 <mbed::FileHandle::~FileHandle()+0x16>
     56e:	4283      	cmp	r3, r0
     570:	d00f      	beq.n	592 <mbed::FileHandle::~FileHandle()+0x36>
     572:	461a      	mov	r2, r3
     574:	f852 1b04 	ldr.w	r1, [r2], #4
     578:	428c      	cmp	r4, r1
     57a:	bf08      	it	eq
     57c:	f842 5c04 	streq.w	r5, [r2, #-4]
     580:	4613      	mov	r3, r2
     582:	f853 2b04 	ldr.w	r2, [r3], #4
     586:	4294      	cmp	r4, r2
     588:	d1f1      	bne.n	56e <mbed::FileHandle::~FileHandle()+0x12>
     58a:	4283      	cmp	r3, r0
     58c:	f843 5c04 	str.w	r5, [r3, #-4]
     590:	d1ef      	bne.n	572 <mbed::FileHandle::~FileHandle()+0x16>
     592:	4620      	mov	r0, r4
     594:	f001 f8ab 	bl	16ee <operator delete(void*)>
     598:	4620      	mov	r0, r4
     59a:	bd38      	pop	{r3, r4, r5, pc}
     59c:	00008018 	.word	0x00008018
     5a0:	10000374 	.word	0x10000374

000005a4 <init_serial()>:
     5a4:	4b07      	ldr	r3, [pc, #28]	; (5c4 <init_serial()+0x20>)
     5a6:	6818      	ldr	r0, [r3, #0]
     5a8:	b100      	cbz	r0, 5ac <init_serial()+0x8>
     5aa:	4770      	bx	lr
     5ac:	f24c 0102 	movw	r1, #49154	; 0xc002
     5b0:	f24c 0203 	movw	r2, #49155	; 0xc003
     5b4:	4804      	ldr	r0, [pc, #16]	; (5c8 <init_serial()+0x24>)
     5b6:	f2c2 0109 	movt	r1, #8201	; 0x2009
     5ba:	f2c2 0209 	movt	r2, #8201	; 0x2009
     5be:	f000 bb3b 	b.w	c38 <serial_init>
     5c2:	bf00      	nop
     5c4:	10000474 	.word	0x10000474
     5c8:	100004a8 	.word	0x100004a8

000005cc <_open>:
     5cc:	b5f0      	push	{r4, r5, r6, r7, lr}
     5ce:	460f      	mov	r7, r1
     5d0:	b085      	sub	sp, #20
     5d2:	4930      	ldr	r1, [pc, #192]	; (694 <_open+0xc8>)
     5d4:	4606      	mov	r6, r0
     5d6:	f003 fb1a 	bl	3c0e <strcmp>
     5da:	4604      	mov	r4, r0
     5dc:	2800      	cmp	r0, #0
     5de:	d036      	beq.n	64e <_open+0x82>
     5e0:	4630      	mov	r0, r6
     5e2:	492d      	ldr	r1, [pc, #180]	; (698 <_open+0xcc>)
     5e4:	f003 fb13 	bl	3c0e <strcmp>
     5e8:	b360      	cbz	r0, 644 <_open+0x78>
     5ea:	4630      	mov	r0, r6
     5ec:	492b      	ldr	r1, [pc, #172]	; (69c <_open+0xd0>)
     5ee:	f003 fb0e 	bl	3c0e <strcmp>
     5f2:	2800      	cmp	r0, #0
     5f4:	d02f      	beq.n	656 <_open+0x8a>
     5f6:	482a      	ldr	r0, [pc, #168]	; (6a0 <_open+0xd4>)
     5f8:	2400      	movs	r4, #0
     5fa:	e006      	b.n	60a <_open+0x3e>
     5fc:	685d      	ldr	r5, [r3, #4]
     5fe:	3401      	adds	r4, #1
     600:	1d18      	adds	r0, r3, #4
     602:	b135      	cbz	r5, 612 <_open+0x46>
     604:	3401      	adds	r4, #1
     606:	2c40      	cmp	r4, #64	; 0x40
     608:	d029      	beq.n	65e <_open+0x92>
     60a:	6845      	ldr	r5, [r0, #4]
     60c:	1d03      	adds	r3, r0, #4
     60e:	2d00      	cmp	r5, #0
     610:	d1f4      	bne.n	5fc <_open+0x30>
     612:	7831      	ldrb	r1, [r6, #0]
     614:	293a      	cmp	r1, #58	; 0x3a
     616:	d036      	beq.n	686 <_open+0xba>
     618:	a802      	add	r0, sp, #8
     61a:	4631      	mov	r1, r6
     61c:	f000 fd20 	bl	1060 <mbed::FilePath::FilePath(char const*)>
     620:	a802      	add	r0, sp, #8
     622:	f000 fd6f 	bl	1104 <mbed::FilePath::exists()>
     626:	b1d0      	cbz	r0, 65e <_open+0x92>
     628:	a802      	add	r0, sp, #8
     62a:	f000 fd57 	bl	10dc <mbed::FilePath::isFile()>
     62e:	b1c8      	cbz	r0, 664 <_open+0x98>
     630:	a802      	add	r0, sp, #8
     632:	f000 fd5d 	bl	10f0 <mbed::FilePath::file()>
     636:	4603      	mov	r3, r0
     638:	b18b      	cbz	r3, 65e <_open+0x92>
     63a:	491a      	ldr	r1, [pc, #104]	; (6a4 <_open+0xd8>)
     63c:	1ce0      	adds	r0, r4, #3
     63e:	f841 3024 	str.w	r3, [r1, r4, lsl #2]
     642:	e002      	b.n	64a <_open+0x7e>
     644:	f7ff ffae 	bl	5a4 <init_serial()>
     648:	2001      	movs	r0, #1
     64a:	b005      	add	sp, #20
     64c:	bdf0      	pop	{r4, r5, r6, r7, pc}
     64e:	f7ff ffa9 	bl	5a4 <init_serial()>
     652:	4620      	mov	r0, r4
     654:	e7f9      	b.n	64a <_open+0x7e>
     656:	f7ff ffa5 	bl	5a4 <init_serial()>
     65a:	2002      	movs	r0, #2
     65c:	e7f5      	b.n	64a <_open+0x7e>
     65e:	f04f 30ff 	mov.w	r0, #4294967295
     662:	e7f2      	b.n	64a <_open+0x7e>
     664:	a802      	add	r0, sp, #8
     666:	f000 fd31 	bl	10cc <mbed::FilePath::fileSystem()>
     66a:	4605      	mov	r5, r0
     66c:	2800      	cmp	r0, #0
     66e:	d0f6      	beq.n	65e <_open+0x92>
     670:	6802      	ldr	r2, [r0, #0]
     672:	a802      	add	r0, sp, #8
     674:	6896      	ldr	r6, [r2, #8]
     676:	f000 fd1d 	bl	10b4 <mbed::FilePath::fileName()>
     67a:	463a      	mov	r2, r7
     67c:	4601      	mov	r1, r0
     67e:	4628      	mov	r0, r5
     680:	47b0      	blx	r6
     682:	4603      	mov	r3, r0
     684:	e7d8      	b.n	638 <_open+0x6c>
     686:	4630      	mov	r0, r6
     688:	4907      	ldr	r1, [pc, #28]	; (6a8 <_open+0xdc>)
     68a:	aa01      	add	r2, sp, #4
     68c:	f003 fa50 	bl	3b30 <siscanf>
     690:	9b01      	ldr	r3, [sp, #4]
     692:	e7d1      	b.n	638 <_open+0x6c>
     694:	00007fd8 	.word	0x00007fd8
     698:	00007ffc 	.word	0x00007ffc
     69c:	00007fe0 	.word	0x00007fe0
     6a0:	10000370 	.word	0x10000370
     6a4:	10000374 	.word	0x10000374
     6a8:	00008040 	.word	0x00008040

000006ac <_close>:
     6ac:	2802      	cmp	r0, #2
     6ae:	b508      	push	{r3, lr}
     6b0:	dd0b      	ble.n	6ca <_close+0x1e>
     6b2:	4b08      	ldr	r3, [pc, #32]	; (6d4 <_close+0x28>)
     6b4:	1ec2      	subs	r2, r0, #3
     6b6:	f853 0022 	ldr.w	r0, [r3, r2, lsl #2]
     6ba:	2100      	movs	r1, #0
     6bc:	f843 1022 	str.w	r1, [r3, r2, lsl #2]
     6c0:	b128      	cbz	r0, 6ce <_close+0x22>
     6c2:	6803      	ldr	r3, [r0, #0]
     6c4:	685a      	ldr	r2, [r3, #4]
     6c6:	4790      	blx	r2
     6c8:	bd08      	pop	{r3, pc}
     6ca:	2000      	movs	r0, #0
     6cc:	bd08      	pop	{r3, pc}
     6ce:	f04f 30ff 	mov.w	r0, #4294967295
     6d2:	bd08      	pop	{r3, pc}
     6d4:	10000374 	.word	0x10000374

000006d8 <_write>:
     6d8:	2802      	cmp	r0, #2
     6da:	b5f8      	push	{r3, r4, r5, r6, r7, lr}
     6dc:	460d      	mov	r5, r1
     6de:	4617      	mov	r7, r2
     6e0:	dc28      	bgt.n	734 <_write+0x5c>
     6e2:	491d      	ldr	r1, [pc, #116]	; (758 <_write+0x80>)
     6e4:	680a      	ldr	r2, [r1, #0]
     6e6:	2a00      	cmp	r2, #0
     6e8:	d02d      	beq.n	746 <_write+0x6e>
     6ea:	b30f      	cbz	r7, 730 <_write+0x58>
     6ec:	462c      	mov	r4, r5
     6ee:	19ee      	adds	r6, r5, r7
     6f0:	f814 1b01 	ldrb.w	r1, [r4], #1
     6f4:	43ed      	mvns	r5, r5
     6f6:	19ab      	adds	r3, r5, r6
     6f8:	4818      	ldr	r0, [pc, #96]	; (75c <_write+0x84>)
     6fa:	f003 0501 	and.w	r5, r3, #1
     6fe:	f000 fc05 	bl	f0c <serial_putc>
     702:	42b4      	cmp	r4, r6
     704:	d014      	beq.n	730 <_write+0x58>
     706:	b135      	cbz	r5, 716 <_write+0x3e>
     708:	f814 1b01 	ldrb.w	r1, [r4], #1
     70c:	4813      	ldr	r0, [pc, #76]	; (75c <_write+0x84>)
     70e:	f000 fbfd 	bl	f0c <serial_putc>
     712:	42b4      	cmp	r4, r6
     714:	d00c      	beq.n	730 <_write+0x58>
     716:	4625      	mov	r5, r4
     718:	f815 1b01 	ldrb.w	r1, [r5], #1
     71c:	480f      	ldr	r0, [pc, #60]	; (75c <_write+0x84>)
     71e:	f000 fbf5 	bl	f0c <serial_putc>
     722:	7861      	ldrb	r1, [r4, #1]
     724:	480d      	ldr	r0, [pc, #52]	; (75c <_write+0x84>)
     726:	1c6c      	adds	r4, r5, #1
     728:	f000 fbf0 	bl	f0c <serial_putc>
     72c:	42b4      	cmp	r4, r6
     72e:	d1f2      	bne.n	716 <_write+0x3e>
     730:	4638      	mov	r0, r7
     732:	bdf8      	pop	{r3, r4, r5, r6, r7, pc}
     734:	4b0a      	ldr	r3, [pc, #40]	; (760 <_write+0x88>)
     736:	3803      	subs	r0, #3
     738:	f853 0020 	ldr.w	r0, [r3, r0, lsl #2]
     73c:	b140      	cbz	r0, 750 <_write+0x78>
     73e:	6803      	ldr	r3, [r0, #0]
     740:	681b      	ldr	r3, [r3, #0]
     742:	4798      	blx	r3
     744:	bdf8      	pop	{r3, r4, r5, r6, r7, pc}
     746:	f7ff ff2d 	bl	5a4 <init_serial()>
     74a:	2f00      	cmp	r7, #0
     74c:	d1ce      	bne.n	6ec <_write+0x14>
     74e:	e7ef      	b.n	730 <_write+0x58>
     750:	f04f 30ff 	mov.w	r0, #4294967295
     754:	bdf8      	pop	{r3, r4, r5, r6, r7, pc}
     756:	bf00      	nop
     758:	10000474 	.word	0x10000474
     75c:	100004a8 	.word	0x100004a8
     760:	10000374 	.word	0x10000374

00000764 <_read>:
     764:	2802      	cmp	r0, #2
     766:	b510      	push	{r4, lr}
     768:	460c      	mov	r4, r1
     76a:	dd0a      	ble.n	782 <_read+0x1e>
     76c:	4b0a      	ldr	r3, [pc, #40]	; (798 <_read+0x34>)
     76e:	3803      	subs	r0, #3
     770:	f853 0020 	ldr.w	r0, [r3, r0, lsl #2]
     774:	b160      	cbz	r0, 790 <_read+0x2c>
     776:	6803      	ldr	r3, [r0, #0]
     778:	689b      	ldr	r3, [r3, #8]
     77a:	4798      	blx	r3
     77c:	4601      	mov	r1, r0
     77e:	4608      	mov	r0, r1
     780:	bd10      	pop	{r4, pc}
     782:	4806      	ldr	r0, [pc, #24]	; (79c <_read+0x38>)
     784:	f000 fbbc 	bl	f00 <serial_getc>
     788:	2101      	movs	r1, #1
     78a:	7020      	strb	r0, [r4, #0]
     78c:	4608      	mov	r0, r1
     78e:	bd10      	pop	{r4, pc}
     790:	f04f 31ff 	mov.w	r1, #4294967295
     794:	e7f3      	b.n	77e <_read+0x1a>
     796:	bf00      	nop
     798:	10000374 	.word	0x10000374
     79c:	100004a8 	.word	0x100004a8

000007a0 <_isatty>:
     7a0:	2802      	cmp	r0, #2
     7a2:	b508      	push	{r3, lr}
     7a4:	dd08      	ble.n	7b8 <_isatty+0x18>
     7a6:	4b07      	ldr	r3, [pc, #28]	; (7c4 <_isatty+0x24>)
     7a8:	3803      	subs	r0, #3
     7aa:	f853 0020 	ldr.w	r0, [r3, r0, lsl #2]
     7ae:	b128      	cbz	r0, 7bc <_isatty+0x1c>
     7b0:	6801      	ldr	r1, [r0, #0]
     7b2:	68ca      	ldr	r2, [r1, #12]
     7b4:	4790      	blx	r2
     7b6:	bd08      	pop	{r3, pc}
     7b8:	2001      	movs	r0, #1
     7ba:	bd08      	pop	{r3, pc}
     7bc:	f04f 30ff 	mov.w	r0, #4294967295
     7c0:	bd08      	pop	{r3, pc}
     7c2:	bf00      	nop
     7c4:	10000374 	.word	0x10000374

000007c8 <_lseek>:
     7c8:	2802      	cmp	r0, #2
     7ca:	b508      	push	{r3, lr}
     7cc:	dd08      	ble.n	7e0 <_lseek+0x18>
     7ce:	4b07      	ldr	r3, [pc, #28]	; (7ec <_lseek+0x24>)
     7d0:	3803      	subs	r0, #3
     7d2:	f853 0020 	ldr.w	r0, [r3, r0, lsl #2]
     7d6:	b128      	cbz	r0, 7e4 <_lseek+0x1c>
     7d8:	6803      	ldr	r3, [r0, #0]
     7da:	691b      	ldr	r3, [r3, #16]
     7dc:	4798      	blx	r3
     7de:	bd08      	pop	{r3, pc}
     7e0:	2000      	movs	r0, #0
     7e2:	bd08      	pop	{r3, pc}
     7e4:	f04f 30ff 	mov.w	r0, #4294967295
     7e8:	bd08      	pop	{r3, pc}
     7ea:	bf00      	nop
     7ec:	10000374 	.word	0x10000374

000007f0 <_fstat>:
     7f0:	2802      	cmp	r0, #2
     7f2:	b508      	push	{r3, lr}
     7f4:	d804      	bhi.n	800 <Heap_Size>
     7f6:	f44f 5000 	mov.w	r0, #8192	; 0x2000
     7fa:	6048      	str	r0, [r1, #4]
     7fc:	2000      	movs	r0, #0
     7fe:	bd08      	pop	{r3, pc}
     800:	f001 faf8 	bl	1df4 <__errno>
     804:	2309      	movs	r3, #9
     806:	6003      	str	r3, [r0, #0]
     808:	f04f 30ff 	mov.w	r0, #4294967295
     80c:	bd08      	pop	{r3, pc}
     80e:	bf00      	nop

00000810 <__cxa_pure_virtual>:
     810:	b508      	push	{r3, lr}
     812:	2001      	movs	r0, #1
     814:	f000 fb84 	bl	f20 <exit>

00000818 <_sbrk>:
     818:	4a08      	ldr	r2, [pc, #32]	; (83c <_sbrk+0x24>)
     81a:	6813      	ldr	r3, [r2, #0]
     81c:	1818      	adds	r0, r3, r0
     81e:	f3ef 8108 	mrs	r1, MSP
     822:	4288      	cmp	r0, r1
     824:	d202      	bcs.n	82c <_sbrk+0x14>
     826:	6010      	str	r0, [r2, #0]
     828:	4618      	mov	r0, r3
     82a:	4770      	bx	lr
     82c:	4b04      	ldr	r3, [pc, #16]	; (840 <_sbrk+0x28>)
     82e:	220c      	movs	r2, #12
     830:	601a      	str	r2, [r3, #0]
     832:	f04f 33ff 	mov.w	r3, #4294967295
     836:	4618      	mov	r0, r3
     838:	4770      	bx	lr
     83a:	bf00      	nop
     83c:	100000d4 	.word	0x100000d4
     840:	100004b0 	.word	0x100004b0

00000844 <gpio_set>:
     844:	b510      	push	{r4, lr}
     846:	2100      	movs	r1, #0
     848:	4604      	mov	r4, r0
     84a:	f004 041f 	and.w	r4, r4, #31
     84e:	f000 f843 	bl	8d8 <pin_function>
     852:	2001      	movs	r0, #1
     854:	fa00 f004 	lsl.w	r0, r0, r4
     858:	bd10      	pop	{r4, pc}
     85a:	bf00      	nop

0000085c <gpio_dir>:
     85c:	b931      	cbnz	r1, 86c <gpio_dir+0x10>
     85e:	6883      	ldr	r3, [r0, #8]
     860:	6841      	ldr	r1, [r0, #4]
     862:	681a      	ldr	r2, [r3, #0]
     864:	ea22 0201 	bic.w	r2, r2, r1
     868:	601a      	str	r2, [r3, #0]
     86a:	4770      	bx	lr
     86c:	2901      	cmp	r1, #1
     86e:	d000      	beq.n	872 <gpio_dir+0x16>
     870:	4770      	bx	lr
     872:	6883      	ldr	r3, [r0, #8]
     874:	6842      	ldr	r2, [r0, #4]
     876:	6819      	ldr	r1, [r3, #0]
     878:	ea41 0002 	orr.w	r0, r1, r2
     87c:	6018      	str	r0, [r3, #0]
     87e:	4770      	bx	lr

00000880 <gpio_init>:
     880:	b5f8      	push	{r3, r4, r5, r6, r7, lr}
     882:	1c4b      	adds	r3, r1, #1
     884:	460d      	mov	r5, r1
     886:	4604      	mov	r4, r0
     888:	4616      	mov	r6, r2
     88a:	d01d      	beq.n	8c8 <gpio_init+0x48>
     88c:	6021      	str	r1, [r4, #0]
     88e:	4608      	mov	r0, r1
     890:	f7ff ffd8 	bl	844 <gpio_set>
     894:	f025 031f 	bic.w	r3, r5, #31
     898:	f103 011c 	add.w	r1, r3, #28
     89c:	f103 0718 	add.w	r7, r3, #24
     8a0:	f103 0214 	add.w	r2, r3, #20
     8a4:	6060      	str	r0, [r4, #4]
     8a6:	6121      	str	r1, [r4, #16]
     8a8:	60e7      	str	r7, [r4, #12]
     8aa:	6162      	str	r2, [r4, #20]
     8ac:	60a3      	str	r3, [r4, #8]
     8ae:	4620      	mov	r0, r4
     8b0:	4631      	mov	r1, r6
     8b2:	f7ff ffd3 	bl	85c <gpio_dir>
     8b6:	b92e      	cbnz	r6, 8c4 <gpio_init+0x44>
     8b8:	4628      	mov	r0, r5
     8ba:	2103      	movs	r1, #3
     8bc:	e8bd 40f8 	ldmia.w	sp!, {r3, r4, r5, r6, r7, lr}
     8c0:	f000 b82c 	b.w	91c <pin_mode>
     8c4:	2e01      	cmp	r6, #1
     8c6:	d000      	beq.n	8ca <gpio_init+0x4a>
     8c8:	bdf8      	pop	{r3, r4, r5, r6, r7, pc}
     8ca:	4628      	mov	r0, r5
     8cc:	2102      	movs	r1, #2
     8ce:	e8bd 40f8 	ldmia.w	sp!, {r3, r4, r5, r6, r7, lr}
     8d2:	f000 b823 	b.w	91c <pin_mode>
     8d6:	bf00      	nop

000008d8 <pin_function>:
     8d8:	1c43      	adds	r3, r0, #1
     8da:	b410      	push	{r4}
     8dc:	d01b      	beq.n	916 <pin_function+0x3e>
     8de:	f100 4060 	add.w	r0, r0, #3758096384	; 0xe0000000
     8e2:	f5a0 241c 	sub.w	r4, r0, #638976	; 0x9c000
     8e6:	f004 030f 	and.w	r3, r4, #15
     8ea:	0058      	lsls	r0, r3, #1
     8ec:	2203      	movs	r2, #3
     8ee:	fa02 f200 	lsl.w	r2, r2, r0
     8f2:	fa01 f100 	lsl.w	r1, r1, r0
     8f6:	f44f 4340 	mov.w	r3, #49152	; 0xc000
     8fa:	0920      	lsrs	r0, r4, #4
     8fc:	f2c4 0302 	movt	r3, #16386	; 0x4002
     900:	f853 4020 	ldr.w	r4, [r3, r0, lsl #2]
     904:	ea24 0202 	bic.w	r2, r4, r2
     908:	f843 2020 	str.w	r2, [r3, r0, lsl #2]
     90c:	f853 2020 	ldr.w	r2, [r3, r0, lsl #2]
     910:	4311      	orrs	r1, r2
     912:	f843 1020 	str.w	r1, [r3, r0, lsl #2]
     916:	bc10      	pop	{r4}
     918:	4770      	bx	lr
     91a:	bf00      	nop

0000091c <pin_mode>:
     91c:	1c42      	adds	r2, r0, #1
     91e:	b470      	push	{r4, r5, r6}
     920:	d030      	beq.n	984 <pin_mode+0x68>
     922:	f100 4060 	add.w	r0, r0, #3758096384	; 0xe0000000
     926:	f5a0 201c 	sub.w	r0, r0, #638976	; 0x9c000
     92a:	f3c1 0480 	ubfx	r4, r1, #2, #1
     92e:	f000 051f 	and.w	r5, r0, #31
     932:	fa04 f505 	lsl.w	r5, r4, r5
     936:	0942      	lsrs	r2, r0, #5
     938:	f44f 4340 	mov.w	r3, #49152	; 0xc000
     93c:	f2c4 0302 	movt	r3, #16386	; 0x4002
     940:	321a      	adds	r2, #26
     942:	f853 6022 	ldr.w	r6, [r3, r2, lsl #2]
     946:	ea26 0605 	bic.w	r6, r6, r5
     94a:	f843 6022 	str.w	r6, [r3, r2, lsl #2]
     94e:	f853 6022 	ldr.w	r6, [r3, r2, lsl #2]
     952:	4335      	orrs	r5, r6
     954:	f843 5022 	str.w	r5, [r3, r2, lsl #2]
     958:	b9a4      	cbnz	r4, 984 <pin_mode+0x68>
     95a:	f000 040f 	and.w	r4, r0, #15
     95e:	0062      	lsls	r2, r4, #1
     960:	2503      	movs	r5, #3
     962:	fa05 f502 	lsl.w	r5, r5, r2
     966:	fa01 f202 	lsl.w	r2, r1, r2
     96a:	0900      	lsrs	r0, r0, #4
     96c:	3010      	adds	r0, #16
     96e:	f853 1020 	ldr.w	r1, [r3, r0, lsl #2]
     972:	ea21 0405 	bic.w	r4, r1, r5
     976:	f843 4020 	str.w	r4, [r3, r0, lsl #2]
     97a:	f853 4020 	ldr.w	r4, [r3, r0, lsl #2]
     97e:	4322      	orrs	r2, r4
     980:	f843 2020 	str.w	r2, [r3, r0, lsl #2]
     984:	bc70      	pop	{r4, r5, r6}
     986:	4770      	bx	lr

00000988 <serial_baud>:
     988:	e92d 4ff0 	stmdb	sp!, {r4, r5, r6, r7, r8, r9, r10, r11, lr}
     98c:	2300      	movs	r3, #0
     98e:	6804      	ldr	r4, [r0, #0]
     990:	f2c4 0301 	movt	r3, #16385	; 0x4001
     994:	b089      	sub	sp, #36	; 0x24
     996:	429c      	cmp	r4, r3
     998:	9007      	str	r0, [sp, #28]
     99a:	f000 80e3 	beq.w	b64 <serial_baud+0x1dc>
     99e:	f340 8093 	ble.w	ac8 <serial_baud+0x140>
     9a2:	f44f 4300 	mov.w	r3, #32768	; 0x8000
     9a6:	f2c4 0309 	movt	r3, #16393	; 0x4009
     9aa:	429c      	cmp	r4, r3
     9ac:	f44f 4040 	mov.w	r0, #49152	; 0xc000
     9b0:	f000 80c9 	beq.w	b46 <serial_baud+0x1be>
     9b4:	f2c4 0009 	movt	r0, #16393	; 0x4009
     9b8:	4284      	cmp	r4, r0
     9ba:	f040 808b 	bne.w	ad4 <serial_baud+0x14c>
     9be:	f44f 4340 	mov.w	r3, #49152	; 0xc000
     9c2:	f2c4 030f 	movt	r3, #16399	; 0x400f
     9c6:	f8d3 21ac 	ldr.w	r2, [r3, #428]	; 0x1ac
     9ca:	f422 2040 	bic.w	r0, r2, #786432	; 0xc0000
     9ce:	f8c3 01ac 	str.w	r0, [r3, #428]	; 0x1ac
     9d2:	f8d3 21ac 	ldr.w	r2, [r3, #428]	; 0x1ac
     9d6:	f442 2080 	orr.w	r0, r2, #262144	; 0x40000
     9da:	f8c3 01ac 	str.w	r0, [r3, #428]	; 0x1ac
     9de:	4b72      	ldr	r3, [pc, #456]	; (ba8 <serial_baud+0x220>)
     9e0:	0108      	lsls	r0, r1, #4
     9e2:	f8d3 a000 	ldr.w	r10, [r3]
     9e6:	fbba f3f0 	udiv	r3, r10, r0
     9ea:	fb00 a213 	mls	r2, r0, r3, r10
     9ee:	b29b      	uxth	r3, r3
     9f0:	9306      	str	r3, [sp, #24]
     9f2:	2a00      	cmp	r2, #0
     9f4:	f000 80a5 	beq.w	b42 <serial_baud+0x1ba>
     9f8:	4608      	mov	r0, r1
     9fa:	0859      	lsrs	r1, r3, #1
     9fc:	9101      	str	r1, [sp, #4]
     9fe:	f007 f88d 	bl	7b1c <__aeabi_i2f>
     a02:	9a01      	ldr	r2, [sp, #4]
     a04:	4606      	mov	r6, r0
     a06:	9806      	ldr	r0, [sp, #24]
     a08:	4290      	cmp	r0, r2
     a0a:	f0c0 809a 	bcc.w	b42 <serial_baud+0x1ba>
     a0e:	9c06      	ldr	r4, [sp, #24]
     a10:	2501      	movs	r5, #1
     a12:	2100      	movs	r1, #0
     a14:	46b0      	mov	r8, r6
     a16:	9402      	str	r4, [sp, #8]
     a18:	9504      	str	r5, [sp, #16]
     a1a:	9103      	str	r1, [sp, #12]
     a1c:	2000      	movs	r0, #0
     a1e:	2501      	movs	r5, #1
     a20:	9005      	str	r0, [sp, #20]
     a22:	1c6a      	adds	r2, r5, #1
     a24:	b2d5      	uxtb	r5, r2
     a26:	2d10      	cmp	r5, #16
     a28:	d05d      	beq.n	ae6 <serial_baud+0x15e>
     a2a:	9801      	ldr	r0, [sp, #4]
     a2c:	f007 f872 	bl	7b14 <__aeabi_ui2f>
     a30:	f04f 4183 	mov.w	r1, #1098907648	; 0x41800000
     a34:	f007 f8c6 	bl	7bc4 <__aeabi_fmul>
     a38:	2401      	movs	r4, #1
     a3a:	4681      	mov	r9, r0
     a3c:	e005      	b.n	a4a <serial_baud+0xc2>
     a3e:	9a01      	ldr	r2, [sp, #4]
     a40:	9202      	str	r2, [sp, #8]
     a42:	1c60      	adds	r0, r4, #1
     a44:	b2c4      	uxtb	r4, r0
     a46:	42ac      	cmp	r4, r5
     a48:	d0eb      	beq.n	a22 <serial_baud+0x9a>
     a4a:	4650      	mov	r0, r10
     a4c:	f007 f862 	bl	7b14 <__aeabi_ui2f>
     a50:	4607      	mov	r7, r0
     a52:	4620      	mov	r0, r4
     a54:	f007 f85e 	bl	7b14 <__aeabi_ui2f>
     a58:	4683      	mov	r11, r0
     a5a:	4628      	mov	r0, r5
     a5c:	f007 f85a 	bl	7b14 <__aeabi_ui2f>
     a60:	4601      	mov	r1, r0
     a62:	4658      	mov	r0, r11
     a64:	f007 f962 	bl	7d2c <__aeabi_fdiv>
     a68:	f04f 517e 	mov.w	r1, #1065353216	; 0x3f800000
     a6c:	f006 ffa2 	bl	79b4 <__addsf3>
     a70:	4601      	mov	r1, r0
     a72:	4648      	mov	r0, r9
     a74:	f007 f8a6 	bl	7bc4 <__aeabi_fmul>
     a78:	4601      	mov	r1, r0
     a7a:	4638      	mov	r0, r7
     a7c:	f007 f956 	bl	7d2c <__aeabi_fdiv>
     a80:	4601      	mov	r1, r0
     a82:	4630      	mov	r0, r6
     a84:	f006 ff94 	bl	79b0 <__aeabi_fsub>
     a88:	4631      	mov	r1, r6
     a8a:	f007 f94f 	bl	7d2c <__aeabi_fdiv>
     a8e:	f006 fbef 	bl	7270 <__aeabi_f2d>
     a92:	f001 f995 	bl	1dc0 <fabs>
     a96:	f006 ff37 	bl	7908 <__aeabi_d2f>
     a9a:	4641      	mov	r1, r8
     a9c:	4607      	mov	r7, r0
     a9e:	f007 fa2f 	bl	7f00 <__aeabi_fcmplt>
     aa2:	2800      	cmp	r0, #0
     aa4:	d0cd      	beq.n	a42 <serial_baud+0xba>
     aa6:	f241 216f 	movw	r1, #4719	; 0x126f
     aaa:	4638      	mov	r0, r7
     aac:	f6c3 2183 	movt	r1, #14979	; 0x3a83
     ab0:	f007 fa26 	bl	7f00 <__aeabi_fcmplt>
     ab4:	46b8      	mov	r8, r7
     ab6:	9504      	str	r5, [sp, #16]
     ab8:	9403      	str	r4, [sp, #12]
     aba:	2800      	cmp	r0, #0
     abc:	d0bf      	beq.n	a3e <serial_baud+0xb6>
     abe:	9b01      	ldr	r3, [sp, #4]
     ac0:	2101      	movs	r1, #1
     ac2:	9302      	str	r3, [sp, #8]
     ac4:	9105      	str	r1, [sp, #20]
     ac6:	e7bc      	b.n	a42 <serial_baud+0xba>
     ac8:	f44f 4040 	mov.w	r0, #49152	; 0xc000
     acc:	f2c4 0000 	movt	r0, #16384	; 0x4000
     ad0:	4284      	cmp	r4, r0
     ad2:	d058      	beq.n	b86 <serial_baud+0x1fe>
     ad4:	4d35      	ldr	r5, [pc, #212]	; (bac <serial_baud+0x224>)
     ad6:	4936      	ldr	r1, [pc, #216]	; (bb0 <serial_baud+0x228>)
     ad8:	682e      	ldr	r6, [r5, #0]
     ada:	68f0      	ldr	r0, [r6, #12]
     adc:	f001 fb90 	bl	2200 <fiprintf>
     ae0:	2001      	movs	r0, #1
     ae2:	f000 fa1d 	bl	f20 <exit>
     ae6:	9b01      	ldr	r3, [sp, #4]
     ae8:	9c06      	ldr	r4, [sp, #24]
     aea:	f103 0b01 	add.w	r11, r3, #1
     aee:	fa1f fb8b 	uxth.w	r11, r11
     af2:	455c      	cmp	r4, r11
     af4:	f8cd b004 	str.w	r11, [sp, #4]
     af8:	d302      	bcc.n	b00 <serial_baud+0x178>
     afa:	9905      	ldr	r1, [sp, #20]
     afc:	2900      	cmp	r1, #0
     afe:	d08d      	beq.n	a1c <serial_baud+0x94>
     b00:	9c02      	ldr	r4, [sp, #8]
     b02:	9803      	ldr	r0, [sp, #12]
     b04:	9a04      	ldr	r2, [sp, #16]
     b06:	9907      	ldr	r1, [sp, #28]
     b08:	ea40 1302 	orr.w	r3, r0, r2, lsl #4
     b0c:	9406      	str	r4, [sp, #24]
     b0e:	680c      	ldr	r4, [r1, #0]
     b10:	b2db      	uxtb	r3, r3
     b12:	7b22      	ldrb	r2, [r4, #12]
     b14:	9906      	ldr	r1, [sp, #24]
     b16:	f042 0280 	orr.w	r2, r2, #128	; 0x80
     b1a:	7322      	strb	r2, [r4, #12]
     b1c:	9c07      	ldr	r4, [sp, #28]
     b1e:	0a08      	lsrs	r0, r1, #8
     b20:	6822      	ldr	r2, [r4, #0]
     b22:	9c07      	ldr	r4, [sp, #28]
     b24:	7110      	strb	r0, [r2, #4]
     b26:	6820      	ldr	r0, [r4, #0]
     b28:	b2c9      	uxtb	r1, r1
     b2a:	7001      	strb	r1, [r0, #0]
     b2c:	6822      	ldr	r2, [r4, #0]
     b2e:	f882 3028 	strb.w	r3, [r2, #40]	; 0x28
     b32:	6823      	ldr	r3, [r4, #0]
     b34:	7b19      	ldrb	r1, [r3, #12]
     b36:	f001 007f 	and.w	r0, r1, #127	; 0x7f
     b3a:	7318      	strb	r0, [r3, #12]
     b3c:	b009      	add	sp, #36	; 0x24
     b3e:	e8bd 8ff0 	ldmia.w	sp!, {r4, r5, r6, r7, r8, r9, r10, r11, pc}
     b42:	2310      	movs	r3, #16
     b44:	e7e5      	b.n	b12 <serial_baud+0x18a>
     b46:	f2c4 000f 	movt	r0, #16399	; 0x400f
     b4a:	f8d0 31ac 	ldr.w	r3, [r0, #428]	; 0x1ac
     b4e:	f423 3240 	bic.w	r2, r3, #196608	; 0x30000
     b52:	f8c0 21ac 	str.w	r2, [r0, #428]	; 0x1ac
     b56:	f8d0 31ac 	ldr.w	r3, [r0, #428]	; 0x1ac
     b5a:	f443 3280 	orr.w	r2, r3, #65536	; 0x10000
     b5e:	f8c0 21ac 	str.w	r2, [r0, #428]	; 0x1ac
     b62:	e73c      	b.n	9de <serial_baud+0x56>
     b64:	f44f 4040 	mov.w	r0, #49152	; 0xc000
     b68:	f2c4 000f 	movt	r0, #16399	; 0x400f
     b6c:	f8d0 31a8 	ldr.w	r3, [r0, #424]	; 0x1a8
     b70:	f423 7240 	bic.w	r2, r3, #768	; 0x300
     b74:	f8c0 21a8 	str.w	r2, [r0, #424]	; 0x1a8
     b78:	f8d0 31a8 	ldr.w	r3, [r0, #424]	; 0x1a8
     b7c:	f443 7280 	orr.w	r2, r3, #256	; 0x100
     b80:	f8c0 21a8 	str.w	r2, [r0, #424]	; 0x1a8
     b84:	e72b      	b.n	9de <serial_baud+0x56>
     b86:	f44f 4340 	mov.w	r3, #49152	; 0xc000
     b8a:	f2c4 030f 	movt	r3, #16399	; 0x400f
     b8e:	f8d3 21a8 	ldr.w	r2, [r3, #424]	; 0x1a8
     b92:	f022 00c0 	bic.w	r0, r2, #192	; 0xc0
     b96:	f8c3 01a8 	str.w	r0, [r3, #424]	; 0x1a8
     b9a:	f8d3 21a8 	ldr.w	r2, [r3, #424]	; 0x1a8
     b9e:	f042 0040 	orr.w	r0, r2, #64	; 0x40
     ba2:	f8c3 01a8 	str.w	r0, [r3, #424]	; 0x1a8
     ba6:	e71a      	b.n	9de <serial_baud+0x56>
     ba8:	100000d0 	.word	0x100000d0
     bac:	10000138 	.word	0x10000138
     bb0:	000080bc 	.word	0x000080bc

00000bb4 <serial_format>:
     bb4:	b538      	push	{r3, r4, r5, lr}
     bb6:	3b01      	subs	r3, #1
     bb8:	2b01      	cmp	r3, #1
     bba:	460d      	mov	r5, r1
     bbc:	d828      	bhi.n	c10 <Stack_Size+0x10>
     bbe:	1f4c      	subs	r4, r1, #5
     bc0:	2c03      	cmp	r4, #3
     bc2:	d827      	bhi.n	c14 <Stack_Size+0x14>
     bc4:	2a04      	cmp	r2, #4
     bc6:	d80e      	bhi.n	be6 <serial_format+0x32>
     bc8:	e8df f002 	tbb	[pc, r2]
     bcc:	1f1c1916 	.word	0x1f1c1916
     bd0:	03          	.byte	0x03
     bd1:	00          	.byte	0x00
     bd2:	2230      	movs	r2, #48	; 0x30
     bd4:	2108      	movs	r1, #8
     bd6:	ea44 0383 	orr.w	r3, r4, r3, lsl #2
     bda:	430b      	orrs	r3, r1
     bdc:	6800      	ldr	r0, [r0, #0]
     bde:	431a      	orrs	r2, r3
     be0:	b2d1      	uxtb	r1, r2
     be2:	7301      	strb	r1, [r0, #12]
     be4:	bd38      	pop	{r3, r4, r5, pc}
     be6:	4910      	ldr	r1, [pc, #64]	; (c28 <Stack_Size+0x28>)
     be8:	4d10      	ldr	r5, [pc, #64]	; (c2c <Stack_Size+0x2c>)
     bea:	6828      	ldr	r0, [r5, #0]
     bec:	68c0      	ldr	r0, [r0, #12]
     bee:	f001 fb07 	bl	2200 <fiprintf>
     bf2:	2001      	movs	r0, #1
     bf4:	f000 f994 	bl	f20 <exit>
     bf8:	2200      	movs	r2, #0
     bfa:	4611      	mov	r1, r2
     bfc:	e7eb      	b.n	bd6 <serial_format+0x22>
     bfe:	2200      	movs	r2, #0
     c00:	2108      	movs	r1, #8
     c02:	e7e8      	b.n	bd6 <serial_format+0x22>
     c04:	2210      	movs	r2, #16
     c06:	2108      	movs	r1, #8
     c08:	e7e5      	b.n	bd6 <serial_format+0x22>
     c0a:	2220      	movs	r2, #32
     c0c:	2108      	movs	r1, #8
     c0e:	e7e2      	b.n	bd6 <serial_format+0x22>
     c10:	4907      	ldr	r1, [pc, #28]	; (c30 <Stack_Size+0x30>)
     c12:	e7e9      	b.n	be8 <serial_format+0x34>
     c14:	4c05      	ldr	r4, [pc, #20]	; (c2c <Stack_Size+0x2c>)
     c16:	4907      	ldr	r1, [pc, #28]	; (c34 <Stack_Size+0x34>)
     c18:	6823      	ldr	r3, [r4, #0]
     c1a:	462a      	mov	r2, r5
     c1c:	68d8      	ldr	r0, [r3, #12]
     c1e:	f001 faef 	bl	2200 <fiprintf>
     c22:	2001      	movs	r0, #1
     c24:	f000 f97c 	bl	f20 <exit>
     c28:	00008124 	.word	0x00008124
     c2c:	10000138 	.word	0x10000138
     c30:	000080c8 	.word	0x000080c8
     c34:	000080e4 	.word	0x000080e4

00000c38 <serial_init>:
     c38:	e92d 43f8 	stmdb	sp!, {r3, r4, r5, r6, r7, r8, r9, lr}
     c3c:	460f      	mov	r7, r1
     c3e:	4605      	mov	r5, r0
     c40:	49a1      	ldr	r1, [pc, #644]	; (ec8 <serial_init+0x290>)
     c42:	4638      	mov	r0, r7
     c44:	4616      	mov	r6, r2
     c46:	f000 f9b9 	bl	fbc <pinmap_peripheral>
     c4a:	49a0      	ldr	r1, [pc, #640]	; (ecc <serial_init+0x294>)
     c4c:	4604      	mov	r4, r0
     c4e:	4630      	mov	r0, r6
     c50:	f000 f9b4 	bl	fbc <pinmap_peripheral>
     c54:	4601      	mov	r1, r0
     c56:	4620      	mov	r0, r4
     c58:	f000 f998 	bl	f8c <pinmap_merge>
     c5c:	1c43      	adds	r3, r0, #1
     c5e:	4604      	mov	r4, r0
     c60:	f000 8129 	beq.w	eb6 <serial_init+0x27e>
     c64:	2300      	movs	r3, #0
     c66:	f2c4 0301 	movt	r3, #16385	; 0x4001
     c6a:	4298      	cmp	r0, r3
     c6c:	6028      	str	r0, [r5, #0]
     c6e:	d07c      	beq.n	d6a <serial_init+0x132>
     c70:	d93c      	bls.n	cec <serial_init+0xb4>
     c72:	f44f 4200 	mov.w	r2, #32768	; 0x8000
     c76:	f2c4 0209 	movt	r2, #16393	; 0x4009
     c7a:	4290      	cmp	r0, r2
     c7c:	f000 80dd 	beq.w	e3a <serial_init+0x202>
     c80:	f44f 4140 	mov.w	r1, #49152	; 0xc000
     c84:	f2c4 0109 	movt	r1, #16393	; 0x4009
     c88:	4288      	cmp	r0, r1
     c8a:	d135      	bne.n	cf8 <serial_init+0xc0>
     c8c:	f44f 4240 	mov.w	r2, #49152	; 0xc000
     c90:	f2c4 020f 	movt	r2, #16399	; 0x400f
     c94:	f8d2 10c4 	ldr.w	r1, [r2, #196]	; 0xc4
     c98:	f04f 0801 	mov.w	r8, #1
     c9c:	f041 7000 	orr.w	r0, r1, #33554432	; 0x2000000
     ca0:	f8c2 00c4 	str.w	r0, [r2, #196]	; 0xc4
     ca4:	f884 8008 	strb.w	r8, [r4, #8]
     ca8:	682b      	ldr	r3, [r5, #0]
     caa:	2400      	movs	r4, #0
     cac:	605c      	str	r4, [r3, #4]
     cae:	4628      	mov	r0, r5
     cb0:	f44f 5116 	mov.w	r1, #9600	; 0x2580
     cb4:	f7ff fe68 	bl	988 <serial_baud>
     cb8:	4622      	mov	r2, r4
     cba:	4643      	mov	r3, r8
     cbc:	4628      	mov	r0, r5
     cbe:	2108      	movs	r1, #8
     cc0:	f7ff ff78 	bl	bb4 <serial_format>
     cc4:	4638      	mov	r0, r7
     cc6:	4980      	ldr	r1, [pc, #512]	; (ec8 <serial_init+0x290>)
     cc8:	f000 f93a 	bl	f40 <pinmap_pinout>
     ccc:	4630      	mov	r0, r6
     cce:	497f      	ldr	r1, [pc, #508]	; (ecc <serial_init+0x294>)
     cd0:	f000 f936 	bl	f40 <pinmap_pinout>
     cd4:	4638      	mov	r0, r7
     cd6:	4621      	mov	r1, r4
     cd8:	f7ff fe20 	bl	91c <pin_mode>
     cdc:	4630      	mov	r0, r6
     cde:	4621      	mov	r1, r4
     ce0:	f7ff fe1c 	bl	91c <pin_mode>
     ce4:	2203      	movs	r2, #3
     ce6:	606a      	str	r2, [r5, #4]
     ce8:	e8bd 83f8 	ldmia.w	sp!, {r3, r4, r5, r6, r7, r8, r9, pc}
     cec:	f44f 4040 	mov.w	r0, #49152	; 0xc000
     cf0:	f2c4 0000 	movt	r0, #16384	; 0x4000
     cf4:	4284      	cmp	r4, r0
     cf6:	d068      	beq.n	dca <serial_init+0x192>
     cf8:	f04f 0901 	mov.w	r9, #1
     cfc:	f884 9008 	strb.w	r9, [r4, #8]
     d00:	682b      	ldr	r3, [r5, #0]
     d02:	f04f 0800 	mov.w	r8, #0
     d06:	f44f 5116 	mov.w	r1, #9600	; 0x2580
     d0a:	f8c3 8004 	str.w	r8, [r3, #4]
     d0e:	4628      	mov	r0, r5
     d10:	f7ff fe3a 	bl	988 <serial_baud>
     d14:	4642      	mov	r2, r8
     d16:	464b      	mov	r3, r9
     d18:	2108      	movs	r1, #8
     d1a:	4628      	mov	r0, r5
     d1c:	f7ff ff4a 	bl	bb4 <serial_format>
     d20:	4638      	mov	r0, r7
     d22:	4969      	ldr	r1, [pc, #420]	; (ec8 <serial_init+0x290>)
     d24:	f000 f90c 	bl	f40 <pinmap_pinout>
     d28:	4630      	mov	r0, r6
     d2a:	4968      	ldr	r1, [pc, #416]	; (ecc <serial_init+0x294>)
     d2c:	f000 f908 	bl	f40 <pinmap_pinout>
     d30:	4638      	mov	r0, r7
     d32:	4641      	mov	r1, r8
     d34:	f7ff fdf2 	bl	91c <pin_mode>
     d38:	4630      	mov	r0, r6
     d3a:	4641      	mov	r1, r8
     d3c:	f7ff fdee 	bl	91c <pin_mode>
     d40:	4640      	mov	r0, r8
     d42:	f2c4 0001 	movt	r0, #16385	; 0x4001
     d46:	4284      	cmp	r4, r0
     d48:	d03b      	beq.n	dc2 <serial_init+0x18a>
     d4a:	f200 80a6 	bhi.w	e9a <serial_init+0x262>
     d4e:	f44f 4240 	mov.w	r2, #49152	; 0xc000
     d52:	f2c4 0200 	movt	r2, #16384	; 0x4000
     d56:	4294      	cmp	r4, r2
     d58:	d063      	beq.n	e22 <serial_init+0x1ea>
     d5a:	f44f 4040 	mov.w	r0, #49152	; 0xc000
     d5e:	f2c4 0000 	movt	r0, #16384	; 0x4000
     d62:	4284      	cmp	r4, r0
     d64:	d05f      	beq.n	e26 <serial_init+0x1ee>
     d66:	e8bd 83f8 	ldmia.w	sp!, {r3, r4, r5, r6, r7, r8, r9, pc}
     d6a:	f44f 4040 	mov.w	r0, #49152	; 0xc000
     d6e:	f2c4 000f 	movt	r0, #16399	; 0x400f
     d72:	f8d0 30c4 	ldr.w	r3, [r0, #196]	; 0xc4
     d76:	f04f 0801 	mov.w	r8, #1
     d7a:	f043 0210 	orr.w	r2, r3, #16
     d7e:	f8c0 20c4 	str.w	r2, [r0, #196]	; 0xc4
     d82:	f884 8008 	strb.w	r8, [r4, #8]
     d86:	6829      	ldr	r1, [r5, #0]
     d88:	2400      	movs	r4, #0
     d8a:	604c      	str	r4, [r1, #4]
     d8c:	4628      	mov	r0, r5
     d8e:	f44f 5116 	mov.w	r1, #9600	; 0x2580
     d92:	f7ff fdf9 	bl	988 <serial_baud>
     d96:	4622      	mov	r2, r4
     d98:	4643      	mov	r3, r8
     d9a:	4628      	mov	r0, r5
     d9c:	2108      	movs	r1, #8
     d9e:	f7ff ff09 	bl	bb4 <serial_format>
     da2:	4638      	mov	r0, r7
     da4:	4948      	ldr	r1, [pc, #288]	; (ec8 <serial_init+0x290>)
     da6:	f000 f8cb 	bl	f40 <pinmap_pinout>
     daa:	4630      	mov	r0, r6
     dac:	4947      	ldr	r1, [pc, #284]	; (ecc <serial_init+0x294>)
     dae:	f000 f8c7 	bl	f40 <pinmap_pinout>
     db2:	4638      	mov	r0, r7
     db4:	4621      	mov	r1, r4
     db6:	f7ff fdb1 	bl	91c <pin_mode>
     dba:	4630      	mov	r0, r6
     dbc:	4621      	mov	r1, r4
     dbe:	f7ff fdad 	bl	91c <pin_mode>
     dc2:	2001      	movs	r0, #1
     dc4:	6068      	str	r0, [r5, #4]
     dc6:	e8bd 83f8 	ldmia.w	sp!, {r3, r4, r5, r6, r7, r8, r9, pc}
     dca:	f44f 4240 	mov.w	r2, #49152	; 0xc000
     dce:	f2c4 020f 	movt	r2, #16399	; 0x400f
     dd2:	f8d2 10c4 	ldr.w	r1, [r2, #196]	; 0xc4
     dd6:	f04f 0801 	mov.w	r8, #1
     dda:	f041 0308 	orr.w	r3, r1, #8
     dde:	f8c2 30c4 	str.w	r3, [r2, #196]	; 0xc4
     de2:	f884 8008 	strb.w	r8, [r4, #8]
     de6:	6828      	ldr	r0, [r5, #0]
     de8:	2400      	movs	r4, #0
     dea:	6044      	str	r4, [r0, #4]
     dec:	f44f 5116 	mov.w	r1, #9600	; 0x2580
     df0:	4628      	mov	r0, r5
     df2:	f7ff fdc9 	bl	988 <serial_baud>
     df6:	4622      	mov	r2, r4
     df8:	4643      	mov	r3, r8
     dfa:	4628      	mov	r0, r5
     dfc:	2108      	movs	r1, #8
     dfe:	f7ff fed9 	bl	bb4 <serial_format>
     e02:	4638      	mov	r0, r7
     e04:	4930      	ldr	r1, [pc, #192]	; (ec8 <serial_init+0x290>)
     e06:	f000 f89b 	bl	f40 <pinmap_pinout>
     e0a:	4630      	mov	r0, r6
     e0c:	492f      	ldr	r1, [pc, #188]	; (ecc <serial_init+0x294>)
     e0e:	f000 f897 	bl	f40 <pinmap_pinout>
     e12:	4638      	mov	r0, r7
     e14:	4621      	mov	r1, r4
     e16:	f7ff fd81 	bl	91c <pin_mode>
     e1a:	4630      	mov	r0, r6
     e1c:	4621      	mov	r1, r4
     e1e:	f7ff fd7d 	bl	91c <pin_mode>
     e22:	2400      	movs	r4, #0
     e24:	606c      	str	r4, [r5, #4]
     e26:	4b2a      	ldr	r3, [pc, #168]	; (ed0 <serial_init+0x298>)
     e28:	482a      	ldr	r0, [pc, #168]	; (ed4 <serial_init+0x29c>)
     e2a:	2401      	movs	r4, #1
     e2c:	4629      	mov	r1, r5
     e2e:	2208      	movs	r2, #8
     e30:	601c      	str	r4, [r3, #0]
     e32:	e8bd 43f8 	ldmia.w	sp!, {r3, r4, r5, r6, r7, r8, r9, lr}
     e36:	f001 bb45 	b.w	24c4 <memcpy>
     e3a:	f44f 4140 	mov.w	r1, #49152	; 0xc000
     e3e:	f2c4 010f 	movt	r1, #16399	; 0x400f
     e42:	f8d1 00c4 	ldr.w	r0, [r1, #196]	; 0xc4
     e46:	f04f 0801 	mov.w	r8, #1
     e4a:	f040 7380 	orr.w	r3, r0, #16777216	; 0x1000000
     e4e:	f8c1 30c4 	str.w	r3, [r1, #196]	; 0xc4
     e52:	f884 8008 	strb.w	r8, [r4, #8]
     e56:	682a      	ldr	r2, [r5, #0]
     e58:	2400      	movs	r4, #0
     e5a:	6054      	str	r4, [r2, #4]
     e5c:	4628      	mov	r0, r5
     e5e:	f44f 5116 	mov.w	r1, #9600	; 0x2580
     e62:	f7ff fd91 	bl	988 <serial_baud>
     e66:	4622      	mov	r2, r4
     e68:	4643      	mov	r3, r8
     e6a:	4628      	mov	r0, r5
     e6c:	2108      	movs	r1, #8
     e6e:	f7ff fea1 	bl	bb4 <serial_format>
     e72:	4638      	mov	r0, r7
     e74:	4914      	ldr	r1, [pc, #80]	; (ec8 <serial_init+0x290>)
     e76:	f000 f863 	bl	f40 <pinmap_pinout>
     e7a:	4630      	mov	r0, r6
     e7c:	4913      	ldr	r1, [pc, #76]	; (ecc <serial_init+0x294>)
     e7e:	f000 f85f 	bl	f40 <pinmap_pinout>
     e82:	4638      	mov	r0, r7
     e84:	4621      	mov	r1, r4
     e86:	f7ff fd49 	bl	91c <pin_mode>
     e8a:	4630      	mov	r0, r6
     e8c:	4621      	mov	r1, r4
     e8e:	f7ff fd45 	bl	91c <pin_mode>
     e92:	2102      	movs	r1, #2
     e94:	6069      	str	r1, [r5, #4]
     e96:	e8bd 83f8 	ldmia.w	sp!, {r3, r4, r5, r6, r7, r8, r9, pc}
     e9a:	f44f 4100 	mov.w	r1, #32768	; 0x8000
     e9e:	f2c4 0109 	movt	r1, #16393	; 0x4009
     ea2:	428c      	cmp	r4, r1
     ea4:	d0f5      	beq.n	e92 <serial_init+0x25a>
     ea6:	f44f 4340 	mov.w	r3, #49152	; 0xc000
     eaa:	f2c4 0309 	movt	r3, #16393	; 0x4009
     eae:	429c      	cmp	r4, r3
     eb0:	f47f af53 	bne.w	d5a <serial_init+0x122>
     eb4:	e716      	b.n	ce4 <serial_init+0xac>
     eb6:	4d08      	ldr	r5, [pc, #32]	; (ed8 <serial_init+0x2a0>)
     eb8:	4908      	ldr	r1, [pc, #32]	; (edc <serial_init+0x2a4>)
     eba:	682e      	ldr	r6, [r5, #0]
     ebc:	68f0      	ldr	r0, [r6, #12]
     ebe:	f001 f99f 	bl	2200 <fiprintf>
     ec2:	2001      	movs	r0, #1
     ec4:	f000 f82c 	bl	f20 <exit>
     ec8:	00008164 	.word	0x00008164
     ecc:	00008050 	.word	0x00008050
     ed0:	10000474 	.word	0x10000474
     ed4:	100004a8 	.word	0x100004a8
     ed8:	10000138 	.word	0x10000138
     edc:	00008144 	.word	0x00008144

00000ee0 <serial_irq_handler>:
     ee0:	b410      	push	{r4}
     ee2:	f240 4378 	movw	r3, #1144	; 0x478
     ee6:	f240 4488 	movw	r4, #1160	; 0x488
     eea:	6840      	ldr	r0, [r0, #4]
     eec:	f2c1 0400 	movt	r4, #4096	; 0x1000
     ef0:	f2c1 0300 	movt	r3, #4096	; 0x1000
     ef4:	6021      	str	r1, [r4, #0]
     ef6:	f843 2020 	str.w	r2, [r3, r0, lsl #2]
     efa:	bc10      	pop	{r4}
     efc:	4770      	bx	lr
     efe:	bf00      	nop

00000f00 <serial_getc>:
     f00:	6802      	ldr	r2, [r0, #0]
     f02:	7d13      	ldrb	r3, [r2, #20]
     f04:	07d9      	lsls	r1, r3, #31
     f06:	d5fc      	bpl.n	f02 <serial_getc+0x2>
     f08:	7810      	ldrb	r0, [r2, #0]
     f0a:	4770      	bx	lr

00000f0c <serial_putc>:
     f0c:	6802      	ldr	r2, [r0, #0]
     f0e:	7d13      	ldrb	r3, [r2, #20]
     f10:	f003 0020 	and.w	r0, r3, #32
     f14:	b2c3      	uxtb	r3, r0
     f16:	2b00      	cmp	r3, #0
     f18:	d0f9      	beq.n	f0e <serial_putc+0x2>
     f1a:	b2c9      	uxtb	r1, r1
     f1c:	7011      	strb	r1, [r2, #0]
     f1e:	4770      	bx	lr

00000f20 <exit>:
     f20:	b510      	push	{r4, lr}
     f22:	4604      	mov	r4, r0
     f24:	f000 f80a 	bl	f3c <mbed_interface_connected>
     f28:	b920      	cbnz	r0, f34 <exit+0x14>
     f2a:	b904      	cbnz	r4, f2e <exit+0xe>
     f2c:	e7fe      	b.n	f2c <exit+0xc>
     f2e:	f000 fa5b 	bl	13e8 <mbed_die>
     f32:	e7fb      	b.n	f2c <exit+0xc>
     f34:	f000 f860 	bl	ff8 <semihost_exit>
     f38:	e7f7      	b.n	f2a <exit+0xa>
     f3a:	bf00      	nop

00000f3c <mbed_interface_connected>:
     f3c:	f000 b868 	b.w	1010 <semihost_connected>

00000f40 <pinmap_pinout>:
     f40:	1c43      	adds	r3, r0, #1
     f42:	b510      	push	{r4, lr}
     f44:	4604      	mov	r4, r0
     f46:	d013      	beq.n	f70 <pinmap_pinout+0x30>
     f48:	680b      	ldr	r3, [r1, #0]
     f4a:	1c58      	adds	r0, r3, #1
     f4c:	d104      	bne.n	f58 <pinmap_pinout+0x18>
     f4e:	e010      	b.n	f72 <pinmap_pinout+0x32>
     f50:	f851 3f0c 	ldr.w	r3, [r1, #12]!
     f54:	1c5a      	adds	r2, r3, #1
     f56:	d00c      	beq.n	f72 <pinmap_pinout+0x32>
     f58:	429c      	cmp	r4, r3
     f5a:	d1f9      	bne.n	f50 <pinmap_pinout+0x10>
     f5c:	4620      	mov	r0, r4
     f5e:	6889      	ldr	r1, [r1, #8]
     f60:	f7ff fcba 	bl	8d8 <pin_function>
     f64:	4620      	mov	r0, r4
     f66:	2102      	movs	r1, #2
     f68:	e8bd 4010 	ldmia.w	sp!, {r4, lr}
     f6c:	f7ff bcd6 	b.w	91c <pin_mode>
     f70:	bd10      	pop	{r4, pc}
     f72:	4804      	ldr	r0, [pc, #16]	; (f84 <pinmap_pinout+0x44>)
     f74:	4904      	ldr	r1, [pc, #16]	; (f88 <pinmap_pinout+0x48>)
     f76:	6802      	ldr	r2, [r0, #0]
     f78:	68d0      	ldr	r0, [r2, #12]
     f7a:	f001 f941 	bl	2200 <fiprintf>
     f7e:	2001      	movs	r0, #1
     f80:	f7ff ffce 	bl	f20 <exit>
     f84:	10000138 	.word	0x10000138
     f88:	000081d0 	.word	0x000081d0

00000f8c <pinmap_merge>:
     f8c:	4288      	cmp	r0, r1
     f8e:	b508      	push	{r3, lr}
     f90:	d003      	beq.n	f9a <pinmap_merge+0xe>
     f92:	1c42      	adds	r2, r0, #1
     f94:	d002      	beq.n	f9c <pinmap_merge+0x10>
     f96:	3101      	adds	r1, #1
     f98:	d102      	bne.n	fa0 <pinmap_merge+0x14>
     f9a:	bd08      	pop	{r3, pc}
     f9c:	4608      	mov	r0, r1
     f9e:	bd08      	pop	{r3, pc}
     fa0:	4b04      	ldr	r3, [pc, #16]	; (fb4 <pinmap_merge+0x28>)
     fa2:	4905      	ldr	r1, [pc, #20]	; (fb8 <pinmap_merge+0x2c>)
     fa4:	6818      	ldr	r0, [r3, #0]
     fa6:	68c0      	ldr	r0, [r0, #12]
     fa8:	f001 f92a 	bl	2200 <fiprintf>
     fac:	2001      	movs	r0, #1
     fae:	f7ff ffb7 	bl	f20 <exit>
     fb2:	bf00      	nop
     fb4:	10000138 	.word	0x10000138
     fb8:	000081e4 	.word	0x000081e4

00000fbc <pinmap_peripheral>:
     fbc:	b508      	push	{r3, lr}
     fbe:	1c43      	adds	r3, r0, #1
     fc0:	d00b      	beq.n	fda <pinmap_peripheral+0x1e>
     fc2:	680b      	ldr	r3, [r1, #0]
     fc4:	1c5a      	adds	r2, r3, #1
     fc6:	d104      	bne.n	fd2 <pinmap_peripheral+0x16>
     fc8:	e008      	b.n	fdc <pinmap_peripheral+0x20>
     fca:	f851 3f0c 	ldr.w	r3, [r1, #12]!
     fce:	1c5a      	adds	r2, r3, #1
     fd0:	d004      	beq.n	fdc <pinmap_peripheral+0x20>
     fd2:	4298      	cmp	r0, r3
     fd4:	d1f9      	bne.n	fca <pinmap_peripheral+0xe>
     fd6:	6848      	ldr	r0, [r1, #4]
     fd8:	bd08      	pop	{r3, pc}
     fda:	bd08      	pop	{r3, pc}
     fdc:	4804      	ldr	r0, [pc, #16]	; (ff0 <pinmap_peripheral+0x34>)
     fde:	4905      	ldr	r1, [pc, #20]	; (ff4 <pinmap_peripheral+0x38>)
     fe0:	6802      	ldr	r2, [r0, #0]
     fe2:	68d0      	ldr	r0, [r2, #12]
     fe4:	f001 f90c 	bl	2200 <fiprintf>
     fe8:	2001      	movs	r0, #1
     fea:	f7ff ff99 	bl	f20 <exit>
     fee:	bf00      	nop
     ff0:	10000138 	.word	0x10000138
     ff4:	000081f8 	.word	0x000081f8

00000ff8 <semihost_exit>:
     ff8:	b530      	push	{r4, r5, lr}
     ffa:	b085      	sub	sp, #20
     ffc:	466d      	mov	r5, sp
     ffe:	2418      	movs	r4, #24
    1000:	4620      	mov	r0, r4
    1002:	4629      	mov	r1, r5
    1004:	beab      	bkpt	0x00ab
    1006:	4604      	mov	r4, r0
    1008:	4620      	mov	r0, r4
    100a:	b005      	add	sp, #20
    100c:	bd30      	pop	{r4, r5, pc}
    100e:	bf00      	nop

00001010 <semihost_connected>:
    1010:	f64e 53f0 	movw	r3, #60912	; 0xedf0
    1014:	f2ce 0300 	movt	r3, #57344	; 0xe000
    1018:	6818      	ldr	r0, [r3, #0]
    101a:	f000 0001 	and.w	r0, r0, #1
    101e:	4770      	bx	lr

00001020 <wait_us>:
    1020:	b538      	push	{r3, r4, r5, lr}
    1022:	4605      	mov	r5, r0
    1024:	f000 f9b6 	bl	1394 <us_ticker_read>
    1028:	4604      	mov	r4, r0
    102a:	f000 f9b3 	bl	1394 <us_ticker_read>
    102e:	1b00      	subs	r0, r0, r4
    1030:	42a8      	cmp	r0, r5
    1032:	d3fa      	bcc.n	102a <wait_us+0xa>
    1034:	bd38      	pop	{r3, r4, r5, pc}
    1036:	bf00      	nop

00001038 <wait_ms>:
    1038:	f44f 737a 	mov.w	r3, #1000	; 0x3e8
    103c:	fb03 f000 	mul.w	r0, r3, r0
    1040:	f7ff bfee 	b.w	1020 <wait_us>

00001044 <wait>:
    1044:	f44f 5110 	mov.w	r1, #9216	; 0x2400
    1048:	b508      	push	{r3, lr}
    104a:	f6c4 1174 	movt	r1, #18804	; 0x4974
    104e:	f006 fdb9 	bl	7bc4 <__aeabi_fmul>
    1052:	f006 ff7d 	bl	7f50 <__aeabi_f2iz>
    1056:	e8bd 4008 	ldmia.w	sp!, {r3, lr}
    105a:	f7ff bfe1 	b.w	1020 <wait_us>
    105e:	bf00      	nop

00001060 <mbed::FilePath::FilePath(char const*)>:
    1060:	b538      	push	{r3, r4, r5, lr}
    1062:	2200      	movs	r2, #0
    1064:	6002      	str	r2, [r0, #0]
    1066:	6042      	str	r2, [r0, #4]
    1068:	780b      	ldrb	r3, [r1, #0]
    106a:	4604      	mov	r4, r0
    106c:	2b2f      	cmp	r3, #47	; 0x2f
    106e:	d001      	beq.n	1074 <mbed::FilePath::FilePath(char const*)+0x14>
    1070:	4620      	mov	r0, r4
    1072:	bd38      	pop	{r3, r4, r5, pc}
    1074:	7848      	ldrb	r0, [r1, #1]
    1076:	2800      	cmp	r0, #0
    1078:	d0fa      	beq.n	1070 <mbed::FilePath::FilePath(char const*)+0x10>
    107a:	1c48      	adds	r0, r1, #1
    107c:	6020      	str	r0, [r4, #0]
    107e:	784b      	ldrb	r3, [r1, #1]
    1080:	2b2f      	cmp	r3, #47	; 0x2f
    1082:	d012      	beq.n	10aa <mbed::FilePath::FilePath(char const*)+0x4a>
    1084:	b1a3      	cbz	r3, 10b0 <mbed::FilePath::FilePath(char const*)+0x50>
    1086:	1c8d      	adds	r5, r1, #2
    1088:	4611      	mov	r1, r2
    108a:	e000      	b.n	108e <mbed::FilePath::FilePath(char const*)+0x2e>
    108c:	b142      	cbz	r2, 10a0 <mbed::FilePath::FilePath(char const*)+0x40>
    108e:	6025      	str	r5, [r4, #0]
    1090:	782a      	ldrb	r2, [r5, #0]
    1092:	462b      	mov	r3, r5
    1094:	3101      	adds	r1, #1
    1096:	3501      	adds	r5, #1
    1098:	2a2f      	cmp	r2, #47	; 0x2f
    109a:	d1f7      	bne.n	108c <mbed::FilePath::FilePath(char const*)+0x2c>
    109c:	3301      	adds	r3, #1
    109e:	6023      	str	r3, [r4, #0]
    10a0:	f000 fab6 	bl	1610 <mbed::FileBase::lookup(char const*, unsigned int)>
    10a4:	6060      	str	r0, [r4, #4]
    10a6:	4620      	mov	r0, r4
    10a8:	bd38      	pop	{r3, r4, r5, pc}
    10aa:	4603      	mov	r3, r0
    10ac:	4611      	mov	r1, r2
    10ae:	e7f5      	b.n	109c <mbed::FilePath::FilePath(char const*)+0x3c>
    10b0:	4619      	mov	r1, r3
    10b2:	e7f5      	b.n	10a0 <mbed::FilePath::FilePath(char const*)+0x40>

000010b4 <mbed::FilePath::fileName()>:
    10b4:	6800      	ldr	r0, [r0, #0]
    10b6:	4770      	bx	lr

000010b8 <mbed::FilePath::isFileSystem()>:
    10b8:	6840      	ldr	r0, [r0, #4]
    10ba:	b508      	push	{r3, lr}
    10bc:	b120      	cbz	r0, 10c8 <mbed::FilePath::isFileSystem()+0x10>
    10be:	f000 fac7 	bl	1650 <mbed::FileBase::getPathType()>
    10c2:	1e43      	subs	r3, r0, #1
    10c4:	4258      	negs	r0, r3
    10c6:	4158      	adcs	r0, r3
    10c8:	bd08      	pop	{r3, pc}
    10ca:	bf00      	nop

000010cc <mbed::FilePath::fileSystem()>:
    10cc:	b510      	push	{r4, lr}
    10ce:	4604      	mov	r4, r0
    10d0:	f7ff fff2 	bl	10b8 <mbed::FilePath::isFileSystem()>
    10d4:	b100      	cbz	r0, 10d8 <mbed::FilePath::fileSystem()+0xc>
    10d6:	6860      	ldr	r0, [r4, #4]
    10d8:	bd10      	pop	{r4, pc}
    10da:	bf00      	nop

000010dc <mbed::FilePath::isFile()>:
    10dc:	6840      	ldr	r0, [r0, #4]
    10de:	b508      	push	{r3, lr}
    10e0:	b128      	cbz	r0, 10ee <mbed::FilePath::isFile()+0x12>
    10e2:	f000 fab5 	bl	1650 <mbed::FileBase::getPathType()>
    10e6:	f1d0 0001 	rsbs	r0, r0, #1
    10ea:	bf38      	it	cc
    10ec:	2000      	movcc	r0, #0
    10ee:	bd08      	pop	{r3, pc}

000010f0 <mbed::FilePath::file()>:
    10f0:	b510      	push	{r4, lr}
    10f2:	4604      	mov	r4, r0
    10f4:	f7ff fff2 	bl	10dc <mbed::FilePath::isFile()>
    10f8:	b110      	cbz	r0, 1100 <mbed::FilePath::file()+0x10>
    10fa:	6860      	ldr	r0, [r4, #4]
    10fc:	b100      	cbz	r0, 1100 <mbed::FilePath::file()+0x10>
    10fe:	3804      	subs	r0, #4
    1100:	bd10      	pop	{r4, pc}
    1102:	bf00      	nop

00001104 <mbed::FilePath::exists()>:
    1104:	6840      	ldr	r0, [r0, #4]
    1106:	3000      	adds	r0, #0
    1108:	bf18      	it	ne
    110a:	2001      	movne	r0, #1
    110c:	4770      	bx	lr
    110e:	bf00      	nop

00001110 <mbed::Serial::_putc(int)>:
    1110:	b510      	push	{r4, lr}
    1112:	3018      	adds	r0, #24
    1114:	460c      	mov	r4, r1
    1116:	f7ff fef9 	bl	f0c <serial_putc>
    111a:	4620      	mov	r0, r4
    111c:	bd10      	pop	{r4, pc}
    111e:	bf00      	nop

00001120 <mbed::Serial::_getc()>:
    1120:	3018      	adds	r0, #24
    1122:	f7ff beed 	b.w	f00 <serial_getc>
    1126:	bf00      	nop

00001128 <mbed::Serial::_irq_handler(unsigned long, SerialIrq)>:
    1128:	3102      	adds	r1, #2
    112a:	eb00 1001 	add.w	r0, r0, r1, lsl #4
    112e:	f000 ba19 	b.w	1564 <mbed::CallChain::call()>
    1132:	bf00      	nop

00001134 <mbed::Serial::Serial(PinName, PinName, char const*)>:
    1134:	b5f8      	push	{r3, r4, r5, r6, r7, lr}
    1136:	460e      	mov	r6, r1
    1138:	4619      	mov	r1, r3
    113a:	4604      	mov	r4, r0
    113c:	4617      	mov	r7, r2
    113e:	f000 f8cf 	bl	12e0 <mbed::Stream::Stream(char const*)>
    1142:	f248 2328 	movw	r3, #33320	; 0x8228
    1146:	f2c0 0300 	movt	r3, #0
    114a:	f103 0208 	add.w	r2, r3, #8
    114e:	333c      	adds	r3, #60	; 0x3c
    1150:	e884 000c 	stmia.w	r4, {r2, r3}
    1154:	2104      	movs	r1, #4
    1156:	f104 0020 	add.w	r0, r4, #32
    115a:	f000 f9ab 	bl	14b4 <mbed::CallChain::CallChain(int)>
    115e:	f104 0518 	add.w	r5, r4, #24
    1162:	2104      	movs	r1, #4
    1164:	f104 0030 	add.w	r0, r4, #48	; 0x30
    1168:	f000 f9a4 	bl	14b4 <mbed::CallChain::CallChain(int)>
    116c:	4628      	mov	r0, r5
    116e:	4631      	mov	r1, r6
    1170:	463a      	mov	r2, r7
    1172:	f7ff fd61 	bl	c38 <serial_init>
    1176:	f44f 5316 	mov.w	r3, #9600	; 0x2580
    117a:	f241 1129 	movw	r1, #4393	; 0x1129
    117e:	4628      	mov	r0, r5
    1180:	6423      	str	r3, [r4, #64]	; 0x40
    1182:	f2c0 0100 	movt	r1, #0
    1186:	4622      	mov	r2, r4
    1188:	f7ff feaa 	bl	ee0 <serial_irq_handler>
    118c:	4620      	mov	r0, r4
    118e:	bdf8      	pop	{r3, r4, r5, r6, r7, pc}

00001190 <mbed::Stream::close()>:
    1190:	2000      	movs	r0, #0
    1192:	4770      	bx	lr

00001194 <mbed::Stream::write(void const*, unsigned int)>:
    1194:	e92d 41f0 	stmdb	sp!, {r4, r5, r6, r7, r8, lr}
    1198:	188e      	adds	r6, r1, r2
    119a:	42b1      	cmp	r1, r6
    119c:	460f      	mov	r7, r1
    119e:	4605      	mov	r5, r0
    11a0:	d030      	beq.n	1204 <mbed::Stream::write(void const*, unsigned int)+0x70>
    11a2:	6803      	ldr	r3, [r0, #0]
    11a4:	1b8a      	subs	r2, r1, r6
    11a6:	460c      	mov	r4, r1
    11a8:	43d2      	mvns	r2, r2
    11aa:	6a5b      	ldr	r3, [r3, #36]	; 0x24
    11ac:	f814 1b01 	ldrb.w	r1, [r4], #1
    11b0:	f002 0801 	and.w	r8, r2, #1
    11b4:	4798      	blx	r3
    11b6:	3001      	adds	r0, #1
    11b8:	d01e      	beq.n	11f8 <mbed::Stream::write(void const*, unsigned int)+0x64>
    11ba:	42a6      	cmp	r6, r4
    11bc:	d01f      	beq.n	11fe <mbed::Stream::write(void const*, unsigned int)+0x6a>
    11be:	f1b8 0f00 	cmp.w	r8, #0
    11c2:	d009      	beq.n	11d8 <mbed::Stream::write(void const*, unsigned int)+0x44>
    11c4:	6829      	ldr	r1, [r5, #0]
    11c6:	4628      	mov	r0, r5
    11c8:	6a4a      	ldr	r2, [r1, #36]	; 0x24
    11ca:	f814 1b01 	ldrb.w	r1, [r4], #1
    11ce:	4790      	blx	r2
    11d0:	3001      	adds	r0, #1
    11d2:	d011      	beq.n	11f8 <mbed::Stream::write(void const*, unsigned int)+0x64>
    11d4:	42a6      	cmp	r6, r4
    11d6:	d012      	beq.n	11fe <mbed::Stream::write(void const*, unsigned int)+0x6a>
    11d8:	6828      	ldr	r0, [r5, #0]
    11da:	f814 1b01 	ldrb.w	r1, [r4], #1
    11de:	6a43      	ldr	r3, [r0, #36]	; 0x24
    11e0:	4628      	mov	r0, r5
    11e2:	4798      	blx	r3
    11e4:	3001      	adds	r0, #1
    11e6:	4628      	mov	r0, r5
    11e8:	d006      	beq.n	11f8 <mbed::Stream::write(void const*, unsigned int)+0x64>
    11ea:	682a      	ldr	r2, [r5, #0]
    11ec:	f814 1b01 	ldrb.w	r1, [r4], #1
    11f0:	6a53      	ldr	r3, [r2, #36]	; 0x24
    11f2:	4798      	blx	r3
    11f4:	3001      	adds	r0, #1
    11f6:	d1ed      	bne.n	11d4 <mbed::Stream::write(void const*, unsigned int)+0x40>
    11f8:	1be0      	subs	r0, r4, r7
    11fa:	e8bd 81f0 	ldmia.w	sp!, {r4, r5, r6, r7, r8, pc}
    11fe:	1bf0      	subs	r0, r6, r7
    1200:	e8bd 81f0 	ldmia.w	sp!, {r4, r5, r6, r7, r8, pc}
    1204:	2000      	movs	r0, #0
    1206:	e8bd 81f0 	ldmia.w	sp!, {r4, r5, r6, r7, r8, pc}
    120a:	bf00      	nop

0000120c <mbed::Stream::read(void*, unsigned int)>:
    120c:	e92d 41f0 	stmdb	sp!, {r4, r5, r6, r7, r8, lr}
    1210:	188e      	adds	r6, r1, r2
    1212:	42b1      	cmp	r1, r6
    1214:	460f      	mov	r7, r1
    1216:	4605      	mov	r5, r0
    1218:	d031      	beq.n	127e <mbed::Stream::read(void*, unsigned int)+0x72>
    121a:	6803      	ldr	r3, [r0, #0]
    121c:	1b8a      	subs	r2, r1, r6
    121e:	43d1      	mvns	r1, r2
    1220:	6a9c      	ldr	r4, [r3, #40]	; 0x28
    1222:	f001 0801 	and.w	r8, r1, #1
    1226:	47a0      	blx	r4
    1228:	1c43      	adds	r3, r0, #1
    122a:	463c      	mov	r4, r7
    122c:	d024      	beq.n	1278 <mbed::Stream::read(void*, unsigned int)+0x6c>
    122e:	463c      	mov	r4, r7
    1230:	f804 0b01 	strb.w	r0, [r4], #1
    1234:	42a6      	cmp	r6, r4
    1236:	d01c      	beq.n	1272 <mbed::Stream::read(void*, unsigned int)+0x66>
    1238:	f1b8 0f00 	cmp.w	r8, #0
    123c:	d006      	beq.n	124c <mbed::Stream::read(void*, unsigned int)+0x40>
    123e:	682b      	ldr	r3, [r5, #0]
    1240:	4628      	mov	r0, r5
    1242:	6a9a      	ldr	r2, [r3, #40]	; 0x28
    1244:	4790      	blx	r2
    1246:	1c43      	adds	r3, r0, #1
    1248:	d10f      	bne.n	126a <mbed::Stream::read(void*, unsigned int)+0x5e>
    124a:	e015      	b.n	1278 <mbed::Stream::read(void*, unsigned int)+0x6c>
    124c:	6829      	ldr	r1, [r5, #0]
    124e:	4628      	mov	r0, r5
    1250:	6a8b      	ldr	r3, [r1, #40]	; 0x28
    1252:	4798      	blx	r3
    1254:	4602      	mov	r2, r0
    1256:	1c51      	adds	r1, r2, #1
    1258:	4628      	mov	r0, r5
    125a:	d00d      	beq.n	1278 <mbed::Stream::read(void*, unsigned int)+0x6c>
    125c:	f804 2b01 	strb.w	r2, [r4], #1
    1260:	6829      	ldr	r1, [r5, #0]
    1262:	6a8b      	ldr	r3, [r1, #40]	; 0x28
    1264:	4798      	blx	r3
    1266:	1c42      	adds	r2, r0, #1
    1268:	d006      	beq.n	1278 <mbed::Stream::read(void*, unsigned int)+0x6c>
    126a:	f804 0b01 	strb.w	r0, [r4], #1
    126e:	42a6      	cmp	r6, r4
    1270:	d1ec      	bne.n	124c <mbed::Stream::read(void*, unsigned int)+0x40>
    1272:	1bf0      	subs	r0, r6, r7
    1274:	e8bd 81f0 	ldmia.w	sp!, {r4, r5, r6, r7, r8, pc}
    1278:	1be0      	subs	r0, r4, r7
    127a:	e8bd 81f0 	ldmia.w	sp!, {r4, r5, r6, r7, r8, pc}
    127e:	2000      	movs	r0, #0
    1280:	e8bd 81f0 	ldmia.w	sp!, {r4, r5, r6, r7, r8, pc}

00001284 <mbed::Stream::lseek(long, int)>:
    1284:	2000      	movs	r0, #0
    1286:	4770      	bx	lr

00001288 <mbed::Stream::isatty()>:
    1288:	2000      	movs	r0, #0
    128a:	4770      	bx	lr

0000128c <mbed::Stream::fsync()>:
    128c:	2000      	movs	r0, #0
    128e:	4770      	bx	lr

00001290 <mbed::Stream::flen()>:
    1290:	2000      	movs	r0, #0
    1292:	4770      	bx	lr

00001294 <mbed::Stream::~Stream()>:
    1294:	f248 2380 	movw	r3, #33408	; 0x8280
    1298:	f2c0 0300 	movt	r3, #0
    129c:	f103 0208 	add.w	r2, r3, #8
    12a0:	333c      	adds	r3, #60	; 0x3c
    12a2:	b510      	push	{r4, lr}
    12a4:	4604      	mov	r4, r0
    12a6:	e880 000c 	stmia.w	r0, {r2, r3}
    12aa:	6940      	ldr	r0, [r0, #20]
    12ac:	f000 fdfa 	bl	1ea4 <fclose>
    12b0:	4620      	mov	r0, r4
    12b2:	f000 f9cf 	bl	1654 <mbed::FileLike::~FileLike()>
    12b6:	4620      	mov	r0, r4
    12b8:	bd10      	pop	{r4, pc}
    12ba:	bf00      	nop

000012bc <non-virtual thunk to mbed::Stream::~Stream()>:
    12bc:	f1a0 0004 	sub.w	r0, r0, #4
    12c0:	f7ff bfe8 	b.w	1294 <mbed::Stream::~Stream()>

000012c4 <mbed::Stream::~Stream()>:
    12c4:	b510      	push	{r4, lr}
    12c6:	4604      	mov	r4, r0
    12c8:	f7ff ffe4 	bl	1294 <mbed::Stream::~Stream()>
    12cc:	4620      	mov	r0, r4
    12ce:	f000 fa0e 	bl	16ee <operator delete(void*)>
    12d2:	4620      	mov	r0, r4
    12d4:	bd10      	pop	{r4, pc}
    12d6:	bf00      	nop

000012d8 <non-virtual thunk to mbed::Stream::~Stream()>:
    12d8:	f1a0 0004 	sub.w	r0, r0, #4
    12dc:	f7ff bff2 	b.w	12c4 <mbed::Stream::~Stream()>

000012e0 <mbed::Stream::Stream(char const*)>:
    12e0:	b510      	push	{r4, lr}
    12e2:	b084      	sub	sp, #16
    12e4:	4604      	mov	r4, r0
    12e6:	f000 f9db 	bl	16a0 <mbed::FileLike::FileLike(char const*)>
    12ea:	f248 2380 	movw	r3, #33408	; 0x8280
    12ee:	f2c0 0300 	movt	r3, #0
    12f2:	f103 0008 	add.w	r0, r3, #8
    12f6:	f248 0140 	movw	r1, #32832	; 0x8040
    12fa:	333c      	adds	r3, #60	; 0x3c
    12fc:	e884 0009 	stmia.w	r4, {r0, r3}
    1300:	4622      	mov	r2, r4
    1302:	f2c0 0100 	movt	r1, #0
    1306:	a801      	add	r0, sp, #4
    1308:	f002 fbee 	bl	3ae8 <siprintf>
    130c:	f248 21d4 	movw	r1, #33492	; 0x82d4
    1310:	f2c0 0100 	movt	r1, #0
    1314:	a801      	add	r0, sp, #4
    1316:	f000 ff6b 	bl	21f0 <fopen>
    131a:	2100      	movs	r1, #0
    131c:	6160      	str	r0, [r4, #20]
    131e:	f002 fae7 	bl	38f0 <setbuf>
    1322:	4620      	mov	r0, r4
    1324:	b004      	add	sp, #16
    1326:	bd10      	pop	{r4, pc}

00001328 <us_ticker_init>:
    1328:	4a17      	ldr	r2, [pc, #92]	; (1388 <us_ticker_init+0x60>)
    132a:	b538      	push	{r3, r4, r5, lr}
    132c:	6813      	ldr	r3, [r2, #0]
    132e:	bb4b      	cbnz	r3, 1384 <us_ticker_init+0x5c>
    1330:	f44f 4140 	mov.w	r1, #49152	; 0xc000
    1334:	f2c4 010f 	movt	r1, #16399	; 0x400f
    1338:	f8d1 00c4 	ldr.w	r0, [r1, #196]	; 0xc4
    133c:	2501      	movs	r5, #1
    133e:	f44f 4480 	mov.w	r4, #16384	; 0x4000
    1342:	6015      	str	r5, [r2, #0]
    1344:	f2c4 0409 	movt	r4, #16393	; 0x4009
    1348:	f440 0000 	orr.w	r0, r0, #8388608	; 0x800000
    134c:	4a0f      	ldr	r2, [pc, #60]	; (138c <us_ticker_init+0x64>)
    134e:	f8c1 00c4 	str.w	r0, [r1, #196]	; 0xc4
    1352:	6723      	str	r3, [r4, #112]	; 0x70
    1354:	6811      	ldr	r1, [r2, #0]
    1356:	f64d 6383 	movw	r3, #56963	; 0xde83
    135a:	0888      	lsrs	r0, r1, #2
    135c:	f2c4 331b 	movt	r3, #17179	; 0x431b
    1360:	fba3 1200 	umull	r1, r2, r3, r0
    1364:	0c91      	lsrs	r1, r2, #18
    1366:	1e4b      	subs	r3, r1, #1
    1368:	2002      	movs	r0, #2
    136a:	6060      	str	r0, [r4, #4]
    136c:	4908      	ldr	r1, [pc, #32]	; (1390 <us_ticker_init+0x68>)
    136e:	60e3      	str	r3, [r4, #12]
    1370:	2004      	movs	r0, #4
    1372:	6065      	str	r5, [r4, #4]
    1374:	f7fe ffe0 	bl	338 <NVIC_SetVector>
    1378:	f44f 4161 	mov.w	r1, #57600	; 0xe100
    137c:	f2ce 0100 	movt	r1, #57344	; 0xe000
    1380:	2210      	movs	r2, #16
    1382:	600a      	str	r2, [r1, #0]
    1384:	bd38      	pop	{r3, r4, r5, pc}
    1386:	bf00      	nop
    1388:	1000048c 	.word	0x1000048c
    138c:	100000d0 	.word	0x100000d0
    1390:	0000146d 	.word	0x0000146d

00001394 <us_ticker_read>:
    1394:	b508      	push	{r3, lr}
    1396:	4b05      	ldr	r3, [pc, #20]	; (13ac <us_ticker_read+0x18>)
    1398:	6818      	ldr	r0, [r3, #0]
    139a:	b908      	cbnz	r0, 13a0 <us_ticker_read+0xc>
    139c:	f7ff ffc4 	bl	1328 <us_ticker_init>
    13a0:	f44f 4180 	mov.w	r1, #16384	; 0x4000
    13a4:	f2c4 0109 	movt	r1, #16393	; 0x4009
    13a8:	6888      	ldr	r0, [r1, #8]
    13aa:	bd08      	pop	{r3, pc}
    13ac:	1000048c 	.word	0x1000048c

000013b0 <us_ticker_set_interrupt>:
    13b0:	f44f 4380 	mov.w	r3, #16384	; 0x4000
    13b4:	f2c4 0309 	movt	r3, #16393	; 0x4009
    13b8:	6198      	str	r0, [r3, #24]
    13ba:	695a      	ldr	r2, [r3, #20]
    13bc:	f042 0001 	orr.w	r0, r2, #1
    13c0:	6158      	str	r0, [r3, #20]
    13c2:	4770      	bx	lr

000013c4 <us_ticker_disable_interrupt>:
    13c4:	f44f 4380 	mov.w	r3, #16384	; 0x4000
    13c8:	f2c4 0309 	movt	r3, #16393	; 0x4009
    13cc:	695a      	ldr	r2, [r3, #20]
    13ce:	f022 0001 	bic.w	r0, r2, #1
    13d2:	6158      	str	r0, [r3, #20]
    13d4:	4770      	bx	lr
    13d6:	bf00      	nop

000013d8 <us_ticker_clear_interrupt>:
    13d8:	f44f 4380 	mov.w	r3, #16384	; 0x4000
    13dc:	f2c4 0309 	movt	r3, #16393	; 0x4009
    13e0:	2201      	movs	r2, #1
    13e2:	601a      	str	r2, [r3, #0]
    13e4:	4770      	bx	lr
    13e6:	bf00      	nop

000013e8 <mbed_die>:
    13e8:	b500      	push	{lr}
    13ea:	f24c 0132 	movw	r1, #49202	; 0xc032
    13ee:	b099      	sub	sp, #100	; 0x64
    13f0:	4668      	mov	r0, sp
    13f2:	f2c2 0109 	movt	r1, #8201	; 0x2009
    13f6:	2201      	movs	r2, #1
    13f8:	f7ff fa42 	bl	880 <gpio_init>
    13fc:	f24c 0134 	movw	r1, #49204	; 0xc034
    1400:	a806      	add	r0, sp, #24
    1402:	f2c2 0109 	movt	r1, #8201	; 0x2009
    1406:	2201      	movs	r2, #1
    1408:	f7ff fa3a 	bl	880 <gpio_init>
    140c:	f24c 0135 	movw	r1, #49205	; 0xc035
    1410:	a80c      	add	r0, sp, #48	; 0x30
    1412:	f2c2 0109 	movt	r1, #8201	; 0x2009
    1416:	2201      	movs	r2, #1
    1418:	f7ff fa32 	bl	880 <gpio_init>
    141c:	f24c 0137 	movw	r1, #49207	; 0xc037
    1420:	a812      	add	r0, sp, #72	; 0x48
    1422:	f2c2 0109 	movt	r1, #8201	; 0x2009
    1426:	2201      	movs	r2, #1
    1428:	f7ff fa2a 	bl	880 <gpio_init>
    142c:	9a01      	ldr	r2, [sp, #4]
    142e:	9b03      	ldr	r3, [sp, #12]
    1430:	990a      	ldr	r1, [sp, #40]	; 0x28
    1432:	601a      	str	r2, [r3, #0]
    1434:	9807      	ldr	r0, [sp, #28]
    1436:	9b10      	ldr	r3, [sp, #64]	; 0x40
    1438:	6008      	str	r0, [r1, #0]
    143a:	9a0d      	ldr	r2, [sp, #52]	; 0x34
    143c:	2096      	movs	r0, #150	; 0x96
    143e:	601a      	str	r2, [r3, #0]
    1440:	9913      	ldr	r1, [sp, #76]	; 0x4c
    1442:	9a15      	ldr	r2, [sp, #84]	; 0x54
    1444:	6011      	str	r1, [r2, #0]
    1446:	f7ff fdf7 	bl	1038 <wait_ms>
    144a:	9801      	ldr	r0, [sp, #4]
    144c:	9b04      	ldr	r3, [sp, #16]
    144e:	9a09      	ldr	r2, [sp, #36]	; 0x24
    1450:	6018      	str	r0, [r3, #0]
    1452:	9907      	ldr	r1, [sp, #28]
    1454:	9b0f      	ldr	r3, [sp, #60]	; 0x3c
    1456:	6011      	str	r1, [r2, #0]
    1458:	980d      	ldr	r0, [sp, #52]	; 0x34
    145a:	9a16      	ldr	r2, [sp, #88]	; 0x58
    145c:	6018      	str	r0, [r3, #0]
    145e:	9913      	ldr	r1, [sp, #76]	; 0x4c
    1460:	2096      	movs	r0, #150	; 0x96
    1462:	6011      	str	r1, [r2, #0]
    1464:	f7ff fde8 	bl	1038 <wait_ms>
    1468:	e7e0      	b.n	142c <mbed_die+0x44>
    146a:	bf00      	nop

0000146c <us_ticker_irq_handler>:
    146c:	b570      	push	{r4, r5, r6, lr}
    146e:	f7ff ffb3 	bl	13d8 <us_ticker_clear_interrupt>
    1472:	4c0e      	ldr	r4, [pc, #56]	; (14ac <us_ticker_irq_handler+0x40>)
    1474:	4e0e      	ldr	r6, [pc, #56]	; (14b0 <us_ticker_irq_handler+0x44>)
    1476:	6820      	ldr	r0, [r4, #0]
    1478:	b170      	cbz	r0, 1498 <us_ticker_irq_handler+0x2c>
    147a:	6805      	ldr	r5, [r0, #0]
    147c:	f7ff ff8a 	bl	1394 <us_ticker_read>
    1480:	1a28      	subs	r0, r5, r0
    1482:	2800      	cmp	r0, #0
    1484:	dc0c      	bgt.n	14a0 <us_ticker_irq_handler+0x34>
    1486:	6821      	ldr	r1, [r4, #0]
    1488:	6832      	ldr	r2, [r6, #0]
    148a:	6888      	ldr	r0, [r1, #8]
    148c:	6020      	str	r0, [r4, #0]
    148e:	2a00      	cmp	r2, #0
    1490:	d0f2      	beq.n	1478 <us_ticker_irq_handler+0xc>
    1492:	6848      	ldr	r0, [r1, #4]
    1494:	4790      	blx	r2
    1496:	e7ee      	b.n	1476 <us_ticker_irq_handler+0xa>
    1498:	e8bd 4070 	ldmia.w	sp!, {r4, r5, r6, lr}
    149c:	f7ff bf92 	b.w	13c4 <us_ticker_disable_interrupt>
    14a0:	6823      	ldr	r3, [r4, #0]
    14a2:	6818      	ldr	r0, [r3, #0]
    14a4:	e8bd 4070 	ldmia.w	sp!, {r4, r5, r6, lr}
    14a8:	f7ff bf82 	b.w	13b0 <us_ticker_set_interrupt>
    14ac:	10000490 	.word	0x10000490
    14b0:	10000494 	.word	0x10000494

000014b4 <mbed::CallChain::CallChain(int)>:
    14b4:	b5f8      	push	{r3, r4, r5, r6, r7, lr}
    14b6:	4b12      	ldr	r3, [pc, #72]	; (1500 <mbed::CallChain::CallChain(int)+0x4c>)
    14b8:	4607      	mov	r7, r0
    14ba:	2500      	movs	r5, #0
    14bc:	460e      	mov	r6, r1
    14be:	6003      	str	r3, [r0, #0]
    14c0:	60c5      	str	r5, [r0, #12]
    14c2:	60b9      	str	r1, [r7, #8]
    14c4:	0088      	lsls	r0, r1, #2
    14c6:	f000 fbe7 	bl	1c98 <operator new[](unsigned int)>
    14ca:	b1b6      	cbz	r6, 14fa <mbed::CallChain::CallChain(int)+0x46>
    14cc:	2401      	movs	r4, #1
    14ce:	1e72      	subs	r2, r6, #1
    14d0:	4601      	mov	r1, r0
    14d2:	42b4      	cmp	r4, r6
    14d4:	f841 5b04 	str.w	r5, [r1], #4
    14d8:	ea02 0204 	and.w	r2, r2, r4
    14dc:	d00d      	beq.n	14fa <mbed::CallChain::CallChain(int)+0x46>
    14de:	b122      	cbz	r2, 14ea <mbed::CallChain::CallChain(int)+0x36>
    14e0:	2402      	movs	r4, #2
    14e2:	42b4      	cmp	r4, r6
    14e4:	f841 5b04 	str.w	r5, [r1], #4
    14e8:	d007      	beq.n	14fa <mbed::CallChain::CallChain(int)+0x46>
    14ea:	460b      	mov	r3, r1
    14ec:	f843 5b04 	str.w	r5, [r3], #4
    14f0:	3402      	adds	r4, #2
    14f2:	604d      	str	r5, [r1, #4]
    14f4:	1d19      	adds	r1, r3, #4
    14f6:	42b4      	cmp	r4, r6
    14f8:	d1f7      	bne.n	14ea <mbed::CallChain::CallChain(int)+0x36>
    14fa:	6078      	str	r0, [r7, #4]
    14fc:	4638      	mov	r0, r7
    14fe:	bdf8      	pop	{r3, r4, r5, r6, r7, pc}
    1500:	000082f0 	.word	0x000082f0

00001504 <mbed::CallChain::clear()>:
    1504:	b570      	push	{r4, r5, r6, lr}
    1506:	4605      	mov	r5, r0
    1508:	b672      	cpsid	i
    150a:	68c3      	ldr	r3, [r0, #12]
    150c:	2b00      	cmp	r3, #0
    150e:	dd0d      	ble.n	152c <mbed::CallChain::clear()+0x28>
    1510:	2400      	movs	r4, #0
    1512:	4626      	mov	r6, r4
    1514:	6868      	ldr	r0, [r5, #4]
    1516:	f850 0024 	ldr.w	r0, [r0, r4, lsl #2]
    151a:	f000 f8e8 	bl	16ee <operator delete(void*)>
    151e:	686a      	ldr	r2, [r5, #4]
    1520:	68e9      	ldr	r1, [r5, #12]
    1522:	f842 6024 	str.w	r6, [r2, r4, lsl #2]
    1526:	3401      	adds	r4, #1
    1528:	42a1      	cmp	r1, r4
    152a:	dcf3      	bgt.n	1514 <mbed::CallChain::clear()+0x10>
    152c:	2300      	movs	r3, #0
    152e:	60eb      	str	r3, [r5, #12]
    1530:	b662      	cpsie	i
    1532:	bd70      	pop	{r4, r5, r6, pc}

00001534 <mbed::CallChain::~CallChain()>:
    1534:	4b05      	ldr	r3, [pc, #20]	; (154c <mbed::CallChain::~CallChain()+0x18>)
    1536:	b510      	push	{r4, lr}
    1538:	4604      	mov	r4, r0
    153a:	6003      	str	r3, [r0, #0]
    153c:	f7ff ffe2 	bl	1504 <mbed::CallChain::clear()>
    1540:	6860      	ldr	r0, [r4, #4]
    1542:	f000 f8d4 	bl	16ee <operator delete(void*)>
    1546:	4620      	mov	r0, r4
    1548:	bd10      	pop	{r4, pc}
    154a:	bf00      	nop
    154c:	000082f0 	.word	0x000082f0

00001550 <mbed::CallChain::~CallChain()>:
    1550:	b510      	push	{r4, lr}
    1552:	4604      	mov	r4, r0
    1554:	f7ff ffee 	bl	1534 <mbed::CallChain::~CallChain()>
    1558:	4620      	mov	r0, r4
    155a:	f000 f8c8 	bl	16ee <operator delete(void*)>
    155e:	4620      	mov	r0, r4
    1560:	bd10      	pop	{r4, pc}
    1562:	bf00      	nop

00001564 <mbed::CallChain::call()>:
    1564:	b538      	push	{r3, r4, r5, lr}
    1566:	68c3      	ldr	r3, [r0, #12]
    1568:	4605      	mov	r5, r0
    156a:	2b00      	cmp	r3, #0
    156c:	dd09      	ble.n	1582 <mbed::CallChain::call()+0x1e>
    156e:	2400      	movs	r4, #0
    1570:	6868      	ldr	r0, [r5, #4]
    1572:	f850 0024 	ldr.w	r0, [r0, r4, lsl #2]
    1576:	f000 f8a9 	bl	16cc <mbed::FunctionPointer::call()>
    157a:	68e9      	ldr	r1, [r5, #12]
    157c:	3401      	adds	r4, #1
    157e:	42a1      	cmp	r1, r4
    1580:	dcf6      	bgt.n	1570 <mbed::CallChain::call()+0xc>
    1582:	bd38      	pop	{r3, r4, r5, pc}

00001584 <mbed::FileBase::~FileBase()>:
    1584:	4a09      	ldr	r2, [pc, #36]	; (15ac <mbed::FileBase::~FileBase()+0x28>)
    1586:	6883      	ldr	r3, [r0, #8]
    1588:	6002      	str	r2, [r0, #0]
    158a:	b153      	cbz	r3, 15a2 <mbed::FileBase::~FileBase()+0x1e>
    158c:	4908      	ldr	r1, [pc, #32]	; (15b0 <mbed::FileBase::~FileBase()+0x2c>)
    158e:	680a      	ldr	r2, [r1, #0]
    1590:	4282      	cmp	r2, r0
    1592:	d101      	bne.n	1598 <mbed::FileBase::~FileBase()+0x14>
    1594:	e006      	b.n	15a4 <mbed::FileBase::~FileBase()+0x20>
    1596:	461a      	mov	r2, r3
    1598:	6853      	ldr	r3, [r2, #4]
    159a:	4298      	cmp	r0, r3
    159c:	d1fb      	bne.n	1596 <mbed::FileBase::~FileBase()+0x12>
    159e:	6841      	ldr	r1, [r0, #4]
    15a0:	6051      	str	r1, [r2, #4]
    15a2:	4770      	bx	lr
    15a4:	6843      	ldr	r3, [r0, #4]
    15a6:	600b      	str	r3, [r1, #0]
    15a8:	4770      	bx	lr
    15aa:	bf00      	nop
    15ac:	00008330 	.word	0x00008330
    15b0:	10000498 	.word	0x10000498

000015b4 <mbed::FileBase::~FileBase()>:
    15b4:	4a0c      	ldr	r2, [pc, #48]	; (15e8 <mbed::FileBase::~FileBase()+0x34>)
    15b6:	6883      	ldr	r3, [r0, #8]
    15b8:	b510      	push	{r4, lr}
    15ba:	4604      	mov	r4, r0
    15bc:	6002      	str	r2, [r0, #0]
    15be:	b153      	cbz	r3, 15d6 <mbed::FileBase::~FileBase()+0x22>
    15c0:	480a      	ldr	r0, [pc, #40]	; (15ec <mbed::FileBase::~FileBase()+0x38>)
    15c2:	6802      	ldr	r2, [r0, #0]
    15c4:	4294      	cmp	r4, r2
    15c6:	d101      	bne.n	15cc <mbed::FileBase::~FileBase()+0x18>
    15c8:	e00a      	b.n	15e0 <mbed::FileBase::~FileBase()+0x2c>
    15ca:	460a      	mov	r2, r1
    15cc:	6851      	ldr	r1, [r2, #4]
    15ce:	428c      	cmp	r4, r1
    15d0:	d1fb      	bne.n	15ca <mbed::FileBase::~FileBase()+0x16>
    15d2:	6863      	ldr	r3, [r4, #4]
    15d4:	6053      	str	r3, [r2, #4]
    15d6:	4620      	mov	r0, r4
    15d8:	f000 f889 	bl	16ee <operator delete(void*)>
    15dc:	4620      	mov	r0, r4
    15de:	bd10      	pop	{r4, pc}
    15e0:	6861      	ldr	r1, [r4, #4]
    15e2:	6001      	str	r1, [r0, #0]
    15e4:	e7f7      	b.n	15d6 <mbed::FileBase::~FileBase()+0x22>
    15e6:	bf00      	nop
    15e8:	00008330 	.word	0x00008330
    15ec:	10000498 	.word	0x10000498

000015f0 <mbed::FileBase::FileBase(char const*, mbed::PathType)>:
    15f0:	4b05      	ldr	r3, [pc, #20]	; (1608 <mbed::FileBase::FileBase(char const*, mbed::PathType)+0x18>)
    15f2:	6081      	str	r1, [r0, #8]
    15f4:	6003      	str	r3, [r0, #0]
    15f6:	7302      	strb	r2, [r0, #12]
    15f8:	b121      	cbz	r1, 1604 <mbed::FileBase::FileBase(char const*, mbed::PathType)+0x14>
    15fa:	4904      	ldr	r1, [pc, #16]	; (160c <mbed::FileBase::FileBase(char const*, mbed::PathType)+0x1c>)
    15fc:	680a      	ldr	r2, [r1, #0]
    15fe:	6008      	str	r0, [r1, #0]
    1600:	6042      	str	r2, [r0, #4]
    1602:	4770      	bx	lr
    1604:	6041      	str	r1, [r0, #4]
    1606:	4770      	bx	lr
    1608:	00008330 	.word	0x00008330
    160c:	10000498 	.word	0x10000498

00001610 <mbed::FileBase::lookup(char const*, unsigned int)>:
    1610:	4b0e      	ldr	r3, [pc, #56]	; (164c <mbed::FileBase::lookup(char const*, unsigned int)+0x3c>)
    1612:	b570      	push	{r4, r5, r6, lr}
    1614:	681c      	ldr	r4, [r3, #0]
    1616:	4606      	mov	r6, r0
    1618:	460d      	mov	r5, r1
    161a:	b914      	cbnz	r4, 1622 <mbed::FileBase::lookup(char const*, unsigned int)+0x12>
    161c:	e012      	b.n	1644 <mbed::FileBase::lookup(char const*, unsigned int)+0x34>
    161e:	6864      	ldr	r4, [r4, #4]
    1620:	b184      	cbz	r4, 1644 <mbed::FileBase::lookup(char const*, unsigned int)+0x34>
    1622:	68a3      	ldr	r3, [r4, #8]
    1624:	4631      	mov	r1, r6
    1626:	462a      	mov	r2, r5
    1628:	4618      	mov	r0, r3
    162a:	2b00      	cmp	r3, #0
    162c:	d0f7      	beq.n	161e <mbed::FileBase::lookup(char const*, unsigned int)+0xe>
    162e:	f002 fb00 	bl	3c32 <strncmp>
    1632:	2800      	cmp	r0, #0
    1634:	d1f3      	bne.n	161e <mbed::FileBase::lookup(char const*, unsigned int)+0xe>
    1636:	68a0      	ldr	r0, [r4, #8]
    1638:	f002 faf3 	bl	3c22 <strlen>
    163c:	42a8      	cmp	r0, r5
    163e:	d1ee      	bne.n	161e <mbed::FileBase::lookup(char const*, unsigned int)+0xe>
    1640:	4620      	mov	r0, r4
    1642:	bd70      	pop	{r4, r5, r6, pc}
    1644:	2400      	movs	r4, #0
    1646:	4620      	mov	r0, r4
    1648:	bd70      	pop	{r4, r5, r6, pc}
    164a:	bf00      	nop
    164c:	10000498 	.word	0x10000498

00001650 <mbed::FileBase::getPathType()>:
    1650:	7b00      	ldrb	r0, [r0, #12]
    1652:	4770      	bx	lr

00001654 <mbed::FileLike::~FileLike()>:
    1654:	f248 3378 	movw	r3, #33656	; 0x8378
    1658:	f2c0 0300 	movt	r3, #0
    165c:	b510      	push	{r4, lr}
    165e:	f103 0234 	add.w	r2, r3, #52	; 0x34
    1662:	4604      	mov	r4, r0
    1664:	3308      	adds	r3, #8
    1666:	f840 2f04 	str.w	r2, [r0, #4]!
    166a:	6023      	str	r3, [r4, #0]
    166c:	f7ff ff8a 	bl	1584 <mbed::FileBase::~FileBase()>
    1670:	4620      	mov	r0, r4
    1672:	f7fe ff53 	bl	51c <mbed::FileHandle::~FileHandle()>
    1676:	4620      	mov	r0, r4
    1678:	bd10      	pop	{r4, pc}
    167a:	bf00      	nop

0000167c <non-virtual thunk to mbed::FileLike::~FileLike()>:
    167c:	f1a0 0004 	sub.w	r0, r0, #4
    1680:	f7ff bfe8 	b.w	1654 <mbed::FileLike::~FileLike()>

00001684 <mbed::FileLike::~FileLike()>:
    1684:	b510      	push	{r4, lr}
    1686:	4604      	mov	r4, r0
    1688:	f7ff ffe4 	bl	1654 <mbed::FileLike::~FileLike()>
    168c:	4620      	mov	r0, r4
    168e:	f000 f82e 	bl	16ee <operator delete(void*)>
    1692:	4620      	mov	r0, r4
    1694:	bd10      	pop	{r4, pc}
    1696:	bf00      	nop

00001698 <non-virtual thunk to mbed::FileLike::~FileLike()>:
    1698:	f1a0 0004 	sub.w	r0, r0, #4
    169c:	f7ff bff2 	b.w	1684 <mbed::FileLike::~FileLike()>

000016a0 <mbed::FileLike::FileLike(char const*)>:
    16a0:	4b09      	ldr	r3, [pc, #36]	; (16c8 <mbed::FileLike::FileLike(char const*)+0x28>)
    16a2:	b510      	push	{r4, lr}
    16a4:	2200      	movs	r2, #0
    16a6:	4604      	mov	r4, r0
    16a8:	f840 3b04 	str.w	r3, [r0], #4
    16ac:	f7ff ffa0 	bl	15f0 <mbed::FileBase::FileBase(char const*, mbed::PathType)>
    16b0:	f248 3378 	movw	r3, #33656	; 0x8378
    16b4:	f2c0 0300 	movt	r3, #0
    16b8:	f103 0208 	add.w	r2, r3, #8
    16bc:	3334      	adds	r3, #52	; 0x34
    16be:	e884 000c 	stmia.w	r4, {r2, r3}
    16c2:	4620      	mov	r0, r4
    16c4:	bd10      	pop	{r4, pc}
    16c6:	bf00      	nop
    16c8:	00008018 	.word	0x00008018

000016cc <mbed::FunctionPointer::call()>:
    16cc:	b508      	push	{r3, lr}
    16ce:	6803      	ldr	r3, [r0, #0]
    16d0:	4601      	mov	r1, r0
    16d2:	b10b      	cbz	r3, 16d8 <mbed::FunctionPointer::call()+0xc>
    16d4:	4798      	blx	r3
    16d6:	bd08      	pop	{r3, pc}
    16d8:	6840      	ldr	r0, [r0, #4]
    16da:	b110      	cbz	r0, 16e2 <mbed::FunctionPointer::call()+0x16>
    16dc:	698a      	ldr	r2, [r1, #24]
    16de:	3108      	adds	r1, #8
    16e0:	4790      	blx	r2
    16e2:	bd08      	pop	{r3, pc}

000016e4 <__aeabi_atexit>:
    16e4:	460b      	mov	r3, r1
    16e6:	4601      	mov	r1, r0
    16e8:	4618      	mov	r0, r3
    16ea:	f000 bb75 	b.w	1dd8 <__cxa_atexit>

000016ee <operator delete(void*)>:
    16ee:	f000 bed3 	b.w	2498 <free>
	...

000016f4 <__cxxabiv1::__si_class_type_info::~__si_class_type_info()>:
    16f4:	b510      	push	{r4, lr}
    16f6:	4604      	mov	r4, r0
    16f8:	4b02      	ldr	r3, [pc, #8]	; (1704 <__cxxabiv1::__si_class_type_info::~__si_class_type_info()+0x10>)
    16fa:	6003      	str	r3, [r0, #0]
    16fc:	f000 fb08 	bl	1d10 <__cxxabiv1::__class_type_info::~__class_type_info()>
    1700:	4620      	mov	r0, r4
    1702:	bd10      	pop	{r4, pc}
    1704:	000083c0 	.word	0x000083c0

00001708 <__cxxabiv1::__si_class_type_info::~__si_class_type_info()>:
    1708:	b510      	push	{r4, lr}
    170a:	4604      	mov	r4, r0
    170c:	f7ff fff2 	bl	16f4 <__cxxabiv1::__si_class_type_info::~__si_class_type_info()>
    1710:	4620      	mov	r0, r4
    1712:	f7ff ffec 	bl	16ee <operator delete(void*)>
    1716:	4620      	mov	r0, r4
    1718:	bd10      	pop	{r4, pc}

0000171a <__cxxabiv1::__si_class_type_info::__do_dyncast(int, __cxxabiv1::__class_type_info::__sub_kind, __cxxabiv1::__class_type_info const*, void const*, __cxxabiv1::__class_type_info const*, void const*, __cxxabiv1::__class_type_info::__dyncast_result&) const>:
    171a:	e92d 4ff1 	stmdb	sp!, {r0, r4, r5, r6, r7, r8, r9, r10, r11, lr}
    171e:	460e      	mov	r6, r1
    1720:	4619      	mov	r1, r3
    1722:	4683      	mov	r11, r0
    1724:	4617      	mov	r7, r2
    1726:	4699      	mov	r9, r3
    1728:	9c0a      	ldr	r4, [sp, #40]	; 0x28
    172a:	f8dd a02c 	ldr.w	r10, [sp, #44]	; 0x2c
    172e:	f8dd 8030 	ldr.w	r8, [sp, #48]	; 0x30
    1732:	9d0d      	ldr	r5, [sp, #52]	; 0x34
    1734:	f000 fab5 	bl	1ca2 <std::type_info::operator==(std::type_info const&) const>
    1738:	b178      	cbz	r0, 175a <__cxxabiv1::__si_class_type_info::__do_dyncast(int, __cxxabiv1::__class_type_info::__sub_kind, __cxxabiv1::__class_type_info const*, void const*, __cxxabiv1::__class_type_info const*, void const*, __cxxabiv1::__class_type_info::__dyncast_result&) const+0x40>
    173a:	2e00      	cmp	r6, #0
    173c:	602c      	str	r4, [r5, #0]
    173e:	712f      	strb	r7, [r5, #4]
    1740:	db06      	blt.n	1750 <__cxxabiv1::__si_class_type_info::__do_dyncast(int, __cxxabiv1::__class_type_info::__sub_kind, __cxxabiv1::__class_type_info const*, void const*, __cxxabiv1::__class_type_info const*, void const*, __cxxabiv1::__class_type_info::__dyncast_result&) const+0x36>
    1742:	4434      	add	r4, r6
    1744:	45a0      	cmp	r8, r4
    1746:	bf0c      	ite	eq
    1748:	2406      	moveq	r4, #6
    174a:	2401      	movne	r4, #1
    174c:	71ac      	strb	r4, [r5, #6]
    174e:	e01e      	b.n	178e <__cxxabiv1::__si_class_type_info::__do_dyncast(int, __cxxabiv1::__class_type_info::__sub_kind, __cxxabiv1::__class_type_info const*, void const*, __cxxabiv1::__class_type_info const*, void const*, __cxxabiv1::__class_type_info::__dyncast_result&) const+0x74>
    1750:	3602      	adds	r6, #2
    1752:	d11c      	bne.n	178e <__cxxabiv1::__si_class_type_info::__do_dyncast(int, __cxxabiv1::__class_type_info::__sub_kind, __cxxabiv1::__class_type_info const*, void const*, __cxxabiv1::__class_type_info const*, void const*, __cxxabiv1::__class_type_info::__dyncast_result&) const+0x74>
    1754:	2301      	movs	r3, #1
    1756:	71ab      	strb	r3, [r5, #6]
    1758:	e019      	b.n	178e <__cxxabiv1::__si_class_type_info::__do_dyncast(int, __cxxabiv1::__class_type_info::__sub_kind, __cxxabiv1::__class_type_info const*, void const*, __cxxabiv1::__class_type_info const*, void const*, __cxxabiv1::__class_type_info::__dyncast_result&) const+0x74>
    175a:	4544      	cmp	r4, r8
    175c:	d104      	bne.n	1768 <__cxxabiv1::__si_class_type_info::__do_dyncast(int, __cxxabiv1::__class_type_info::__sub_kind, __cxxabiv1::__class_type_info const*, void const*, __cxxabiv1::__class_type_info const*, void const*, __cxxabiv1::__class_type_info::__dyncast_result&) const+0x4e>
    175e:	4651      	mov	r1, r10
    1760:	4658      	mov	r0, r11
    1762:	f000 fa9e 	bl	1ca2 <std::type_info::operator==(std::type_info const&) const>
    1766:	b988      	cbnz	r0, 178c <__cxxabiv1::__si_class_type_info::__do_dyncast(int, __cxxabiv1::__class_type_info::__sub_kind, __cxxabiv1::__class_type_info const*, void const*, __cxxabiv1::__class_type_info const*, void const*, __cxxabiv1::__class_type_info::__dyncast_result&) const+0x72>
    1768:	f8db 0008 	ldr.w	r0, [r11, #8]
    176c:	463a      	mov	r2, r7
    176e:	6803      	ldr	r3, [r0, #0]
    1770:	950d      	str	r5, [sp, #52]	; 0x34
    1772:	f8cd 8030 	str.w	r8, [sp, #48]	; 0x30
    1776:	f8cd a02c 	str.w	r10, [sp, #44]	; 0x2c
    177a:	940a      	str	r4, [sp, #40]	; 0x28
    177c:	69dc      	ldr	r4, [r3, #28]
    177e:	4631      	mov	r1, r6
    1780:	464b      	mov	r3, r9
    1782:	46a4      	mov	r12, r4
    1784:	b001      	add	sp, #4
    1786:	e8bd 4ff0 	ldmia.w	sp!, {r4, r5, r6, r7, r8, r9, r10, r11, lr}
    178a:	4760      	bx	r12
    178c:	716f      	strb	r7, [r5, #5]
    178e:	2000      	movs	r0, #0
    1790:	b001      	add	sp, #4
    1792:	e8bd 8ff0 	ldmia.w	sp!, {r4, r5, r6, r7, r8, r9, r10, r11, pc}

00001796 <__cxxabiv1::__si_class_type_info::__do_find_public_src(int, void const*, __cxxabiv1::__class_type_info const*, void const*) const>:
    1796:	e92d 41f0 	stmdb	sp!, {r4, r5, r6, r7, r8, lr}
    179a:	9e06      	ldr	r6, [sp, #24]
    179c:	4680      	mov	r8, r0
    179e:	4296      	cmp	r6, r2
    17a0:	460f      	mov	r7, r1
    17a2:	4614      	mov	r4, r2
    17a4:	461d      	mov	r5, r3
    17a6:	d103      	bne.n	17b0 <__cxxabiv1::__si_class_type_info::__do_find_public_src(int, void const*, __cxxabiv1::__class_type_info const*, void const*) const+0x1a>
    17a8:	4619      	mov	r1, r3
    17aa:	f000 fa7a 	bl	1ca2 <std::type_info::operator==(std::type_info const&) const>
    17ae:	b958      	cbnz	r0, 17c8 <__cxxabiv1::__si_class_type_info::__do_find_public_src(int, void const*, __cxxabiv1::__class_type_info const*, void const*) const+0x32>
    17b0:	f8d8 0008 	ldr.w	r0, [r8, #8]
    17b4:	4622      	mov	r2, r4
    17b6:	6803      	ldr	r3, [r0, #0]
    17b8:	9606      	str	r6, [sp, #24]
    17ba:	6a1e      	ldr	r6, [r3, #32]
    17bc:	4639      	mov	r1, r7
    17be:	462b      	mov	r3, r5
    17c0:	46b4      	mov	r12, r6
    17c2:	e8bd 41f0 	ldmia.w	sp!, {r4, r5, r6, r7, r8, lr}
    17c6:	4760      	bx	r12
    17c8:	2006      	movs	r0, #6
    17ca:	e8bd 81f0 	ldmia.w	sp!, {r4, r5, r6, r7, r8, pc}

000017ce <__cxxabiv1::__si_class_type_info::__do_upcast(__cxxabiv1::__class_type_info const*, void const*, __cxxabiv1::__class_type_info::__upcast_result&) const>:
    17ce:	e92d 41f0 	stmdb	sp!, {r4, r5, r6, r7, r8, lr}
    17d2:	4604      	mov	r4, r0
    17d4:	460d      	mov	r5, r1
    17d6:	4616      	mov	r6, r2
    17d8:	461f      	mov	r7, r3
    17da:	f000 faac 	bl	1d36 <__cxxabiv1::__class_type_info::__do_upcast(__cxxabiv1::__class_type_info const*, void const*, __cxxabiv1::__class_type_info::__upcast_result&) const>
    17de:	b948      	cbnz	r0, 17f4 <__cxxabiv1::__si_class_type_info::__do_upcast(__cxxabiv1::__class_type_info const*, void const*, __cxxabiv1::__class_type_info::__upcast_result&) const+0x26>
    17e0:	68a0      	ldr	r0, [r4, #8]
    17e2:	4632      	mov	r2, r6
    17e4:	6803      	ldr	r3, [r0, #0]
    17e6:	4629      	mov	r1, r5
    17e8:	699c      	ldr	r4, [r3, #24]
    17ea:	463b      	mov	r3, r7
    17ec:	46a4      	mov	r12, r4
    17ee:	e8bd 41f0 	ldmia.w	sp!, {r4, r5, r6, r7, r8, lr}
    17f2:	4760      	bx	r12
    17f4:	e8bd 81f0 	ldmia.w	sp!, {r4, r5, r6, r7, r8, pc}

000017f8 <__cxxabiv1::__vmi_class_type_info::~__vmi_class_type_info()>:
    17f8:	b510      	push	{r4, lr}
    17fa:	4604      	mov	r4, r0
    17fc:	4b02      	ldr	r3, [pc, #8]	; (1808 <__cxxabiv1::__vmi_class_type_info::~__vmi_class_type_info()+0x10>)
    17fe:	6003      	str	r3, [r0, #0]
    1800:	f000 fa86 	bl	1d10 <__cxxabiv1::__class_type_info::~__class_type_info()>
    1804:	4620      	mov	r0, r4
    1806:	bd10      	pop	{r4, pc}
    1808:	00008454 	.word	0x00008454

0000180c <__cxxabiv1::__vmi_class_type_info::~__vmi_class_type_info()>:
    180c:	b510      	push	{r4, lr}
    180e:	4604      	mov	r4, r0
    1810:	f7ff fff2 	bl	17f8 <__cxxabiv1::__vmi_class_type_info::~__vmi_class_type_info()>
    1814:	4620      	mov	r0, r4
    1816:	f7ff ff6a 	bl	16ee <operator delete(void*)>
    181a:	4620      	mov	r0, r4
    181c:	bd10      	pop	{r4, pc}

0000181e <__cxxabiv1::__vmi_class_type_info::__do_find_public_src(int, void const*, __cxxabiv1::__class_type_info const*, void const*) const>:
    181e:	e92d 4ff7 	stmdb	sp!, {r0, r1, r2, r4, r5, r6, r7, r8, r9, r10, r11, lr}
    1822:	f8dd 9030 	ldr.w	r9, [sp, #48]	; 0x30
    1826:	4604      	mov	r4, r0
    1828:	454a      	cmp	r2, r9
    182a:	460f      	mov	r7, r1
    182c:	4616      	mov	r6, r2
    182e:	4698      	mov	r8, r3
    1830:	d105      	bne.n	183e <__cxxabiv1::__vmi_class_type_info::__do_find_public_src(int, void const*, __cxxabiv1::__class_type_info const*, void const*) const+0x20>
    1832:	4619      	mov	r1, r3
    1834:	f000 fa35 	bl	1ca2 <std::type_info::operator==(std::type_info const&) const>
    1838:	b108      	cbz	r0, 183e <__cxxabiv1::__vmi_class_type_info::__do_find_public_src(int, void const*, __cxxabiv1::__class_type_info const*, void const*) const+0x20>
    183a:	2006      	movs	r0, #6
    183c:	e026      	b.n	188c <__cxxabiv1::__vmi_class_type_info::__do_find_public_src(int, void const*, __cxxabiv1::__class_type_info const*, void const*) const+0x6e>
    183e:	68e5      	ldr	r5, [r4, #12]
    1840:	eb04 04c5 	add.w	r4, r4, r5, lsl #3
    1844:	b30d      	cbz	r5, 188a <__cxxabiv1::__vmi_class_type_info::__do_find_public_src(int, void const*, __cxxabiv1::__class_type_info const*, void const*) const+0x6c>
    1846:	68e3      	ldr	r3, [r4, #12]
    1848:	079a      	lsls	r2, r3, #30
    184a:	d402      	bmi.n	1852 <__cxxabiv1::__vmi_class_type_info::__do_find_public_src(int, void const*, __cxxabiv1::__class_type_info const*, void const*) const+0x34>
    184c:	3d01      	subs	r5, #1
    184e:	3c08      	subs	r4, #8
    1850:	e7f8      	b.n	1844 <__cxxabiv1::__vmi_class_type_info::__do_find_public_src(int, void const*, __cxxabiv1::__class_type_info const*, void const*) const+0x26>
    1852:	f013 0a01 	ands.w	r10, r3, #1
    1856:	ea4f 2223 	mov.w	r2, r3, asr #8
    185a:	d003      	beq.n	1864 <__cxxabiv1::__vmi_class_type_info::__do_find_public_src(int, void const*, __cxxabiv1::__class_type_info const*, void const*) const+0x46>
    185c:	1cfb      	adds	r3, r7, #3
    185e:	d0f5      	beq.n	184c <__cxxabiv1::__vmi_class_type_info::__do_find_public_src(int, void const*, __cxxabiv1::__class_type_info const*, void const*) const+0x2e>
    1860:	6833      	ldr	r3, [r6, #0]
    1862:	589a      	ldr	r2, [r3, r2]
    1864:	68a0      	ldr	r0, [r4, #8]
    1866:	4432      	add	r2, r6
    1868:	6803      	ldr	r3, [r0, #0]
    186a:	f8cd 9000 	str.w	r9, [sp]
    186e:	f8d3 b020 	ldr.w	r11, [r3, #32]
    1872:	4639      	mov	r1, r7
    1874:	4643      	mov	r3, r8
    1876:	47d8      	blx	r11
    1878:	2803      	cmp	r0, #3
    187a:	d9e7      	bls.n	184c <__cxxabiv1::__vmi_class_type_info::__do_find_public_src(int, void const*, __cxxabiv1::__class_type_info const*, void const*) const+0x2e>
    187c:	f1ba 0f00 	cmp.w	r10, #0
    1880:	d004      	beq.n	188c <__cxxabiv1::__vmi_class_type_info::__do_find_public_src(int, void const*, __cxxabiv1::__class_type_info const*, void const*) const+0x6e>
    1882:	f040 0001 	orr.w	r0, r0, #1
    1886:	b2c0      	uxtb	r0, r0
    1888:	e000      	b.n	188c <__cxxabiv1::__vmi_class_type_info::__do_find_public_src(int, void const*, __cxxabiv1::__class_type_info const*, void const*) const+0x6e>
    188a:	2001      	movs	r0, #1
    188c:	b003      	add	sp, #12
    188e:	e8bd 8ff0 	ldmia.w	sp!, {r4, r5, r6, r7, r8, r9, r10, r11, pc}

00001892 <__cxxabiv1::__class_type_info::__find_public_src(int, void const*, __cxxabiv1::__class_type_info const*, void const*) const>:
    1892:	b4f0      	push	{r4, r5, r6, r7}
    1894:	1e0d      	subs	r5, r1, #0
    1896:	9c04      	ldr	r4, [sp, #16]
    1898:	db05      	blt.n	18a6 <__cxxabiv1::__class_type_info::__find_public_src(int, void const*, __cxxabiv1::__class_type_info const*, void const*) const+0x14>
    189a:	1950      	adds	r0, r2, r5
    189c:	4284      	cmp	r4, r0
    189e:	bf14      	ite	ne
    18a0:	2001      	movne	r0, #1
    18a2:	2006      	moveq	r0, #6
    18a4:	e008      	b.n	18b8 <__cxxabiv1::__class_type_info::__find_public_src(int, void const*, __cxxabiv1::__class_type_info const*, void const*) const+0x26>
    18a6:	3502      	adds	r5, #2
    18a8:	d005      	beq.n	18b6 <__cxxabiv1::__class_type_info::__find_public_src(int, void const*, __cxxabiv1::__class_type_info const*, void const*) const+0x24>
    18aa:	6805      	ldr	r5, [r0, #0]
    18ac:	9404      	str	r4, [sp, #16]
    18ae:	6a2c      	ldr	r4, [r5, #32]
    18b0:	46a4      	mov	r12, r4
    18b2:	bcf0      	pop	{r4, r5, r6, r7}
    18b4:	4760      	bx	r12
    18b6:	2001      	movs	r0, #1
    18b8:	bcf0      	pop	{r4, r5, r6, r7}
    18ba:	4770      	bx	lr

000018bc <__cxxabiv1::__vmi_class_type_info::__do_dyncast(int, __cxxabiv1::__class_type_info::__sub_kind, __cxxabiv1::__class_type_info const*, void const*, __cxxabiv1::__class_type_info const*, void const*, __cxxabiv1::__class_type_info::__dyncast_result&) const>:
    18bc:	e92d 4ff0 	stmdb	sp!, {r4, r5, r6, r7, r8, r9, r10, r11, lr}
    18c0:	b091      	sub	sp, #68	; 0x44
    18c2:	9c1d      	ldr	r4, [sp, #116]	; 0x74
    18c4:	9307      	str	r3, [sp, #28]
    18c6:	68a3      	ldr	r3, [r4, #8]
    18c8:	4688      	mov	r8, r1
    18ca:	06d9      	lsls	r1, r3, #27
    18cc:	bf48      	it	mi
    18ce:	6883      	ldrmi	r3, [r0, #8]
    18d0:	9206      	str	r2, [sp, #24]
    18d2:	bf48      	it	mi
    18d4:	60a3      	strmi	r3, [r4, #8]
    18d6:	9a1c      	ldr	r2, [sp, #112]	; 0x70
    18d8:	9b1a      	ldr	r3, [sp, #104]	; 0x68
    18da:	4682      	mov	r10, r0
    18dc:	4293      	cmp	r3, r2
    18de:	d108      	bne.n	18f2 <__cxxabiv1::__vmi_class_type_info::__do_dyncast(int, __cxxabiv1::__class_type_info::__sub_kind, __cxxabiv1::__class_type_info const*, void const*, __cxxabiv1::__class_type_info const*, void const*, __cxxabiv1::__class_type_info::__dyncast_result&) const+0x36>
    18e0:	991b      	ldr	r1, [sp, #108]	; 0x6c
    18e2:	f000 f9de 	bl	1ca2 <std::type_info::operator==(std::type_info const&) const>
    18e6:	b120      	cbz	r0, 18f2 <__cxxabiv1::__vmi_class_type_info::__do_dyncast(int, __cxxabiv1::__class_type_info::__sub_kind, __cxxabiv1::__class_type_info const*, void const*, __cxxabiv1::__class_type_info const*, void const*, __cxxabiv1::__class_type_info::__dyncast_result&) const+0x36>
    18e8:	f89d 3018 	ldrb.w	r3, [sp, #24]
    18ec:	7163      	strb	r3, [r4, #5]
    18ee:	2700      	movs	r7, #0
    18f0:	e127      	b.n	1b42 <__cxxabiv1::__vmi_class_type_info::__do_dyncast(int, __cxxabiv1::__class_type_info::__sub_kind, __cxxabiv1::__class_type_info const*, void const*, __cxxabiv1::__class_type_info const*, void const*, __cxxabiv1::__class_type_info::__dyncast_result&) const+0x286>
    18f2:	9907      	ldr	r1, [sp, #28]
    18f4:	4650      	mov	r0, r10
    18f6:	f000 f9d4 	bl	1ca2 <std::type_info::operator==(std::type_info const&) const>
    18fa:	4607      	mov	r7, r0
    18fc:	b1c8      	cbz	r0, 1932 <__cxxabiv1::__vmi_class_type_info::__do_dyncast(int, __cxxabiv1::__class_type_info::__sub_kind, __cxxabiv1::__class_type_info const*, void const*, __cxxabiv1::__class_type_info const*, void const*, __cxxabiv1::__class_type_info::__dyncast_result&) const+0x76>
    18fe:	9b1a      	ldr	r3, [sp, #104]	; 0x68
    1900:	f1b8 0f00 	cmp.w	r8, #0
    1904:	6023      	str	r3, [r4, #0]
    1906:	f89d 3018 	ldrb.w	r3, [sp, #24]
    190a:	7123      	strb	r3, [r4, #4]
    190c:	db0b      	blt.n	1926 <__cxxabiv1::__vmi_class_type_info::__do_dyncast(int, __cxxabiv1::__class_type_info::__sub_kind, __cxxabiv1::__class_type_info const*, void const*, __cxxabiv1::__class_type_info const*, void const*, __cxxabiv1::__class_type_info::__dyncast_result&) const+0x6a>
    190e:	9b1a      	ldr	r3, [sp, #104]	; 0x68
    1910:	4498      	add	r8, r3
    1912:	9b1c      	ldr	r3, [sp, #112]	; 0x70
    1914:	4543      	cmp	r3, r8
    1916:	bf0c      	ite	eq
    1918:	f04f 0806 	moveq.w	r8, #6
    191c:	f04f 0801 	movne.w	r8, #1
    1920:	f884 8006 	strb.w	r8, [r4, #6]
    1924:	e7e3      	b.n	18ee <__cxxabiv1::__vmi_class_type_info::__do_dyncast(int, __cxxabiv1::__class_type_info::__sub_kind, __cxxabiv1::__class_type_info const*, void const*, __cxxabiv1::__class_type_info const*, void const*, __cxxabiv1::__class_type_info::__dyncast_result&) const+0x32>
    1926:	f118 0f02 	cmn.w	r8, #2
    192a:	d1e0      	bne.n	18ee <__cxxabiv1::__vmi_class_type_info::__do_dyncast(int, __cxxabiv1::__class_type_info::__sub_kind, __cxxabiv1::__class_type_info const*, void const*, __cxxabiv1::__class_type_info const*, void const*, __cxxabiv1::__class_type_info::__dyncast_result&) const+0x32>
    192c:	2301      	movs	r3, #1
    192e:	71a3      	strb	r3, [r4, #6]
    1930:	e7dd      	b.n	18ee <__cxxabiv1::__vmi_class_type_info::__do_dyncast(int, __cxxabiv1::__class_type_info::__sub_kind, __cxxabiv1::__class_type_info const*, void const*, __cxxabiv1::__class_type_info const*, void const*, __cxxabiv1::__class_type_info::__dyncast_result&) const+0x32>
    1932:	f04f 0900 	mov.w	r9, #0
    1936:	46cb      	mov	r11, r9
    1938:	f1b8 0f00 	cmp.w	r8, #0
    193c:	bfa9      	itett	ge
    193e:	9b1c      	ldrge	r3, [sp, #112]	; 0x70
    1940:	9708      	strlt	r7, [sp, #32]
    1942:	ebc8 0303 	rsbge	r3, r8, r3
    1946:	9308      	strge	r3, [sp, #32]
    1948:	2301      	movs	r3, #1
    194a:	9309      	str	r3, [sp, #36]	; 0x24
    194c:	9b06      	ldr	r3, [sp, #24]
    194e:	f8cd 9028 	str.w	r9, [sp, #40]	; 0x28
    1952:	f043 0301 	orr.w	r3, r3, #1
    1956:	930b      	str	r3, [sp, #44]	; 0x2c
    1958:	f8da 300c 	ldr.w	r3, [r10, #12]
    195c:	eb0a 02c3 	add.w	r2, r10, r3, lsl #3
    1960:	9204      	str	r2, [sp, #16]
    1962:	9305      	str	r3, [sp, #20]
    1964:	9b05      	ldr	r3, [sp, #20]
    1966:	2b00      	cmp	r3, #0
    1968:	f000 80a3 	beq.w	1ab2 <__cxxabiv1::__vmi_class_type_info::__do_dyncast(int, __cxxabiv1::__class_type_info::__sub_kind, __cxxabiv1::__class_type_info const*, void const*, __cxxabiv1::__class_type_info const*, void const*, __cxxabiv1::__class_type_info::__dyncast_result&) const+0x1f6>
    196c:	9b04      	ldr	r3, [sp, #16]
    196e:	68a5      	ldr	r5, [r4, #8]
    1970:	68db      	ldr	r3, [r3, #12]
    1972:	950f      	str	r5, [sp, #60]	; 0x3c
    1974:	07da      	lsls	r2, r3, #31
    1976:	bf48      	it	mi
    1978:	981a      	ldrmi	r0, [sp, #104]	; 0x68
    197a:	ea4f 2123 	mov.w	r1, r3, asr #8
    197e:	bf48      	it	mi
    1980:	6800      	ldrmi	r0, [r0, #0]
    1982:	f8cd b034 	str.w	r11, [sp, #52]	; 0x34
    1986:	bf48      	it	mi
    1988:	5841      	ldrmi	r1, [r0, r1]
    198a:	981a      	ldr	r0, [sp, #104]	; 0x68
    198c:	f88d b038 	strb.w	r11, [sp, #56]	; 0x38
    1990:	4401      	add	r1, r0
    1992:	9808      	ldr	r0, [sp, #32]
    1994:	f88d b039 	strb.w	r11, [sp, #57]	; 0x39
    1998:	f88d b03a 	strb.w	r11, [sp, #58]	; 0x3a
    199c:	bf4c      	ite	mi
    199e:	9a0b      	ldrmi	r2, [sp, #44]	; 0x2c
    19a0:	9a06      	ldrpl	r2, [sp, #24]
    19a2:	b130      	cbz	r0, 19b2 <__cxxabiv1::__vmi_class_type_info::__do_dyncast(int, __cxxabiv1::__class_type_info::__sub_kind, __cxxabiv1::__class_type_info const*, void const*, __cxxabiv1::__class_type_info const*, void const*, __cxxabiv1::__class_type_info::__dyncast_result&) const+0xf6>
    19a4:	4288      	cmp	r0, r1
    19a6:	9e09      	ldr	r6, [sp, #36]	; 0x24
    19a8:	bf2c      	ite	cs
    19aa:	2000      	movcs	r0, #0
    19ac:	2001      	movcc	r0, #1
    19ae:	42b0      	cmp	r0, r6
    19b0:	d078      	beq.n	1aa4 <__cxxabiv1::__vmi_class_type_info::__do_dyncast(int, __cxxabiv1::__class_type_info::__sub_kind, __cxxabiv1::__class_type_info const*, void const*, __cxxabiv1::__class_type_info const*, void const*, __cxxabiv1::__class_type_info::__dyncast_result&) const+0x1e8>
    19b2:	079b      	lsls	r3, r3, #30
    19b4:	d40d      	bmi.n	19d2 <__cxxabiv1::__vmi_class_type_info::__do_dyncast(int, __cxxabiv1::__class_type_info::__sub_kind, __cxxabiv1::__class_type_info const*, void const*, __cxxabiv1::__class_type_info const*, void const*, __cxxabiv1::__class_type_info::__dyncast_result&) const+0x116>
    19b6:	f118 0f02 	cmn.w	r8, #2
    19ba:	d108      	bne.n	19ce <__cxxabiv1::__vmi_class_type_info::__do_dyncast(int, __cxxabiv1::__class_type_info::__sub_kind, __cxxabiv1::__class_type_info const*, void const*, __cxxabiv1::__class_type_info const*, void const*, __cxxabiv1::__class_type_info::__dyncast_result&) const+0x112>
    19bc:	07ae      	lsls	r6, r5, #30
    19be:	d106      	bne.n	19ce <__cxxabiv1::__vmi_class_type_info::__do_dyncast(int, __cxxabiv1::__class_type_info::__sub_kind, __cxxabiv1::__class_type_info const*, void const*, __cxxabiv1::__class_type_info const*, void const*, __cxxabiv1::__class_type_info::__dyncast_result&) const+0x112>
    19c0:	9b05      	ldr	r3, [sp, #20]
    19c2:	3b01      	subs	r3, #1
    19c4:	9305      	str	r3, [sp, #20]
    19c6:	9b04      	ldr	r3, [sp, #16]
    19c8:	3b08      	subs	r3, #8
    19ca:	9304      	str	r3, [sp, #16]
    19cc:	e7ca      	b.n	1964 <__cxxabiv1::__vmi_class_type_info::__do_dyncast(int, __cxxabiv1::__class_type_info::__sub_kind, __cxxabiv1::__class_type_info const*, void const*, __cxxabiv1::__class_type_info const*, void const*, __cxxabiv1::__class_type_info::__dyncast_result&) const+0xa8>
    19ce:	f002 02fd 	and.w	r2, r2, #253	; 0xfd
    19d2:	9b04      	ldr	r3, [sp, #16]
    19d4:	ad0d      	add	r5, sp, #52	; 0x34
    19d6:	6898      	ldr	r0, [r3, #8]
    19d8:	6803      	ldr	r3, [r0, #0]
    19da:	9503      	str	r5, [sp, #12]
    19dc:	9d1c      	ldr	r5, [sp, #112]	; 0x70
    19de:	9502      	str	r5, [sp, #8]
    19e0:	9d1b      	ldr	r5, [sp, #108]	; 0x6c
    19e2:	e88d 0022 	stmia.w	sp, {r1, r5}
    19e6:	4641      	mov	r1, r8
    19e8:	69dd      	ldr	r5, [r3, #28]
    19ea:	9b07      	ldr	r3, [sp, #28]
    19ec:	47a8      	blx	r5
    19ee:	7961      	ldrb	r1, [r4, #5]
    19f0:	f89d 2039 	ldrb.w	r2, [sp, #57]	; 0x39
    19f4:	f89d 503a 	ldrb.w	r5, [sp, #58]	; 0x3a
    19f8:	4311      	orrs	r1, r2
    19fa:	2d06      	cmp	r5, #6
    19fc:	4603      	mov	r3, r0
    19fe:	7161      	strb	r1, [r4, #5]
    1a00:	d001      	beq.n	1a06 <__cxxabiv1::__vmi_class_type_info::__do_dyncast(int, __cxxabiv1::__class_type_info::__sub_kind, __cxxabiv1::__class_type_info const*, void const*, __cxxabiv1::__class_type_info const*, void const*, __cxxabiv1::__class_type_info::__dyncast_result&) const+0x14a>
    1a02:	2d02      	cmp	r5, #2
    1a04:	d106      	bne.n	1a14 <__cxxabiv1::__vmi_class_type_info::__do_dyncast(int, __cxxabiv1::__class_type_info::__sub_kind, __cxxabiv1::__class_type_info const*, void const*, __cxxabiv1::__class_type_info const*, void const*, __cxxabiv1::__class_type_info::__dyncast_result&) const+0x158>
    1a06:	9b0d      	ldr	r3, [sp, #52]	; 0x34
    1a08:	71a5      	strb	r5, [r4, #6]
    1a0a:	6023      	str	r3, [r4, #0]
    1a0c:	f89d 3038 	ldrb.w	r3, [sp, #56]	; 0x38
    1a10:	7123      	strb	r3, [r4, #4]
    1a12:	e04a      	b.n	1aaa <__cxxabiv1::__vmi_class_type_info::__do_dyncast(int, __cxxabiv1::__class_type_info::__sub_kind, __cxxabiv1::__class_type_info const*, void const*, __cxxabiv1::__class_type_info const*, void const*, __cxxabiv1::__class_type_info::__dyncast_result&) const+0x1ee>
    1a14:	6822      	ldr	r2, [r4, #0]
    1a16:	f1b9 0f00 	cmp.w	r9, #0
    1a1a:	d10e      	bne.n	1a3a <__cxxabiv1::__vmi_class_type_info::__do_dyncast(int, __cxxabiv1::__class_type_info::__sub_kind, __cxxabiv1::__class_type_info const*, void const*, __cxxabiv1::__class_type_info const*, void const*, __cxxabiv1::__class_type_info::__dyncast_result&) const+0x17e>
    1a1c:	b96a      	cbnz	r2, 1a3a <__cxxabiv1::__vmi_class_type_info::__do_dyncast(int, __cxxabiv1::__class_type_info::__sub_kind, __cxxabiv1::__class_type_info const*, void const*, __cxxabiv1::__class_type_info const*, void const*, __cxxabiv1::__class_type_info::__dyncast_result&) const+0x17e>
    1a1e:	9a0d      	ldr	r2, [sp, #52]	; 0x34
    1a20:	f89d 5038 	ldrb.w	r5, [sp, #56]	; 0x38
    1a24:	6022      	str	r2, [r4, #0]
    1a26:	7125      	strb	r5, [r4, #4]
    1a28:	2a00      	cmp	r2, #0
    1a2a:	d036      	beq.n	1a9a <__cxxabiv1::__vmi_class_type_info::__do_dyncast(int, __cxxabiv1::__class_type_info::__sub_kind, __cxxabiv1::__class_type_info const*, void const*, __cxxabiv1::__class_type_info const*, void const*, __cxxabiv1::__class_type_info::__dyncast_result&) const+0x1de>
    1a2c:	2900      	cmp	r1, #0
    1a2e:	d034      	beq.n	1a9a <__cxxabiv1::__vmi_class_type_info::__do_dyncast(int, __cxxabiv1::__class_type_info::__sub_kind, __cxxabiv1::__class_type_info const*, void const*, __cxxabiv1::__class_type_info const*, void const*, __cxxabiv1::__class_type_info::__dyncast_result&) const+0x1de>
    1a30:	f8da 2008 	ldr.w	r2, [r10, #8]
    1a34:	07d5      	lsls	r5, r2, #31
    1a36:	d430      	bmi.n	1a9a <__cxxabiv1::__vmi_class_type_info::__do_dyncast(int, __cxxabiv1::__class_type_info::__sub_kind, __cxxabiv1::__class_type_info const*, void const*, __cxxabiv1::__class_type_info const*, void const*, __cxxabiv1::__class_type_info::__dyncast_result&) const+0x1de>
    1a38:	e037      	b.n	1aaa <__cxxabiv1::__vmi_class_type_info::__do_dyncast(int, __cxxabiv1::__class_type_info::__sub_kind, __cxxabiv1::__class_type_info const*, void const*, __cxxabiv1::__class_type_info const*, void const*, __cxxabiv1::__class_type_info::__dyncast_result&) const+0x1ee>
    1a3a:	b152      	cbz	r2, 1a52 <__cxxabiv1::__vmi_class_type_info::__do_dyncast(int, __cxxabiv1::__class_type_info::__sub_kind, __cxxabiv1::__class_type_info const*, void const*, __cxxabiv1::__class_type_info const*, void const*, __cxxabiv1::__class_type_info::__dyncast_result&) const+0x196>
    1a3c:	9b0d      	ldr	r3, [sp, #52]	; 0x34
    1a3e:	429a      	cmp	r2, r3
    1a40:	d105      	bne.n	1a4e <__cxxabiv1::__vmi_class_type_info::__do_dyncast(int, __cxxabiv1::__class_type_info::__sub_kind, __cxxabiv1::__class_type_info const*, void const*, __cxxabiv1::__class_type_info const*, void const*, __cxxabiv1::__class_type_info::__dyncast_result&) const+0x192>
    1a42:	7922      	ldrb	r2, [r4, #4]
    1a44:	f89d 3038 	ldrb.w	r3, [sp, #56]	; 0x38
    1a48:	4313      	orrs	r3, r2
    1a4a:	7123      	strb	r3, [r4, #4]
    1a4c:	e024      	b.n	1a98 <__cxxabiv1::__vmi_class_type_info::__do_dyncast(int, __cxxabiv1::__class_type_info::__sub_kind, __cxxabiv1::__class_type_info const*, void const*, __cxxabiv1::__class_type_info const*, void const*, __cxxabiv1::__class_type_info::__dyncast_result&) const+0x1dc>
    1a4e:	b92b      	cbnz	r3, 1a5c <__cxxabiv1::__vmi_class_type_info::__do_dyncast(int, __cxxabiv1::__class_type_info::__sub_kind, __cxxabiv1::__class_type_info const*, void const*, __cxxabiv1::__class_type_info const*, void const*, __cxxabiv1::__class_type_info::__dyncast_result&) const+0x1a0>
    1a50:	b920      	cbnz	r0, 1a5c <__cxxabiv1::__vmi_class_type_info::__do_dyncast(int, __cxxabiv1::__class_type_info::__sub_kind, __cxxabiv1::__class_type_info const*, void const*, __cxxabiv1::__class_type_info const*, void const*, __cxxabiv1::__class_type_info::__dyncast_result&) const+0x1a0>
    1a52:	9b0d      	ldr	r3, [sp, #52]	; 0x34
    1a54:	b303      	cbz	r3, 1a98 <__cxxabiv1::__vmi_class_type_info::__do_dyncast(int, __cxxabiv1::__class_type_info::__sub_kind, __cxxabiv1::__class_type_info const*, void const*, __cxxabiv1::__class_type_info const*, void const*, __cxxabiv1::__class_type_info::__dyncast_result&) const+0x1dc>
    1a56:	f1b9 0f00 	cmp.w	r9, #0
    1a5a:	d01d      	beq.n	1a98 <__cxxabiv1::__vmi_class_type_info::__do_dyncast(int, __cxxabiv1::__class_type_info::__sub_kind, __cxxabiv1::__class_type_info const*, void const*, __cxxabiv1::__class_type_info const*, void const*, __cxxabiv1::__class_type_info::__dyncast_result&) const+0x1dc>
    1a5c:	2903      	cmp	r1, #3
    1a5e:	79a6      	ldrb	r6, [r4, #6]
    1a60:	d904      	bls.n	1a6c <__cxxabiv1::__vmi_class_type_info::__do_dyncast(int, __cxxabiv1::__class_type_info::__sub_kind, __cxxabiv1::__class_type_info const*, void const*, __cxxabiv1::__class_type_info const*, void const*, __cxxabiv1::__class_type_info::__dyncast_result&) const+0x1b0>
    1a62:	07c8      	lsls	r0, r1, #31
    1a64:	d553      	bpl.n	1b0e <__cxxabiv1::__vmi_class_type_info::__do_dyncast(int, __cxxabiv1::__class_type_info::__sub_kind, __cxxabiv1::__class_type_info const*, void const*, __cxxabiv1::__class_type_info const*, void const*, __cxxabiv1::__class_type_info::__dyncast_result&) const+0x252>
    1a66:	68a3      	ldr	r3, [r4, #8]
    1a68:	0799      	lsls	r1, r3, #30
    1a6a:	d550      	bpl.n	1b0e <__cxxabiv1::__vmi_class_type_info::__do_dyncast(int, __cxxabiv1::__class_type_info::__sub_kind, __cxxabiv1::__class_type_info const*, void const*, __cxxabiv1::__class_type_info const*, void const*, __cxxabiv1::__class_type_info::__dyncast_result&) const+0x252>
    1a6c:	b356      	cbz	r6, 1ac4 <__cxxabiv1::__vmi_class_type_info::__do_dyncast(int, __cxxabiv1::__class_type_info::__sub_kind, __cxxabiv1::__class_type_info const*, void const*, __cxxabiv1::__class_type_info const*, void const*, __cxxabiv1::__class_type_info::__dyncast_result&) const+0x208>
    1a6e:	b395      	cbz	r5, 1ad6 <__cxxabiv1::__vmi_class_type_info::__do_dyncast(int, __cxxabiv1::__class_type_info::__sub_kind, __cxxabiv1::__class_type_info const*, void const*, __cxxabiv1::__class_type_info const*, void const*, __cxxabiv1::__class_type_info::__dyncast_result&) const+0x21a>
    1a70:	ea85 0306 	eor.w	r3, r5, r6
    1a74:	b2db      	uxtb	r3, r3
    1a76:	2b03      	cmp	r3, #3
    1a78:	d93a      	bls.n	1af0 <__cxxabiv1::__vmi_class_type_info::__do_dyncast(int, __cxxabiv1::__class_type_info::__sub_kind, __cxxabiv1::__class_type_info const*, void const*, __cxxabiv1::__class_type_info const*, void const*, __cxxabiv1::__class_type_info::__dyncast_result&) const+0x234>
    1a7a:	2d03      	cmp	r5, #3
    1a7c:	d907      	bls.n	1a8e <__cxxabiv1::__vmi_class_type_info::__do_dyncast(int, __cxxabiv1::__class_type_info::__sub_kind, __cxxabiv1::__class_type_info const*, void const*, __cxxabiv1::__class_type_info const*, void const*, __cxxabiv1::__class_type_info::__dyncast_result&) const+0x1d2>
    1a7e:	462e      	mov	r6, r5
    1a80:	9b0d      	ldr	r3, [sp, #52]	; 0x34
    1a82:	f04f 0900 	mov.w	r9, #0
    1a86:	6023      	str	r3, [r4, #0]
    1a88:	f89d 3038 	ldrb.w	r3, [sp, #56]	; 0x38
    1a8c:	7123      	strb	r3, [r4, #4]
    1a8e:	07b2      	lsls	r2, r6, #30
    1a90:	71a6      	strb	r6, [r4, #6]
    1a92:	d456      	bmi.n	1b42 <__cxxabiv1::__vmi_class_type_info::__do_dyncast(int, __cxxabiv1::__class_type_info::__sub_kind, __cxxabiv1::__class_type_info const*, void const*, __cxxabiv1::__class_type_info const*, void const*, __cxxabiv1::__class_type_info::__dyncast_result&) const+0x286>
    1a94:	07f3      	lsls	r3, r6, #31
    1a96:	d554      	bpl.n	1b42 <__cxxabiv1::__vmi_class_type_info::__do_dyncast(int, __cxxabiv1::__class_type_info::__sub_kind, __cxxabiv1::__class_type_info const*, void const*, __cxxabiv1::__class_type_info const*, void const*, __cxxabiv1::__class_type_info::__dyncast_result&) const+0x286>
    1a98:	464b      	mov	r3, r9
    1a9a:	7962      	ldrb	r2, [r4, #5]
    1a9c:	2a04      	cmp	r2, #4
    1a9e:	d006      	beq.n	1aae <__cxxabiv1::__vmi_class_type_info::__do_dyncast(int, __cxxabiv1::__class_type_info::__sub_kind, __cxxabiv1::__class_type_info const*, void const*, __cxxabiv1::__class_type_info const*, void const*, __cxxabiv1::__class_type_info::__dyncast_result&) const+0x1f2>
    1aa0:	4699      	mov	r9, r3
    1aa2:	e78d      	b.n	19c0 <__cxxabiv1::__vmi_class_type_info::__do_dyncast(int, __cxxabiv1::__class_type_info::__sub_kind, __cxxabiv1::__class_type_info const*, void const*, __cxxabiv1::__class_type_info const*, void const*, __cxxabiv1::__class_type_info::__dyncast_result&) const+0x104>
    1aa4:	2301      	movs	r3, #1
    1aa6:	930a      	str	r3, [sp, #40]	; 0x28
    1aa8:	e78a      	b.n	19c0 <__cxxabiv1::__vmi_class_type_info::__do_dyncast(int, __cxxabiv1::__class_type_info::__sub_kind, __cxxabiv1::__class_type_info const*, void const*, __cxxabiv1::__class_type_info const*, void const*, __cxxabiv1::__class_type_info::__dyncast_result&) const+0x104>
    1aaa:	4607      	mov	r7, r0
    1aac:	e049      	b.n	1b42 <__cxxabiv1::__vmi_class_type_info::__do_dyncast(int, __cxxabiv1::__class_type_info::__sub_kind, __cxxabiv1::__class_type_info const*, void const*, __cxxabiv1::__class_type_info const*, void const*, __cxxabiv1::__class_type_info::__dyncast_result&) const+0x286>
    1aae:	461f      	mov	r7, r3
    1ab0:	e047      	b.n	1b42 <__cxxabiv1::__vmi_class_type_info::__do_dyncast(int, __cxxabiv1::__class_type_info::__sub_kind, __cxxabiv1::__class_type_info const*, void const*, __cxxabiv1::__class_type_info const*, void const*, __cxxabiv1::__class_type_info::__dyncast_result&) const+0x286>
    1ab2:	9b0a      	ldr	r3, [sp, #40]	; 0x28
    1ab4:	b123      	cbz	r3, 1ac0 <__cxxabiv1::__vmi_class_type_info::__do_dyncast(int, __cxxabiv1::__class_type_info::__sub_kind, __cxxabiv1::__class_type_info const*, void const*, __cxxabiv1::__class_type_info const*, void const*, __cxxabiv1::__class_type_info::__dyncast_result&) const+0x204>
    1ab6:	9b09      	ldr	r3, [sp, #36]	; 0x24
    1ab8:	b113      	cbz	r3, 1ac0 <__cxxabiv1::__vmi_class_type_info::__do_dyncast(int, __cxxabiv1::__class_type_info::__sub_kind, __cxxabiv1::__class_type_info const*, void const*, __cxxabiv1::__class_type_info const*, void const*, __cxxabiv1::__class_type_info::__dyncast_result&) const+0x204>
    1aba:	9b05      	ldr	r3, [sp, #20]
    1abc:	9309      	str	r3, [sp, #36]	; 0x24
    1abe:	e74b      	b.n	1958 <__cxxabiv1::__vmi_class_type_info::__do_dyncast(int, __cxxabiv1::__class_type_info::__sub_kind, __cxxabiv1::__class_type_info const*, void const*, __cxxabiv1::__class_type_info const*, void const*, __cxxabiv1::__class_type_info::__dyncast_result&) const+0x9c>
    1ac0:	464f      	mov	r7, r9
    1ac2:	e03e      	b.n	1b42 <__cxxabiv1::__vmi_class_type_info::__do_dyncast(int, __cxxabiv1::__class_type_info::__sub_kind, __cxxabiv1::__class_type_info const*, void const*, __cxxabiv1::__class_type_info const*, void const*, __cxxabiv1::__class_type_info::__dyncast_result&) const+0x286>
    1ac4:	2d03      	cmp	r5, #3
    1ac6:	d929      	bls.n	1b1c <__cxxabiv1::__vmi_class_type_info::__do_dyncast(int, __cxxabiv1::__class_type_info::__sub_kind, __cxxabiv1::__class_type_info const*, void const*, __cxxabiv1::__class_type_info const*, void const*, __cxxabiv1::__class_type_info::__dyncast_result&) const+0x260>
    1ac8:	07eb      	lsls	r3, r5, #31
    1aca:	d50d      	bpl.n	1ae8 <__cxxabiv1::__vmi_class_type_info::__do_dyncast(int, __cxxabiv1::__class_type_info::__sub_kind, __cxxabiv1::__class_type_info const*, void const*, __cxxabiv1::__class_type_info const*, void const*, __cxxabiv1::__class_type_info::__dyncast_result&) const+0x22c>
    1acc:	f8da 3008 	ldr.w	r3, [r10, #8]
    1ad0:	079e      	lsls	r6, r3, #30
    1ad2:	d509      	bpl.n	1ae8 <__cxxabiv1::__vmi_class_type_info::__do_dyncast(int, __cxxabiv1::__class_type_info::__sub_kind, __cxxabiv1::__class_type_info const*, void const*, __cxxabiv1::__class_type_info const*, void const*, __cxxabiv1::__class_type_info::__dyncast_result&) const+0x22c>
    1ad4:	e022      	b.n	1b1c <__cxxabiv1::__vmi_class_type_info::__do_dyncast(int, __cxxabiv1::__class_type_info::__sub_kind, __cxxabiv1::__class_type_info const*, void const*, __cxxabiv1::__class_type_info const*, void const*, __cxxabiv1::__class_type_info::__dyncast_result&) const+0x260>
    1ad6:	2e03      	cmp	r6, #3
    1ad8:	d929      	bls.n	1b2e <__cxxabiv1::__vmi_class_type_info::__do_dyncast(int, __cxxabiv1::__class_type_info::__sub_kind, __cxxabiv1::__class_type_info const*, void const*, __cxxabiv1::__class_type_info const*, void const*, __cxxabiv1::__class_type_info::__dyncast_result&) const+0x272>
    1ada:	07f0      	lsls	r0, r6, #31
    1adc:	d506      	bpl.n	1aec <__cxxabiv1::__vmi_class_type_info::__do_dyncast(int, __cxxabiv1::__class_type_info::__sub_kind, __cxxabiv1::__class_type_info const*, void const*, __cxxabiv1::__class_type_info const*, void const*, __cxxabiv1::__class_type_info::__dyncast_result&) const+0x230>
    1ade:	f8da 3008 	ldr.w	r3, [r10, #8]
    1ae2:	0799      	lsls	r1, r3, #30
    1ae4:	d423      	bmi.n	1b2e <__cxxabiv1::__vmi_class_type_info::__do_dyncast(int, __cxxabiv1::__class_type_info::__sub_kind, __cxxabiv1::__class_type_info const*, void const*, __cxxabiv1::__class_type_info const*, void const*, __cxxabiv1::__class_type_info::__dyncast_result&) const+0x272>
    1ae6:	e001      	b.n	1aec <__cxxabiv1::__vmi_class_type_info::__do_dyncast(int, __cxxabiv1::__class_type_info::__sub_kind, __cxxabiv1::__class_type_info const*, void const*, __cxxabiv1::__class_type_info const*, void const*, __cxxabiv1::__class_type_info::__dyncast_result&) const+0x230>
    1ae8:	2601      	movs	r6, #1
    1aea:	e7c1      	b.n	1a70 <__cxxabiv1::__vmi_class_type_info::__do_dyncast(int, __cxxabiv1::__class_type_info::__sub_kind, __cxxabiv1::__class_type_info const*, void const*, __cxxabiv1::__class_type_info const*, void const*, __cxxabiv1::__class_type_info::__dyncast_result&) const+0x1b4>
    1aec:	2501      	movs	r5, #1
    1aee:	e7bf      	b.n	1a70 <__cxxabiv1::__vmi_class_type_info::__do_dyncast(int, __cxxabiv1::__class_type_info::__sub_kind, __cxxabiv1::__class_type_info const*, void const*, __cxxabiv1::__class_type_info const*, void const*, __cxxabiv1::__class_type_info::__dyncast_result&) const+0x1b4>
    1af0:	4035      	ands	r5, r6
    1af2:	b2ed      	uxtb	r5, r5
    1af4:	2d03      	cmp	r5, #3
    1af6:	d905      	bls.n	1b04 <__cxxabiv1::__vmi_class_type_info::__do_dyncast(int, __cxxabiv1::__class_type_info::__sub_kind, __cxxabiv1::__class_type_info const*, void const*, __cxxabiv1::__class_type_info const*, void const*, __cxxabiv1::__class_type_info::__dyncast_result&) const+0x248>
    1af8:	2300      	movs	r3, #0
    1afa:	6023      	str	r3, [r4, #0]
    1afc:	2302      	movs	r3, #2
    1afe:	71a3      	strb	r3, [r4, #6]
    1b00:	2701      	movs	r7, #1
    1b02:	e01e      	b.n	1b42 <__cxxabiv1::__vmi_class_type_info::__do_dyncast(int, __cxxabiv1::__class_type_info::__sub_kind, __cxxabiv1::__class_type_info const*, void const*, __cxxabiv1::__class_type_info const*, void const*, __cxxabiv1::__class_type_info::__dyncast_result&) const+0x286>
    1b04:	2301      	movs	r3, #1
    1b06:	f8c4 b000 	str.w	r11, [r4]
    1b0a:	71a3      	strb	r3, [r4, #6]
    1b0c:	e7c5      	b.n	1a9a <__cxxabiv1::__vmi_class_type_info::__do_dyncast(int, __cxxabiv1::__class_type_info::__sub_kind, __cxxabiv1::__class_type_info const*, void const*, __cxxabiv1::__class_type_info const*, void const*, __cxxabiv1::__class_type_info::__dyncast_result&) const+0x1de>
    1b0e:	2e00      	cmp	r6, #0
    1b10:	bf08      	it	eq
    1b12:	2601      	moveq	r6, #1
    1b14:	2d00      	cmp	r5, #0
    1b16:	bf08      	it	eq
    1b18:	2501      	moveq	r5, #1
    1b1a:	e7a9      	b.n	1a70 <__cxxabiv1::__vmi_class_type_info::__do_dyncast(int, __cxxabiv1::__class_type_info::__sub_kind, __cxxabiv1::__class_type_info const*, void const*, __cxxabiv1::__class_type_info const*, void const*, __cxxabiv1::__class_type_info::__dyncast_result&) const+0x1b4>
    1b1c:	9b1c      	ldr	r3, [sp, #112]	; 0x70
    1b1e:	4641      	mov	r1, r8
    1b20:	9300      	str	r3, [sp, #0]
    1b22:	9807      	ldr	r0, [sp, #28]
    1b24:	9b1b      	ldr	r3, [sp, #108]	; 0x6c
    1b26:	f7ff feb4 	bl	1892 <__cxxabiv1::__class_type_info::__find_public_src(int, void const*, __cxxabiv1::__class_type_info const*, void const*) const>
    1b2a:	4606      	mov	r6, r0
    1b2c:	e79f      	b.n	1a6e <__cxxabiv1::__vmi_class_type_info::__do_dyncast(int, __cxxabiv1::__class_type_info::__sub_kind, __cxxabiv1::__class_type_info const*, void const*, __cxxabiv1::__class_type_info const*, void const*, __cxxabiv1::__class_type_info::__dyncast_result&) const+0x1b2>
    1b2e:	9b1c      	ldr	r3, [sp, #112]	; 0x70
    1b30:	9a0d      	ldr	r2, [sp, #52]	; 0x34
    1b32:	9300      	str	r3, [sp, #0]
    1b34:	4641      	mov	r1, r8
    1b36:	9b1b      	ldr	r3, [sp, #108]	; 0x6c
    1b38:	9807      	ldr	r0, [sp, #28]
    1b3a:	f7ff feaa 	bl	1892 <__cxxabiv1::__class_type_info::__find_public_src(int, void const*, __cxxabiv1::__class_type_info const*, void const*) const>
    1b3e:	4605      	mov	r5, r0
    1b40:	e796      	b.n	1a70 <__cxxabiv1::__vmi_class_type_info::__do_dyncast(int, __cxxabiv1::__class_type_info::__sub_kind, __cxxabiv1::__class_type_info const*, void const*, __cxxabiv1::__class_type_info const*, void const*, __cxxabiv1::__class_type_info::__dyncast_result&) const+0x1b4>
    1b42:	4638      	mov	r0, r7
    1b44:	b011      	add	sp, #68	; 0x44
    1b46:	e8bd 8ff0 	ldmia.w	sp!, {r4, r5, r6, r7, r8, r9, r10, r11, pc}

00001b4a <__cxxabiv1::__vmi_class_type_info::__do_upcast(__cxxabiv1::__class_type_info const*, void const*, __cxxabiv1::__class_type_info::__upcast_result&) const>:
    1b4a:	e92d 4ff0 	stmdb	sp!, {r4, r5, r6, r7, r8, r9, r10, r11, lr}
    1b4e:	b089      	sub	sp, #36	; 0x24
    1b50:	4680      	mov	r8, r0
    1b52:	9102      	str	r1, [sp, #8]
    1b54:	4692      	mov	r10, r2
    1b56:	461c      	mov	r4, r3
    1b58:	f000 f8ed 	bl	1d36 <__cxxabiv1::__class_type_info::__do_upcast(__cxxabiv1::__class_type_info const*, void const*, __cxxabiv1::__class_type_info::__upcast_result&) const>
    1b5c:	4605      	mov	r5, r0
    1b5e:	2800      	cmp	r0, #0
    1b60:	f040 8085 	bne.w	1c6e <__cxxabiv1::__vmi_class_type_info::__do_upcast(__cxxabiv1::__class_type_info const*, void const*, __cxxabiv1::__class_type_info::__upcast_result&) const+0x124>
    1b64:	f8d4 9008 	ldr.w	r9, [r4, #8]
    1b68:	f8d8 600c 	ldr.w	r6, [r8, #12]
    1b6c:	f019 0f10 	tst.w	r9, #16
    1b70:	bf18      	it	ne
    1b72:	f8d8 9008 	ldrne.w	r9, [r8, #8]
    1b76:	eb08 07c6 	add.w	r7, r8, r6, lsl #3
    1b7a:	f009 0301 	and.w	r3, r9, #1
    1b7e:	f04f 0b00 	mov.w	r11, #0
    1b82:	9303      	str	r3, [sp, #12]
    1b84:	2e00      	cmp	r6, #0
    1b86:	d05f      	beq.n	1c48 <__cxxabiv1::__vmi_class_type_info::__do_upcast(__cxxabiv1::__class_type_info const*, void const*, __cxxabiv1::__class_type_info::__upcast_result&) const+0xfe>
    1b88:	68fa      	ldr	r2, [r7, #12]
    1b8a:	f8cd b010 	str.w	r11, [sp, #16]
    1b8e:	f002 0301 	and.w	r3, r2, #1
    1b92:	9300      	str	r3, [sp, #0]
    1b94:	f012 0302 	ands.w	r3, r2, #2
    1b98:	f88d b014 	strb.w	r11, [sp, #20]
    1b9c:	f8cd 9018 	str.w	r9, [sp, #24]
    1ba0:	f8cd b01c 	str.w	r11, [sp, #28]
    1ba4:	9301      	str	r3, [sp, #4]
    1ba6:	d104      	bne.n	1bb2 <__cxxabiv1::__vmi_class_type_info::__do_upcast(__cxxabiv1::__class_type_info const*, void const*, __cxxabiv1::__class_type_info::__upcast_result&) const+0x68>
    1ba8:	9b03      	ldr	r3, [sp, #12]
    1baa:	b913      	cbnz	r3, 1bb2 <__cxxabiv1::__vmi_class_type_info::__do_upcast(__cxxabiv1::__class_type_info const*, void const*, __cxxabiv1::__class_type_info::__upcast_result&) const+0x68>
    1bac:	3e01      	subs	r6, #1
    1bae:	3f08      	subs	r7, #8
    1bb0:	e7e8      	b.n	1b84 <__cxxabiv1::__vmi_class_type_info::__do_upcast(__cxxabiv1::__class_type_info const*, void const*, __cxxabiv1::__class_type_info::__upcast_result&) const+0x3a>
    1bb2:	f1ba 0f00 	cmp.w	r10, #0
    1bb6:	d007      	beq.n	1bc8 <__cxxabiv1::__vmi_class_type_info::__do_upcast(__cxxabiv1::__class_type_info const*, void const*, __cxxabiv1::__class_type_info::__upcast_result&) const+0x7e>
    1bb8:	9b00      	ldr	r3, [sp, #0]
    1bba:	1212      	asrs	r2, r2, #8
    1bbc:	b113      	cbz	r3, 1bc4 <__cxxabiv1::__vmi_class_type_info::__do_upcast(__cxxabiv1::__class_type_info const*, void const*, __cxxabiv1::__class_type_info::__upcast_result&) const+0x7a>
    1bbe:	f8da 3000 	ldr.w	r3, [r10]
    1bc2:	589a      	ldr	r2, [r3, r2]
    1bc4:	4452      	add	r2, r10
    1bc6:	e000      	b.n	1bca <__cxxabiv1::__vmi_class_type_info::__do_upcast(__cxxabiv1::__class_type_info const*, void const*, __cxxabiv1::__class_type_info::__upcast_result&) const+0x80>
    1bc8:	4652      	mov	r2, r10
    1bca:	68b8      	ldr	r0, [r7, #8]
    1bcc:	9902      	ldr	r1, [sp, #8]
    1bce:	6803      	ldr	r3, [r0, #0]
    1bd0:	699d      	ldr	r5, [r3, #24]
    1bd2:	ab04      	add	r3, sp, #16
    1bd4:	47a8      	blx	r5
    1bd6:	4605      	mov	r5, r0
    1bd8:	2800      	cmp	r0, #0
    1bda:	d0e7      	beq.n	1bac <__cxxabiv1::__vmi_class_type_info::__do_upcast(__cxxabiv1::__class_type_info const*, void const*, __cxxabiv1::__class_type_info::__upcast_result&) const+0x62>
    1bdc:	9b07      	ldr	r3, [sp, #28]
    1bde:	2b08      	cmp	r3, #8
    1be0:	d103      	bne.n	1bea <__cxxabiv1::__vmi_class_type_info::__do_upcast(__cxxabiv1::__class_type_info const*, void const*, __cxxabiv1::__class_type_info::__upcast_result&) const+0xa0>
    1be2:	9b00      	ldr	r3, [sp, #0]
    1be4:	b10b      	cbz	r3, 1bea <__cxxabiv1::__vmi_class_type_info::__do_upcast(__cxxabiv1::__class_type_info const*, void const*, __cxxabiv1::__class_type_info::__upcast_result&) const+0xa0>
    1be6:	68bb      	ldr	r3, [r7, #8]
    1be8:	9307      	str	r3, [sp, #28]
    1bea:	f89d 3014 	ldrb.w	r3, [sp, #20]
    1bee:	2b03      	cmp	r3, #3
    1bf0:	d901      	bls.n	1bf6 <__cxxabiv1::__vmi_class_type_info::__do_upcast(__cxxabiv1::__class_type_info const*, void const*, __cxxabiv1::__class_type_info::__upcast_result&) const+0xac>
    1bf2:	9a01      	ldr	r2, [sp, #4]
    1bf4:	b36a      	cbz	r2, 1c52 <__cxxabiv1::__vmi_class_type_info::__do_upcast(__cxxabiv1::__class_type_info const*, void const*, __cxxabiv1::__class_type_info::__upcast_result&) const+0x108>
    1bf6:	68e1      	ldr	r1, [r4, #12]
    1bf8:	b9a9      	cbnz	r1, 1c26 <__cxxabiv1::__vmi_class_type_info::__do_upcast(__cxxabiv1::__class_type_info const*, void const*, __cxxabiv1::__class_type_info::__upcast_result&) const+0xdc>
    1bfa:	ab04      	add	r3, sp, #16
    1bfc:	cb0f      	ldmia	r3, {r0, r1, r2, r3}
    1bfe:	e884 000f 	stmia.w	r4, {r0, r1, r2, r3}
    1c02:	7923      	ldrb	r3, [r4, #4]
    1c04:	2b03      	cmp	r3, #3
    1c06:	d932      	bls.n	1c6e <__cxxabiv1::__vmi_class_type_info::__do_upcast(__cxxabiv1::__class_type_info const*, void const*, __cxxabiv1::__class_type_info::__upcast_result&) const+0x124>
    1c08:	079a      	lsls	r2, r3, #30
    1c0a:	d504      	bpl.n	1c16 <__cxxabiv1::__vmi_class_type_info::__do_upcast(__cxxabiv1::__class_type_info const*, void const*, __cxxabiv1::__class_type_info::__upcast_result&) const+0xcc>
    1c0c:	f8d8 3008 	ldr.w	r3, [r8, #8]
    1c10:	f013 0f01 	tst.w	r3, #1
    1c14:	e005      	b.n	1c22 <__cxxabiv1::__vmi_class_type_info::__do_upcast(__cxxabiv1::__class_type_info const*, void const*, __cxxabiv1::__class_type_info::__upcast_result&) const+0xd8>
    1c16:	07db      	lsls	r3, r3, #31
    1c18:	d529      	bpl.n	1c6e <__cxxabiv1::__vmi_class_type_info::__do_upcast(__cxxabiv1::__class_type_info const*, void const*, __cxxabiv1::__class_type_info::__upcast_result&) const+0x124>
    1c1a:	f8d8 3008 	ldr.w	r3, [r8, #8]
    1c1e:	f013 0f02 	tst.w	r3, #2
    1c22:	d1c3      	bne.n	1bac <__cxxabiv1::__vmi_class_type_info::__do_upcast(__cxxabiv1::__class_type_info const*, void const*, __cxxabiv1::__class_type_info::__upcast_result&) const+0x62>
    1c24:	e023      	b.n	1c6e <__cxxabiv1::__vmi_class_type_info::__do_upcast(__cxxabiv1::__class_type_info const*, void const*, __cxxabiv1::__class_type_info::__upcast_result&) const+0x124>
    1c26:	6823      	ldr	r3, [r4, #0]
    1c28:	9a04      	ldr	r2, [sp, #16]
    1c2a:	4293      	cmp	r3, r2
    1c2c:	d002      	beq.n	1c34 <__cxxabiv1::__vmi_class_type_info::__do_upcast(__cxxabiv1::__class_type_info const*, void const*, __cxxabiv1::__class_type_info::__upcast_result&) const+0xea>
    1c2e:	2300      	movs	r3, #0
    1c30:	6023      	str	r3, [r4, #0]
    1c32:	e013      	b.n	1c5c <__cxxabiv1::__vmi_class_type_info::__do_upcast(__cxxabiv1::__class_type_info const*, void const*, __cxxabiv1::__class_type_info::__upcast_result&) const+0x112>
    1c34:	b9ab      	cbnz	r3, 1c62 <__cxxabiv1::__vmi_class_type_info::__do_upcast(__cxxabiv1::__class_type_info const*, void const*, __cxxabiv1::__class_type_info::__upcast_result&) const+0x118>
    1c36:	9807      	ldr	r0, [sp, #28]
    1c38:	2808      	cmp	r0, #8
    1c3a:	d00f      	beq.n	1c5c <__cxxabiv1::__vmi_class_type_info::__do_upcast(__cxxabiv1::__class_type_info const*, void const*, __cxxabiv1::__class_type_info::__upcast_result&) const+0x112>
    1c3c:	2908      	cmp	r1, #8
    1c3e:	d00d      	beq.n	1c5c <__cxxabiv1::__vmi_class_type_info::__do_upcast(__cxxabiv1::__class_type_info const*, void const*, __cxxabiv1::__class_type_info::__upcast_result&) const+0x112>
    1c40:	f000 f82f 	bl	1ca2 <std::type_info::operator==(std::type_info const&) const>
    1c44:	b968      	cbnz	r0, 1c62 <__cxxabiv1::__vmi_class_type_info::__do_upcast(__cxxabiv1::__class_type_info const*, void const*, __cxxabiv1::__class_type_info::__upcast_result&) const+0x118>
    1c46:	e009      	b.n	1c5c <__cxxabiv1::__vmi_class_type_info::__do_upcast(__cxxabiv1::__class_type_info const*, void const*, __cxxabiv1::__class_type_info::__upcast_result&) const+0x112>
    1c48:	7925      	ldrb	r5, [r4, #4]
    1c4a:	3500      	adds	r5, #0
    1c4c:	bf18      	it	ne
    1c4e:	2501      	movne	r5, #1
    1c50:	e00d      	b.n	1c6e <__cxxabiv1::__vmi_class_type_info::__do_upcast(__cxxabiv1::__class_type_info const*, void const*, __cxxabiv1::__class_type_info::__upcast_result&) const+0x124>
    1c52:	f023 0302 	bic.w	r3, r3, #2
    1c56:	f88d 3014 	strb.w	r3, [sp, #20]
    1c5a:	e7cc      	b.n	1bf6 <__cxxabiv1::__vmi_class_type_info::__do_upcast(__cxxabiv1::__class_type_info const*, void const*, __cxxabiv1::__class_type_info::__upcast_result&) const+0xac>
    1c5c:	2302      	movs	r3, #2
    1c5e:	7123      	strb	r3, [r4, #4]
    1c60:	e005      	b.n	1c6e <__cxxabiv1::__vmi_class_type_info::__do_upcast(__cxxabiv1::__class_type_info const*, void const*, __cxxabiv1::__class_type_info::__upcast_result&) const+0x124>
    1c62:	7922      	ldrb	r2, [r4, #4]
    1c64:	f89d 3014 	ldrb.w	r3, [sp, #20]
    1c68:	4313      	orrs	r3, r2
    1c6a:	7123      	strb	r3, [r4, #4]
    1c6c:	e79e      	b.n	1bac <__cxxabiv1::__vmi_class_type_info::__do_upcast(__cxxabiv1::__class_type_info const*, void const*, __cxxabiv1::__class_type_info::__upcast_result&) const+0x62>
    1c6e:	4628      	mov	r0, r5
    1c70:	b009      	add	sp, #36	; 0x24
    1c72:	e8bd 8ff0 	ldmia.w	sp!, {r4, r5, r6, r7, r8, r9, r10, r11, pc}

00001c76 <operator new(unsigned int)>:
    1c76:	b510      	push	{r4, lr}
    1c78:	2800      	cmp	r0, #0
    1c7a:	bf14      	ite	ne
    1c7c:	4604      	movne	r4, r0
    1c7e:	2401      	moveq	r4, #1
    1c80:	4620      	mov	r0, r4
    1c82:	f000 fc01 	bl	2488 <malloc>
    1c86:	b930      	cbnz	r0, 1c96 <operator new(unsigned int)+0x20>
    1c88:	f000 f892 	bl	1db0 <std::get_new_handler()>
    1c8c:	b908      	cbnz	r0, 1c92 <operator new(unsigned int)+0x1c>
    1c8e:	f000 f89b 	bl	1dc8 <abort>
    1c92:	4780      	blx	r0
    1c94:	e7f4      	b.n	1c80 <operator new(unsigned int)+0xa>
    1c96:	bd10      	pop	{r4, pc}

00001c98 <operator new[](unsigned int)>:
    1c98:	f7ff bfed 	b.w	1c76 <operator new(unsigned int)>

00001c9c <std::type_info::~type_info()>:
    1c9c:	4770      	bx	lr

00001c9e <std::type_info::__is_pointer_p() const>:
    1c9e:	2000      	movs	r0, #0
    1ca0:	4770      	bx	lr

00001ca2 <std::type_info::operator==(std::type_info const&) const>:
    1ca2:	4281      	cmp	r1, r0
    1ca4:	b508      	push	{r3, lr}
    1ca6:	d00e      	beq.n	1cc6 <std::type_info::operator==(std::type_info const&) const+0x24>
    1ca8:	6840      	ldr	r0, [r0, #4]
    1caa:	7803      	ldrb	r3, [r0, #0]
    1cac:	2b2a      	cmp	r3, #42	; 0x2a
    1cae:	d00c      	beq.n	1cca <std::type_info::operator==(std::type_info const&) const+0x28>
    1cb0:	6849      	ldr	r1, [r1, #4]
    1cb2:	780b      	ldrb	r3, [r1, #0]
    1cb4:	2b2a      	cmp	r3, #42	; 0x2a
    1cb6:	bf08      	it	eq
    1cb8:	3101      	addeq	r1, #1
    1cba:	f001 ffa8 	bl	3c0e <strcmp>
    1cbe:	fab0 f080 	clz	r0, r0
    1cc2:	0940      	lsrs	r0, r0, #5
    1cc4:	bd08      	pop	{r3, pc}
    1cc6:	2001      	movs	r0, #1
    1cc8:	bd08      	pop	{r3, pc}
    1cca:	2000      	movs	r0, #0
    1ccc:	bd08      	pop	{r3, pc}

00001cce <__cxxabiv1::__class_type_info::__do_upcast(__cxxabiv1::__class_type_info const*, void**) const>:
    1cce:	b57f      	push	{r0, r1, r2, r3, r4, r5, r6, lr}
    1cd0:	2310      	movs	r3, #16
    1cd2:	9302      	str	r3, [sp, #8]
    1cd4:	6803      	ldr	r3, [r0, #0]
    1cd6:	2400      	movs	r4, #0
    1cd8:	4615      	mov	r5, r2
    1cda:	699e      	ldr	r6, [r3, #24]
    1cdc:	9400      	str	r4, [sp, #0]
    1cde:	466b      	mov	r3, sp
    1ce0:	f88d 4004 	strb.w	r4, [sp, #4]
    1ce4:	9403      	str	r4, [sp, #12]
    1ce6:	6812      	ldr	r2, [r2, #0]
    1ce8:	47b0      	blx	r6
    1cea:	f89d 3004 	ldrb.w	r3, [sp, #4]
    1cee:	f003 0306 	and.w	r3, r3, #6
    1cf2:	2b06      	cmp	r3, #6
    1cf4:	bf11      	iteee	ne
    1cf6:	4620      	movne	r0, r4
    1cf8:	9b00      	ldreq	r3, [sp, #0]
    1cfa:	2001      	moveq	r0, #1
    1cfc:	602b      	streq	r3, [r5, #0]
    1cfe:	b004      	add	sp, #16
    1d00:	bd70      	pop	{r4, r5, r6, pc}

00001d02 <__cxxabiv1::__class_type_info::__do_find_public_src(int, void const*, __cxxabiv1::__class_type_info const*, void const*) const>:
    1d02:	9800      	ldr	r0, [sp, #0]
    1d04:	4290      	cmp	r0, r2
    1d06:	bf0c      	ite	eq
    1d08:	2006      	moveq	r0, #6
    1d0a:	2001      	movne	r0, #1
    1d0c:	4770      	bx	lr
	...

00001d10 <__cxxabiv1::__class_type_info::~__class_type_info()>:
    1d10:	b510      	push	{r4, lr}
    1d12:	4604      	mov	r4, r0
    1d14:	4b02      	ldr	r3, [pc, #8]	; (1d20 <__cxxabiv1::__class_type_info::~__class_type_info()+0x10>)
    1d16:	6003      	str	r3, [r0, #0]
    1d18:	f7ff ffc0 	bl	1c9c <std::type_info::~type_info()>
    1d1c:	4620      	mov	r0, r4
    1d1e:	bd10      	pop	{r4, pc}
    1d20:	00008498 	.word	0x00008498

00001d24 <__cxxabiv1::__class_type_info::~__class_type_info()>:
    1d24:	b510      	push	{r4, lr}
    1d26:	4604      	mov	r4, r0
    1d28:	f7ff fff2 	bl	1d10 <__cxxabiv1::__class_type_info::~__class_type_info()>
    1d2c:	4620      	mov	r0, r4
    1d2e:	f7ff fcde 	bl	16ee <operator delete(void*)>
    1d32:	4620      	mov	r0, r4
    1d34:	bd10      	pop	{r4, pc}

00001d36 <__cxxabiv1::__class_type_info::__do_upcast(__cxxabiv1::__class_type_info const*, void const*, __cxxabiv1::__class_type_info::__upcast_result&) const>:
    1d36:	b538      	push	{r3, r4, r5, lr}
    1d38:	4615      	mov	r5, r2
    1d3a:	461c      	mov	r4, r3
    1d3c:	f7ff ffb1 	bl	1ca2 <std::type_info::operator==(std::type_info const&) const>
    1d40:	b120      	cbz	r0, 1d4c <__cxxabiv1::__class_type_info::__do_upcast(__cxxabiv1::__class_type_info const*, void const*, __cxxabiv1::__class_type_info::__upcast_result&) const+0x16>
    1d42:	2308      	movs	r3, #8
    1d44:	60e3      	str	r3, [r4, #12]
    1d46:	2306      	movs	r3, #6
    1d48:	6025      	str	r5, [r4, #0]
    1d4a:	7123      	strb	r3, [r4, #4]
    1d4c:	bd38      	pop	{r3, r4, r5, pc}

00001d4e <__cxxabiv1::__class_type_info::__do_dyncast(int, __cxxabiv1::__class_type_info::__sub_kind, __cxxabiv1::__class_type_info const*, void const*, __cxxabiv1::__class_type_info const*, void const*, __cxxabiv1::__class_type_info::__dyncast_result&) const>:
    1d4e:	e92d 41f0 	stmdb	sp!, {r4, r5, r6, r7, r8, lr}
    1d52:	9e06      	ldr	r6, [sp, #24]
    1d54:	4698      	mov	r8, r3
    1d56:	9b08      	ldr	r3, [sp, #32]
    1d58:	4607      	mov	r7, r0
    1d5a:	429e      	cmp	r6, r3
    1d5c:	4615      	mov	r5, r2
    1d5e:	9c09      	ldr	r4, [sp, #36]	; 0x24
    1d60:	d103      	bne.n	1d6a <__cxxabiv1::__class_type_info::__do_dyncast(int, __cxxabiv1::__class_type_info::__sub_kind, __cxxabiv1::__class_type_info const*, void const*, __cxxabiv1::__class_type_info const*, void const*, __cxxabiv1::__class_type_info::__dyncast_result&) const+0x1c>
    1d62:	9907      	ldr	r1, [sp, #28]
    1d64:	f7ff ff9d 	bl	1ca2 <std::type_info::operator==(std::type_info const&) const>
    1d68:	b948      	cbnz	r0, 1d7e <__cxxabiv1::__class_type_info::__do_dyncast(int, __cxxabiv1::__class_type_info::__sub_kind, __cxxabiv1::__class_type_info const*, void const*, __cxxabiv1::__class_type_info const*, void const*, __cxxabiv1::__class_type_info::__dyncast_result&) const+0x30>
    1d6a:	4641      	mov	r1, r8
    1d6c:	4638      	mov	r0, r7
    1d6e:	f7ff ff98 	bl	1ca2 <std::type_info::operator==(std::type_info const&) const>
    1d72:	b128      	cbz	r0, 1d80 <__cxxabiv1::__class_type_info::__do_dyncast(int, __cxxabiv1::__class_type_info::__sub_kind, __cxxabiv1::__class_type_info const*, void const*, __cxxabiv1::__class_type_info const*, void const*, __cxxabiv1::__class_type_info::__dyncast_result&) const+0x32>
    1d74:	2301      	movs	r3, #1
    1d76:	6026      	str	r6, [r4, #0]
    1d78:	7125      	strb	r5, [r4, #4]
    1d7a:	71a3      	strb	r3, [r4, #6]
    1d7c:	e000      	b.n	1d80 <__cxxabiv1::__class_type_info::__do_dyncast(int, __cxxabiv1::__class_type_info::__sub_kind, __cxxabiv1::__class_type_info const*, void const*, __cxxabiv1::__class_type_info const*, void const*, __cxxabiv1::__class_type_info::__dyncast_result&) const+0x32>
    1d7e:	7165      	strb	r5, [r4, #5]
    1d80:	2000      	movs	r0, #0
    1d82:	e8bd 81f0 	ldmia.w	sp!, {r4, r5, r6, r7, r8, pc}

00001d86 <__cxxabiv1::__class_type_info::__do_catch(std::type_info const*, void**, unsigned int) const>:
    1d86:	e92d 41f0 	stmdb	sp!, {r4, r5, r6, r7, r8, lr}
    1d8a:	4605      	mov	r5, r0
    1d8c:	460c      	mov	r4, r1
    1d8e:	4616      	mov	r6, r2
    1d90:	461f      	mov	r7, r3
    1d92:	f7ff ff86 	bl	1ca2 <std::type_info::operator==(std::type_info const&) const>
    1d96:	b948      	cbnz	r0, 1dac <__cxxabiv1::__class_type_info::__do_catch(std::type_info const*, void**, unsigned int) const+0x26>
    1d98:	2f03      	cmp	r7, #3
    1d9a:	d807      	bhi.n	1dac <__cxxabiv1::__class_type_info::__do_catch(std::type_info const*, void**, unsigned int) const+0x26>
    1d9c:	6823      	ldr	r3, [r4, #0]
    1d9e:	4632      	mov	r2, r6
    1da0:	4629      	mov	r1, r5
    1da2:	4620      	mov	r0, r4
    1da4:	e8bd 41f0 	ldmia.w	sp!, {r4, r5, r6, r7, r8, lr}
    1da8:	695b      	ldr	r3, [r3, #20]
    1daa:	4718      	bx	r3
    1dac:	e8bd 81f0 	ldmia.w	sp!, {r4, r5, r6, r7, r8, pc}

00001db0 <std::get_new_handler()>:
    1db0:	4b02      	ldr	r3, [pc, #8]	; (1dbc <std::get_new_handler()+0xc>)
    1db2:	6818      	ldr	r0, [r3, #0]
    1db4:	f3bf 8f5f 	dmb	sy
    1db8:	4770      	bx	lr
    1dba:	bf00      	nop
    1dbc:	1000049c 	.word	0x1000049c

00001dc0 <fabs>:
    1dc0:	f021 4100 	bic.w	r1, r1, #2147483648	; 0x80000000
    1dc4:	4770      	bx	lr
    1dc6:	bf00      	nop

00001dc8 <abort>:
    1dc8:	b508      	push	{r3, lr}
    1dca:	2006      	movs	r0, #6
    1dcc:	f001 fe70 	bl	3ab0 <raise>
    1dd0:	2001      	movs	r0, #1
    1dd2:	f006 f8f3 	bl	7fbc <_exit>
	...

00001dd8 <__cxa_atexit>:
    1dd8:	b510      	push	{r4, lr}
    1dda:	4c05      	ldr	r4, [pc, #20]	; (1df0 <__cxa_atexit+0x18>)
    1ddc:	4613      	mov	r3, r2
    1dde:	b12c      	cbz	r4, 1dec <__cxa_atexit+0x14>
    1de0:	460a      	mov	r2, r1
    1de2:	4601      	mov	r1, r0
    1de4:	2002      	movs	r0, #2
    1de6:	f3af 8000 	nop.w
    1dea:	bd10      	pop	{r4, pc}
    1dec:	4620      	mov	r0, r4
    1dee:	bd10      	pop	{r4, pc}
    1df0:	00000000 	.word	0x00000000

00001df4 <__errno>:
    1df4:	4b01      	ldr	r3, [pc, #4]	; (1dfc <__errno+0x8>)
    1df6:	6818      	ldr	r0, [r3, #0]
    1df8:	4770      	bx	lr
    1dfa:	bf00      	nop
    1dfc:	10000138 	.word	0x10000138

00001e00 <_fclose_r>:
    1e00:	b570      	push	{r4, r5, r6, lr}
    1e02:	4605      	mov	r5, r0
    1e04:	460c      	mov	r4, r1
    1e06:	b909      	cbnz	r1, 1e0c <_fclose_r+0xc>
    1e08:	2000      	movs	r0, #0
    1e0a:	bd70      	pop	{r4, r5, r6, pc}
    1e0c:	b118      	cbz	r0, 1e16 <_fclose_r+0x16>
    1e0e:	6983      	ldr	r3, [r0, #24]
    1e10:	b90b      	cbnz	r3, 1e16 <_fclose_r+0x16>
    1e12:	f000 f93f 	bl	2094 <__sinit>
    1e16:	4b20      	ldr	r3, [pc, #128]	; (1e98 <_fclose_r+0x98>)
    1e18:	429c      	cmp	r4, r3
    1e1a:	d101      	bne.n	1e20 <_fclose_r+0x20>
    1e1c:	686c      	ldr	r4, [r5, #4]
    1e1e:	e008      	b.n	1e32 <_fclose_r+0x32>
    1e20:	4b1e      	ldr	r3, [pc, #120]	; (1e9c <_fclose_r+0x9c>)
    1e22:	429c      	cmp	r4, r3
    1e24:	d101      	bne.n	1e2a <_fclose_r+0x2a>
    1e26:	68ac      	ldr	r4, [r5, #8]
    1e28:	e003      	b.n	1e32 <_fclose_r+0x32>
    1e2a:	4b1d      	ldr	r3, [pc, #116]	; (1ea0 <_fclose_r+0xa0>)
    1e2c:	429c      	cmp	r4, r3
    1e2e:	bf08      	it	eq
    1e30:	68ec      	ldreq	r4, [r5, #12]
    1e32:	f9b4 300c 	ldrsh.w	r3, [r4, #12]
    1e36:	2b00      	cmp	r3, #0
    1e38:	d0e6      	beq.n	1e08 <_fclose_r+0x8>
    1e3a:	4621      	mov	r1, r4
    1e3c:	4628      	mov	r0, r5
    1e3e:	f000 f839 	bl	1eb4 <__sflush_r>
    1e42:	6b23      	ldr	r3, [r4, #48]	; 0x30
    1e44:	4606      	mov	r6, r0
    1e46:	b133      	cbz	r3, 1e56 <_fclose_r+0x56>
    1e48:	6a21      	ldr	r1, [r4, #32]
    1e4a:	4628      	mov	r0, r5
    1e4c:	4798      	blx	r3
    1e4e:	2800      	cmp	r0, #0
    1e50:	bfb8      	it	lt
    1e52:	f04f 36ff 	movlt.w	r6, #4294967295
    1e56:	89a3      	ldrh	r3, [r4, #12]
    1e58:	061b      	lsls	r3, r3, #24
    1e5a:	d503      	bpl.n	1e64 <_fclose_r+0x64>
    1e5c:	6921      	ldr	r1, [r4, #16]
    1e5e:	4628      	mov	r0, r5
    1e60:	f000 fb5e 	bl	2520 <_free_r>
    1e64:	6b61      	ldr	r1, [r4, #52]	; 0x34
    1e66:	b141      	cbz	r1, 1e7a <_fclose_r+0x7a>
    1e68:	f104 0344 	add.w	r3, r4, #68	; 0x44
    1e6c:	4299      	cmp	r1, r3
    1e6e:	d002      	beq.n	1e76 <_fclose_r+0x76>
    1e70:	4628      	mov	r0, r5
    1e72:	f000 fb55 	bl	2520 <_free_r>
    1e76:	2300      	movs	r3, #0
    1e78:	6363      	str	r3, [r4, #52]	; 0x34
    1e7a:	6ca1      	ldr	r1, [r4, #72]	; 0x48
    1e7c:	b121      	cbz	r1, 1e88 <_fclose_r+0x88>
    1e7e:	4628      	mov	r0, r5
    1e80:	f000 fb4e 	bl	2520 <_free_r>
    1e84:	2300      	movs	r3, #0
    1e86:	64a3      	str	r3, [r4, #72]	; 0x48
    1e88:	f000 f970 	bl	216c <__sfp_lock_acquire>
    1e8c:	2300      	movs	r3, #0
    1e8e:	81a3      	strh	r3, [r4, #12]
    1e90:	f000 f96d 	bl	216e <__sfp_lock_release>
    1e94:	4630      	mov	r0, r6
    1e96:	bd70      	pop	{r4, r5, r6, pc}
    1e98:	000084ec 	.word	0x000084ec
    1e9c:	0000850c 	.word	0x0000850c
    1ea0:	0000852c 	.word	0x0000852c

00001ea4 <fclose>:
    1ea4:	4b02      	ldr	r3, [pc, #8]	; (1eb0 <fclose+0xc>)
    1ea6:	4601      	mov	r1, r0
    1ea8:	6818      	ldr	r0, [r3, #0]
    1eaa:	f7ff bfa9 	b.w	1e00 <_fclose_r>
    1eae:	bf00      	nop
    1eb0:	10000138 	.word	0x10000138

00001eb4 <__sflush_r>:
    1eb4:	898a      	ldrh	r2, [r1, #12]
    1eb6:	e92d 41f0 	stmdb	sp!, {r4, r5, r6, r7, r8, lr}
    1eba:	4605      	mov	r5, r0
    1ebc:	0710      	lsls	r0, r2, #28
    1ebe:	460c      	mov	r4, r1
    1ec0:	d459      	bmi.n	1f76 <__sflush_r+0xc2>
    1ec2:	684b      	ldr	r3, [r1, #4]
    1ec4:	2b00      	cmp	r3, #0
    1ec6:	dc02      	bgt.n	1ece <__sflush_r+0x1a>
    1ec8:	6c0b      	ldr	r3, [r1, #64]	; 0x40
    1eca:	2b00      	cmp	r3, #0
    1ecc:	dd17      	ble.n	1efe <__sflush_r+0x4a>
    1ece:	6ae6      	ldr	r6, [r4, #44]	; 0x2c
    1ed0:	b1ae      	cbz	r6, 1efe <__sflush_r+0x4a>
    1ed2:	f402 5280 	and.w	r2, r2, #4096	; 0x1000
    1ed6:	2300      	movs	r3, #0
    1ed8:	b292      	uxth	r2, r2
    1eda:	682f      	ldr	r7, [r5, #0]
    1edc:	602b      	str	r3, [r5, #0]
    1ede:	b10a      	cbz	r2, 1ee4 <__sflush_r+0x30>
    1ee0:	6d60      	ldr	r0, [r4, #84]	; 0x54
    1ee2:	e015      	b.n	1f10 <__sflush_r+0x5c>
    1ee4:	6a21      	ldr	r1, [r4, #32]
    1ee6:	2301      	movs	r3, #1
    1ee8:	4628      	mov	r0, r5
    1eea:	47b0      	blx	r6
    1eec:	1c41      	adds	r1, r0, #1
    1eee:	d10f      	bne.n	1f10 <__sflush_r+0x5c>
    1ef0:	682b      	ldr	r3, [r5, #0]
    1ef2:	b16b      	cbz	r3, 1f10 <__sflush_r+0x5c>
    1ef4:	2b1d      	cmp	r3, #29
    1ef6:	d001      	beq.n	1efc <__sflush_r+0x48>
    1ef8:	2b16      	cmp	r3, #22
    1efa:	d103      	bne.n	1f04 <__sflush_r+0x50>
    1efc:	602f      	str	r7, [r5, #0]
    1efe:	2000      	movs	r0, #0
    1f00:	e8bd 81f0 	ldmia.w	sp!, {r4, r5, r6, r7, r8, pc}
    1f04:	89a3      	ldrh	r3, [r4, #12]
    1f06:	f043 0340 	orr.w	r3, r3, #64	; 0x40
    1f0a:	81a3      	strh	r3, [r4, #12]
    1f0c:	e8bd 81f0 	ldmia.w	sp!, {r4, r5, r6, r7, r8, pc}
    1f10:	89a3      	ldrh	r3, [r4, #12]
    1f12:	075a      	lsls	r2, r3, #29
    1f14:	d505      	bpl.n	1f22 <__sflush_r+0x6e>
    1f16:	6863      	ldr	r3, [r4, #4]
    1f18:	1ac0      	subs	r0, r0, r3
    1f1a:	6b63      	ldr	r3, [r4, #52]	; 0x34
    1f1c:	b10b      	cbz	r3, 1f22 <__sflush_r+0x6e>
    1f1e:	6c23      	ldr	r3, [r4, #64]	; 0x40
    1f20:	1ac0      	subs	r0, r0, r3
    1f22:	2300      	movs	r3, #0
    1f24:	4602      	mov	r2, r0
    1f26:	6ae6      	ldr	r6, [r4, #44]	; 0x2c
    1f28:	6a21      	ldr	r1, [r4, #32]
    1f2a:	4628      	mov	r0, r5
    1f2c:	47b0      	blx	r6
    1f2e:	1c43      	adds	r3, r0, #1
    1f30:	89a3      	ldrh	r3, [r4, #12]
    1f32:	d106      	bne.n	1f42 <__sflush_r+0x8e>
    1f34:	6829      	ldr	r1, [r5, #0]
    1f36:	291d      	cmp	r1, #29
    1f38:	d839      	bhi.n	1fae <__sflush_r+0xfa>
    1f3a:	4a20      	ldr	r2, [pc, #128]	; (1fbc <__sflush_r+0x108>)
    1f3c:	40ca      	lsrs	r2, r1
    1f3e:	07d6      	lsls	r6, r2, #31
    1f40:	d535      	bpl.n	1fae <__sflush_r+0xfa>
    1f42:	2200      	movs	r2, #0
    1f44:	6062      	str	r2, [r4, #4]
    1f46:	6922      	ldr	r2, [r4, #16]
    1f48:	04d9      	lsls	r1, r3, #19
    1f4a:	6022      	str	r2, [r4, #0]
    1f4c:	d504      	bpl.n	1f58 <__sflush_r+0xa4>
    1f4e:	1c42      	adds	r2, r0, #1
    1f50:	d101      	bne.n	1f56 <__sflush_r+0xa2>
    1f52:	682b      	ldr	r3, [r5, #0]
    1f54:	b903      	cbnz	r3, 1f58 <__sflush_r+0xa4>
    1f56:	6560      	str	r0, [r4, #84]	; 0x54
    1f58:	6b61      	ldr	r1, [r4, #52]	; 0x34
    1f5a:	602f      	str	r7, [r5, #0]
    1f5c:	2900      	cmp	r1, #0
    1f5e:	d0ce      	beq.n	1efe <__sflush_r+0x4a>
    1f60:	f104 0344 	add.w	r3, r4, #68	; 0x44
    1f64:	4299      	cmp	r1, r3
    1f66:	d002      	beq.n	1f6e <__sflush_r+0xba>
    1f68:	4628      	mov	r0, r5
    1f6a:	f000 fad9 	bl	2520 <_free_r>
    1f6e:	2000      	movs	r0, #0
    1f70:	6360      	str	r0, [r4, #52]	; 0x34
    1f72:	e8bd 81f0 	ldmia.w	sp!, {r4, r5, r6, r7, r8, pc}
    1f76:	690f      	ldr	r7, [r1, #16]
    1f78:	2f00      	cmp	r7, #0
    1f7a:	d0c0      	beq.n	1efe <__sflush_r+0x4a>
    1f7c:	0793      	lsls	r3, r2, #30
    1f7e:	680e      	ldr	r6, [r1, #0]
    1f80:	bf0c      	ite	eq
    1f82:	694b      	ldreq	r3, [r1, #20]
    1f84:	2300      	movne	r3, #0
    1f86:	ebc7 0806 	rsb	r8, r7, r6
    1f8a:	600f      	str	r7, [r1, #0]
    1f8c:	608b      	str	r3, [r1, #8]
    1f8e:	e002      	b.n	1f96 <__sflush_r+0xe2>
    1f90:	4407      	add	r7, r0
    1f92:	ebc0 0808 	rsb	r8, r0, r8
    1f96:	f1b8 0f00 	cmp.w	r8, #0
    1f9a:	ddb0      	ble.n	1efe <__sflush_r+0x4a>
    1f9c:	4643      	mov	r3, r8
    1f9e:	463a      	mov	r2, r7
    1fa0:	6a21      	ldr	r1, [r4, #32]
    1fa2:	4628      	mov	r0, r5
    1fa4:	6aa6      	ldr	r6, [r4, #40]	; 0x28
    1fa6:	47b0      	blx	r6
    1fa8:	2800      	cmp	r0, #0
    1faa:	dcf1      	bgt.n	1f90 <__sflush_r+0xdc>
    1fac:	89a3      	ldrh	r3, [r4, #12]
    1fae:	f043 0340 	orr.w	r3, r3, #64	; 0x40
    1fb2:	81a3      	strh	r3, [r4, #12]
    1fb4:	f04f 30ff 	mov.w	r0, #4294967295
    1fb8:	e8bd 81f0 	ldmia.w	sp!, {r4, r5, r6, r7, r8, pc}
    1fbc:	20400001 	.word	0x20400001

00001fc0 <_fflush_r>:
    1fc0:	b538      	push	{r3, r4, r5, lr}
    1fc2:	690b      	ldr	r3, [r1, #16]
    1fc4:	4605      	mov	r5, r0
    1fc6:	460c      	mov	r4, r1
    1fc8:	b1db      	cbz	r3, 2002 <_fflush_r+0x42>
    1fca:	b118      	cbz	r0, 1fd4 <_fflush_r+0x14>
    1fcc:	6983      	ldr	r3, [r0, #24]
    1fce:	b90b      	cbnz	r3, 1fd4 <_fflush_r+0x14>
    1fd0:	f000 f860 	bl	2094 <__sinit>
    1fd4:	4b0c      	ldr	r3, [pc, #48]	; (2008 <_fflush_r+0x48>)
    1fd6:	429c      	cmp	r4, r3
    1fd8:	d101      	bne.n	1fde <_fflush_r+0x1e>
    1fda:	686c      	ldr	r4, [r5, #4]
    1fdc:	e008      	b.n	1ff0 <_fflush_r+0x30>
    1fde:	4b0b      	ldr	r3, [pc, #44]	; (200c <_fflush_r+0x4c>)
    1fe0:	429c      	cmp	r4, r3
    1fe2:	d101      	bne.n	1fe8 <_fflush_r+0x28>
    1fe4:	68ac      	ldr	r4, [r5, #8]
    1fe6:	e003      	b.n	1ff0 <_fflush_r+0x30>
    1fe8:	4b09      	ldr	r3, [pc, #36]	; (2010 <_fflush_r+0x50>)
    1fea:	429c      	cmp	r4, r3
    1fec:	bf08      	it	eq
    1fee:	68ec      	ldreq	r4, [r5, #12]
    1ff0:	f9b4 300c 	ldrsh.w	r3, [r4, #12]
    1ff4:	b12b      	cbz	r3, 2002 <_fflush_r+0x42>
    1ff6:	4621      	mov	r1, r4
    1ff8:	4628      	mov	r0, r5
    1ffa:	e8bd 4038 	ldmia.w	sp!, {r3, r4, r5, lr}
    1ffe:	f7ff bf59 	b.w	1eb4 <__sflush_r>
    2002:	2000      	movs	r0, #0
    2004:	bd38      	pop	{r3, r4, r5, pc}
    2006:	bf00      	nop
    2008:	000084ec 	.word	0x000084ec
    200c:	0000850c 	.word	0x0000850c
    2010:	0000852c 	.word	0x0000852c

00002014 <_cleanup_r>:
    2014:	4901      	ldr	r1, [pc, #4]	; (201c <_cleanup_r+0x8>)
    2016:	f000 b993 	b.w	2340 <_fwalk_reent>
    201a:	bf00      	nop
    201c:	00001fc1 	.word	0x00001fc1

00002020 <std.isra.0>:
    2020:	b510      	push	{r4, lr}
    2022:	4604      	mov	r4, r0
    2024:	2300      	movs	r3, #0
    2026:	6003      	str	r3, [r0, #0]
    2028:	6043      	str	r3, [r0, #4]
    202a:	6083      	str	r3, [r0, #8]
    202c:	8181      	strh	r1, [r0, #12]
    202e:	6643      	str	r3, [r0, #100]	; 0x64
    2030:	81c2      	strh	r2, [r0, #14]
    2032:	6103      	str	r3, [r0, #16]
    2034:	6143      	str	r3, [r0, #20]
    2036:	6183      	str	r3, [r0, #24]
    2038:	4619      	mov	r1, r3
    203a:	2208      	movs	r2, #8
    203c:	305c      	adds	r0, #92	; 0x5c
    203e:	f000 fa67 	bl	2510 <memset>
    2042:	4b05      	ldr	r3, [pc, #20]	; (2058 <std.isra.0+0x38>)
    2044:	6224      	str	r4, [r4, #32]
    2046:	6263      	str	r3, [r4, #36]	; 0x24
    2048:	4b04      	ldr	r3, [pc, #16]	; (205c <std.isra.0+0x3c>)
    204a:	62a3      	str	r3, [r4, #40]	; 0x28
    204c:	4b04      	ldr	r3, [pc, #16]	; (2060 <std.isra.0+0x40>)
    204e:	62e3      	str	r3, [r4, #44]	; 0x2c
    2050:	4b04      	ldr	r3, [pc, #16]	; (2064 <std.isra.0+0x44>)
    2052:	6323      	str	r3, [r4, #48]	; 0x30
    2054:	bd10      	pop	{r4, pc}
    2056:	bf00      	nop
    2058:	00003b85 	.word	0x00003b85
    205c:	00003bab 	.word	0x00003bab
    2060:	00003be3 	.word	0x00003be3
    2064:	00003c07 	.word	0x00003c07

00002068 <__sfmoreglue>:
    2068:	b570      	push	{r4, r5, r6, lr}
    206a:	2368      	movs	r3, #104	; 0x68
    206c:	1e4d      	subs	r5, r1, #1
    206e:	435d      	muls	r5, r3
    2070:	460e      	mov	r6, r1
    2072:	f105 0174 	add.w	r1, r5, #116	; 0x74
    2076:	f000 fa9f 	bl	25b8 <_malloc_r>
    207a:	4604      	mov	r4, r0
    207c:	b140      	cbz	r0, 2090 <__sfmoreglue+0x28>
    207e:	2100      	movs	r1, #0
    2080:	e880 0042 	stmia.w	r0, {r1, r6}
    2084:	300c      	adds	r0, #12
    2086:	60a0      	str	r0, [r4, #8]
    2088:	f105 0268 	add.w	r2, r5, #104	; 0x68
    208c:	f000 fa40 	bl	2510 <memset>
    2090:	4620      	mov	r0, r4
    2092:	bd70      	pop	{r4, r5, r6, pc}

00002094 <__sinit>:
    2094:	6983      	ldr	r3, [r0, #24]
    2096:	b510      	push	{r4, lr}
    2098:	4604      	mov	r4, r0
    209a:	bb33      	cbnz	r3, 20ea <__sinit+0x56>
    209c:	6483      	str	r3, [r0, #72]	; 0x48
    209e:	64c3      	str	r3, [r0, #76]	; 0x4c
    20a0:	6503      	str	r3, [r0, #80]	; 0x50
    20a2:	4b12      	ldr	r3, [pc, #72]	; (20ec <__sinit+0x58>)
    20a4:	4a12      	ldr	r2, [pc, #72]	; (20f0 <__sinit+0x5c>)
    20a6:	681b      	ldr	r3, [r3, #0]
    20a8:	6282      	str	r2, [r0, #40]	; 0x28
    20aa:	4298      	cmp	r0, r3
    20ac:	bf04      	itt	eq
    20ae:	2301      	moveq	r3, #1
    20b0:	6183      	streq	r3, [r0, #24]
    20b2:	f000 f81f 	bl	20f4 <__sfp>
    20b6:	6060      	str	r0, [r4, #4]
    20b8:	4620      	mov	r0, r4
    20ba:	f000 f81b 	bl	20f4 <__sfp>
    20be:	60a0      	str	r0, [r4, #8]
    20c0:	4620      	mov	r0, r4
    20c2:	f000 f817 	bl	20f4 <__sfp>
    20c6:	2200      	movs	r2, #0
    20c8:	60e0      	str	r0, [r4, #12]
    20ca:	2104      	movs	r1, #4
    20cc:	6860      	ldr	r0, [r4, #4]
    20ce:	f7ff ffa7 	bl	2020 <std.isra.0>
    20d2:	2201      	movs	r2, #1
    20d4:	2109      	movs	r1, #9
    20d6:	68a0      	ldr	r0, [r4, #8]
    20d8:	f7ff ffa2 	bl	2020 <std.isra.0>
    20dc:	2202      	movs	r2, #2
    20de:	2112      	movs	r1, #18
    20e0:	68e0      	ldr	r0, [r4, #12]
    20e2:	f7ff ff9d 	bl	2020 <std.isra.0>
    20e6:	2301      	movs	r3, #1
    20e8:	61a3      	str	r3, [r4, #24]
    20ea:	bd10      	pop	{r4, pc}
    20ec:	0000854c 	.word	0x0000854c
    20f0:	00002015 	.word	0x00002015

000020f4 <__sfp>:
    20f4:	b5f8      	push	{r3, r4, r5, r6, r7, lr}
    20f6:	4b1c      	ldr	r3, [pc, #112]	; (2168 <__sfp+0x74>)
    20f8:	4607      	mov	r7, r0
    20fa:	681e      	ldr	r6, [r3, #0]
    20fc:	69b3      	ldr	r3, [r6, #24]
    20fe:	b913      	cbnz	r3, 2106 <__sfp+0x12>
    2100:	4630      	mov	r0, r6
    2102:	f7ff ffc7 	bl	2094 <__sinit>
    2106:	3648      	adds	r6, #72	; 0x48
    2108:	68b4      	ldr	r4, [r6, #8]
    210a:	6873      	ldr	r3, [r6, #4]
    210c:	3b01      	subs	r3, #1
    210e:	d404      	bmi.n	211a <__sfp+0x26>
    2110:	f9b4 500c 	ldrsh.w	r5, [r4, #12]
    2114:	b17d      	cbz	r5, 2136 <__sfp+0x42>
    2116:	3468      	adds	r4, #104	; 0x68
    2118:	e7f8      	b.n	210c <__sfp+0x18>
    211a:	6833      	ldr	r3, [r6, #0]
    211c:	b10b      	cbz	r3, 2122 <__sfp+0x2e>
    211e:	6836      	ldr	r6, [r6, #0]
    2120:	e7f2      	b.n	2108 <__sfp+0x14>
    2122:	2104      	movs	r1, #4
    2124:	4638      	mov	r0, r7
    2126:	f7ff ff9f 	bl	2068 <__sfmoreglue>
    212a:	6030      	str	r0, [r6, #0]
    212c:	2800      	cmp	r0, #0
    212e:	d1f6      	bne.n	211e <__sfp+0x2a>
    2130:	230c      	movs	r3, #12
    2132:	603b      	str	r3, [r7, #0]
    2134:	bdf8      	pop	{r3, r4, r5, r6, r7, pc}
    2136:	f64f 73ff 	movw	r3, #65535	; 0xffff
    213a:	81e3      	strh	r3, [r4, #14]
    213c:	2301      	movs	r3, #1
    213e:	81a3      	strh	r3, [r4, #12]
    2140:	6665      	str	r5, [r4, #100]	; 0x64
    2142:	6025      	str	r5, [r4, #0]
    2144:	60a5      	str	r5, [r4, #8]
    2146:	6065      	str	r5, [r4, #4]
    2148:	6125      	str	r5, [r4, #16]
    214a:	6165      	str	r5, [r4, #20]
    214c:	61a5      	str	r5, [r4, #24]
    214e:	2208      	movs	r2, #8
    2150:	4629      	mov	r1, r5
    2152:	f104 005c 	add.w	r0, r4, #92	; 0x5c
    2156:	f000 f9db 	bl	2510 <memset>
    215a:	6365      	str	r5, [r4, #52]	; 0x34
    215c:	63a5      	str	r5, [r4, #56]	; 0x38
    215e:	64a5      	str	r5, [r4, #72]	; 0x48
    2160:	64e5      	str	r5, [r4, #76]	; 0x4c
    2162:	4620      	mov	r0, r4
    2164:	bdf8      	pop	{r3, r4, r5, r6, r7, pc}
    2166:	bf00      	nop
    2168:	0000854c 	.word	0x0000854c

0000216c <__sfp_lock_acquire>:
    216c:	4770      	bx	lr

0000216e <__sfp_lock_release>:
    216e:	4770      	bx	lr

00002170 <_fopen_r>:
    2170:	b5f7      	push	{r0, r1, r2, r4, r5, r6, r7, lr}
    2172:	460f      	mov	r7, r1
    2174:	4611      	mov	r1, r2
    2176:	aa01      	add	r2, sp, #4
    2178:	4605      	mov	r5, r0
    217a:	f003 fc05 	bl	5988 <__sflags>
    217e:	4606      	mov	r6, r0
    2180:	b908      	cbnz	r0, 2186 <_fopen_r+0x16>
    2182:	2000      	movs	r0, #0
    2184:	e029      	b.n	21da <_fopen_r+0x6a>
    2186:	4628      	mov	r0, r5
    2188:	f7ff ffb4 	bl	20f4 <__sfp>
    218c:	4604      	mov	r4, r0
    218e:	2800      	cmp	r0, #0
    2190:	d0f7      	beq.n	2182 <_fopen_r+0x12>
    2192:	f44f 73db 	mov.w	r3, #438	; 0x1b6
    2196:	9a01      	ldr	r2, [sp, #4]
    2198:	4639      	mov	r1, r7
    219a:	4628      	mov	r0, r5
    219c:	f001 fb56 	bl	384c <_open_r>
    21a0:	2800      	cmp	r0, #0
    21a2:	da06      	bge.n	21b2 <_fopen_r+0x42>
    21a4:	2500      	movs	r5, #0
    21a6:	f7ff ffe1 	bl	216c <__sfp_lock_acquire>
    21aa:	81a5      	strh	r5, [r4, #12]
    21ac:	f7ff ffdf 	bl	216e <__sfp_lock_release>
    21b0:	e7e7      	b.n	2182 <_fopen_r+0x12>
    21b2:	4b0b      	ldr	r3, [pc, #44]	; (21e0 <_fopen_r+0x70>)
    21b4:	81e0      	strh	r0, [r4, #14]
    21b6:	6263      	str	r3, [r4, #36]	; 0x24
    21b8:	4b0a      	ldr	r3, [pc, #40]	; (21e4 <_fopen_r+0x74>)
    21ba:	81a6      	strh	r6, [r4, #12]
    21bc:	62a3      	str	r3, [r4, #40]	; 0x28
    21be:	4b0a      	ldr	r3, [pc, #40]	; (21e8 <_fopen_r+0x78>)
    21c0:	6224      	str	r4, [r4, #32]
    21c2:	62e3      	str	r3, [r4, #44]	; 0x2c
    21c4:	4b09      	ldr	r3, [pc, #36]	; (21ec <_fopen_r+0x7c>)
    21c6:	6323      	str	r3, [r4, #48]	; 0x30
    21c8:	05f3      	lsls	r3, r6, #23
    21ca:	d505      	bpl.n	21d8 <_fopen_r+0x68>
    21cc:	2302      	movs	r3, #2
    21ce:	2200      	movs	r2, #0
    21d0:	4621      	mov	r1, r4
    21d2:	4628      	mov	r0, r5
    21d4:	f000 f826 	bl	2224 <_fseek_r>
    21d8:	4620      	mov	r0, r4
    21da:	b003      	add	sp, #12
    21dc:	bdf0      	pop	{r4, r5, r6, r7, pc}
    21de:	bf00      	nop
    21e0:	00003b85 	.word	0x00003b85
    21e4:	00003bab 	.word	0x00003bab
    21e8:	00003be3 	.word	0x00003be3
    21ec:	00003c07 	.word	0x00003c07

000021f0 <fopen>:
    21f0:	4b02      	ldr	r3, [pc, #8]	; (21fc <fopen+0xc>)
    21f2:	460a      	mov	r2, r1
    21f4:	4601      	mov	r1, r0
    21f6:	6818      	ldr	r0, [r3, #0]
    21f8:	f7ff bfba 	b.w	2170 <_fopen_r>
    21fc:	10000138 	.word	0x10000138

00002200 <fiprintf>:
    2200:	b40e      	push	{r1, r2, r3}
    2202:	b503      	push	{r0, r1, lr}
    2204:	4601      	mov	r1, r0
    2206:	ab03      	add	r3, sp, #12
    2208:	4805      	ldr	r0, [pc, #20]	; (2220 <fiprintf+0x20>)
    220a:	f853 2b04 	ldr.w	r2, [r3], #4
    220e:	6800      	ldr	r0, [r0, #0]
    2210:	9301      	str	r3, [sp, #4]
    2212:	f000 fa57 	bl	26c4 <_vfiprintf_r>
    2216:	b002      	add	sp, #8
    2218:	f85d eb04 	ldr.w	lr, [sp], #4
    221c:	b003      	add	sp, #12
    221e:	4770      	bx	lr
    2220:	10000138 	.word	0x10000138

00002224 <_fseek_r>:
    2224:	f000 b800 	b.w	2228 <_fseeko_r>

00002228 <_fseeko_r>:
    2228:	e92d 43f8 	stmdb	sp!, {r3, r4, r5, r6, r7, r8, r9, lr}
    222c:	460c      	mov	r4, r1
    222e:	4690      	mov	r8, r2
    2230:	461e      	mov	r6, r3
    2232:	4605      	mov	r5, r0
    2234:	b118      	cbz	r0, 223e <_fseeko_r+0x16>
    2236:	6983      	ldr	r3, [r0, #24]
    2238:	b90b      	cbnz	r3, 223e <_fseeko_r+0x16>
    223a:	f7ff ff2b 	bl	2094 <__sinit>
    223e:	4b3d      	ldr	r3, [pc, #244]	; (2334 <_fseeko_r+0x10c>)
    2240:	429c      	cmp	r4, r3
    2242:	d101      	bne.n	2248 <_fseeko_r+0x20>
    2244:	686c      	ldr	r4, [r5, #4]
    2246:	e008      	b.n	225a <_fseeko_r+0x32>
    2248:	4b3b      	ldr	r3, [pc, #236]	; (2338 <_fseeko_r+0x110>)
    224a:	429c      	cmp	r4, r3
    224c:	d101      	bne.n	2252 <_fseeko_r+0x2a>
    224e:	68ac      	ldr	r4, [r5, #8]
    2250:	e003      	b.n	225a <_fseeko_r+0x32>
    2252:	4b3a      	ldr	r3, [pc, #232]	; (233c <_fseeko_r+0x114>)
    2254:	429c      	cmp	r4, r3
    2256:	bf08      	it	eq
    2258:	68ec      	ldreq	r4, [r5, #12]
    225a:	89a3      	ldrh	r3, [r4, #12]
    225c:	f403 7384 	and.w	r3, r3, #264	; 0x108
    2260:	f5b3 7f84 	cmp.w	r3, #264	; 0x108
    2264:	d103      	bne.n	226e <_fseeko_r+0x46>
    2266:	4621      	mov	r1, r4
    2268:	4628      	mov	r0, r5
    226a:	f7ff fea9 	bl	1fc0 <_fflush_r>
    226e:	6ae7      	ldr	r7, [r4, #44]	; 0x2c
    2270:	b90f      	cbnz	r7, 2276 <_fseeko_r+0x4e>
    2272:	231d      	movs	r3, #29
    2274:	e02b      	b.n	22ce <_fseeko_r+0xa6>
    2276:	2e01      	cmp	r6, #1
    2278:	d004      	beq.n	2284 <_fseeko_r+0x5c>
    227a:	2e02      	cmp	r6, #2
    227c:	d02b      	beq.n	22d6 <_fseeko_r+0xae>
    227e:	b356      	cbz	r6, 22d6 <_fseeko_r+0xae>
    2280:	2316      	movs	r3, #22
    2282:	e024      	b.n	22ce <_fseeko_r+0xa6>
    2284:	4621      	mov	r1, r4
    2286:	4628      	mov	r0, r5
    2288:	f7ff fe9a 	bl	1fc0 <_fflush_r>
    228c:	89a2      	ldrh	r2, [r4, #12]
    228e:	f402 5280 	and.w	r2, r2, #4096	; 0x1000
    2292:	b292      	uxth	r2, r2
    2294:	b10a      	cbz	r2, 229a <_fseeko_r+0x72>
    2296:	6d60      	ldr	r0, [r4, #84]	; 0x54
    2298:	e005      	b.n	22a6 <_fseeko_r+0x7e>
    229a:	6a21      	ldr	r1, [r4, #32]
    229c:	4633      	mov	r3, r6
    229e:	4628      	mov	r0, r5
    22a0:	47b8      	blx	r7
    22a2:	1c41      	adds	r1, r0, #1
    22a4:	d014      	beq.n	22d0 <_fseeko_r+0xa8>
    22a6:	89a3      	ldrh	r3, [r4, #12]
    22a8:	075a      	lsls	r2, r3, #29
    22aa:	d506      	bpl.n	22ba <_fseeko_r+0x92>
    22ac:	6863      	ldr	r3, [r4, #4]
    22ae:	1ac0      	subs	r0, r0, r3
    22b0:	6b63      	ldr	r3, [r4, #52]	; 0x34
    22b2:	b14b      	cbz	r3, 22c8 <_fseeko_r+0xa0>
    22b4:	6c23      	ldr	r3, [r4, #64]	; 0x40
    22b6:	1ac0      	subs	r0, r0, r3
    22b8:	e006      	b.n	22c8 <_fseeko_r+0xa0>
    22ba:	071b      	lsls	r3, r3, #28
    22bc:	d504      	bpl.n	22c8 <_fseeko_r+0xa0>
    22be:	6823      	ldr	r3, [r4, #0]
    22c0:	b113      	cbz	r3, 22c8 <_fseeko_r+0xa0>
    22c2:	6922      	ldr	r2, [r4, #16]
    22c4:	1a9b      	subs	r3, r3, r2
    22c6:	4418      	add	r0, r3
    22c8:	4480      	add	r8, r0
    22ca:	2600      	movs	r6, #0
    22cc:	e003      	b.n	22d6 <_fseeko_r+0xae>
    22ce:	602b      	str	r3, [r5, #0]
    22d0:	f04f 39ff 	mov.w	r9, #4294967295
    22d4:	e02b      	b.n	232e <_fseeko_r+0x106>
    22d6:	6923      	ldr	r3, [r4, #16]
    22d8:	b91b      	cbnz	r3, 22e2 <_fseeko_r+0xba>
    22da:	4621      	mov	r1, r4
    22dc:	4628      	mov	r0, r5
    22de:	f000 f897 	bl	2410 <__smakebuf_r>
    22e2:	4621      	mov	r1, r4
    22e4:	4628      	mov	r0, r5
    22e6:	f7ff fe6b 	bl	1fc0 <_fflush_r>
    22ea:	4681      	mov	r9, r0
    22ec:	2800      	cmp	r0, #0
    22ee:	d1ef      	bne.n	22d0 <_fseeko_r+0xa8>
    22f0:	4633      	mov	r3, r6
    22f2:	4642      	mov	r2, r8
    22f4:	6a21      	ldr	r1, [r4, #32]
    22f6:	4628      	mov	r0, r5
    22f8:	47b8      	blx	r7
    22fa:	3001      	adds	r0, #1
    22fc:	d0e8      	beq.n	22d0 <_fseeko_r+0xa8>
    22fe:	6b61      	ldr	r1, [r4, #52]	; 0x34
    2300:	b141      	cbz	r1, 2314 <_fseeko_r+0xec>
    2302:	f104 0344 	add.w	r3, r4, #68	; 0x44
    2306:	4299      	cmp	r1, r3
    2308:	d002      	beq.n	2310 <_fseeko_r+0xe8>
    230a:	4628      	mov	r0, r5
    230c:	f000 f908 	bl	2520 <_free_r>
    2310:	2300      	movs	r3, #0
    2312:	6363      	str	r3, [r4, #52]	; 0x34
    2314:	6923      	ldr	r3, [r4, #16]
    2316:	2100      	movs	r1, #0
    2318:	6023      	str	r3, [r4, #0]
    231a:	89a3      	ldrh	r3, [r4, #12]
    231c:	6061      	str	r1, [r4, #4]
    231e:	f423 6302 	bic.w	r3, r3, #2080	; 0x820
    2322:	81a3      	strh	r3, [r4, #12]
    2324:	2208      	movs	r2, #8
    2326:	f104 005c 	add.w	r0, r4, #92	; 0x5c
    232a:	f000 f8f1 	bl	2510 <memset>
    232e:	4648      	mov	r0, r9
    2330:	e8bd 83f8 	ldmia.w	sp!, {r3, r4, r5, r6, r7, r8, r9, pc}
    2334:	000084ec 	.word	0x000084ec
    2338:	0000850c 	.word	0x0000850c
    233c:	0000852c 	.word	0x0000852c

00002340 <_fwalk_reent>:
    2340:	e92d 43f8 	stmdb	sp!, {r3, r4, r5, r6, r7, r8, r9, lr}
    2344:	4680      	mov	r8, r0
    2346:	4689      	mov	r9, r1
    2348:	f100 0448 	add.w	r4, r0, #72	; 0x48
    234c:	2600      	movs	r6, #0
    234e:	b194      	cbz	r4, 2376 <_fwalk_reent+0x36>
    2350:	68a5      	ldr	r5, [r4, #8]
    2352:	6867      	ldr	r7, [r4, #4]
    2354:	3f01      	subs	r7, #1
    2356:	d40c      	bmi.n	2372 <_fwalk_reent+0x32>
    2358:	89ab      	ldrh	r3, [r5, #12]
    235a:	2b01      	cmp	r3, #1
    235c:	d907      	bls.n	236e <_fwalk_reent+0x2e>
    235e:	f9b5 300e 	ldrsh.w	r3, [r5, #14]
    2362:	3301      	adds	r3, #1
    2364:	d003      	beq.n	236e <_fwalk_reent+0x2e>
    2366:	4629      	mov	r1, r5
    2368:	4640      	mov	r0, r8
    236a:	47c8      	blx	r9
    236c:	4306      	orrs	r6, r0
    236e:	3568      	adds	r5, #104	; 0x68
    2370:	e7f0      	b.n	2354 <_fwalk_reent+0x14>
    2372:	6824      	ldr	r4, [r4, #0]
    2374:	e7eb      	b.n	234e <_fwalk_reent+0xe>
    2376:	4630      	mov	r0, r6
    2378:	e8bd 83f8 	ldmia.w	sp!, {r3, r4, r5, r6, r7, r8, r9, pc}

0000237c <__libc_init_array>:
    237c:	4b0e      	ldr	r3, [pc, #56]	; (23b8 <__libc_init_array+0x3c>)
    237e:	b570      	push	{r4, r5, r6, lr}
    2380:	461e      	mov	r6, r3
    2382:	4c0e      	ldr	r4, [pc, #56]	; (23bc <__libc_init_array+0x40>)
    2384:	2500      	movs	r5, #0
    2386:	1ae4      	subs	r4, r4, r3
    2388:	10a4      	asrs	r4, r4, #2
    238a:	42a5      	cmp	r5, r4
    238c:	d004      	beq.n	2398 <__libc_init_array+0x1c>
    238e:	f856 3025 	ldr.w	r3, [r6, r5, lsl #2]
    2392:	4798      	blx	r3
    2394:	3501      	adds	r5, #1
    2396:	e7f8      	b.n	238a <__libc_init_array+0xe>
    2398:	f005 fe12 	bl	7fc0 <_init>
    239c:	4b08      	ldr	r3, [pc, #32]	; (23c0 <__libc_init_array+0x44>)
    239e:	4c09      	ldr	r4, [pc, #36]	; (23c4 <__libc_init_array+0x48>)
    23a0:	461e      	mov	r6, r3
    23a2:	1ae4      	subs	r4, r4, r3
    23a4:	10a4      	asrs	r4, r4, #2
    23a6:	2500      	movs	r5, #0
    23a8:	42a5      	cmp	r5, r4
    23aa:	d004      	beq.n	23b6 <__libc_init_array+0x3a>
    23ac:	f856 3025 	ldr.w	r3, [r6, r5, lsl #2]
    23b0:	4798      	blx	r3
    23b2:	3501      	adds	r5, #1
    23b4:	e7f8      	b.n	23a8 <__libc_init_array+0x2c>
    23b6:	bd70      	pop	{r4, r5, r6, pc}
    23b8:	100002a8 	.word	0x100002a8
    23bc:	100002a8 	.word	0x100002a8
    23c0:	100002a8 	.word	0x100002a8
    23c4:	100002b0 	.word	0x100002b0

000023c8 <__swhatbuf_r>:
    23c8:	b570      	push	{r4, r5, r6, lr}
    23ca:	460e      	mov	r6, r1
    23cc:	f9b1 100e 	ldrsh.w	r1, [r1, #14]
    23d0:	b090      	sub	sp, #64	; 0x40
    23d2:	2900      	cmp	r1, #0
    23d4:	4614      	mov	r4, r2
    23d6:	461d      	mov	r5, r3
    23d8:	da06      	bge.n	23e8 <__swhatbuf_r+0x20>
    23da:	2300      	movs	r3, #0
    23dc:	602b      	str	r3, [r5, #0]
    23de:	89b3      	ldrh	r3, [r6, #12]
    23e0:	061a      	lsls	r2, r3, #24
    23e2:	d50e      	bpl.n	2402 <__swhatbuf_r+0x3a>
    23e4:	2340      	movs	r3, #64	; 0x40
    23e6:	e00e      	b.n	2406 <__swhatbuf_r+0x3e>
    23e8:	aa01      	add	r2, sp, #4
    23ea:	f003 fb05 	bl	59f8 <_fstat_r>
    23ee:	2800      	cmp	r0, #0
    23f0:	dbf3      	blt.n	23da <__swhatbuf_r+0x12>
    23f2:	9a02      	ldr	r2, [sp, #8]
    23f4:	f402 4270 	and.w	r2, r2, #61440	; 0xf000
    23f8:	f5a2 5300 	sub.w	r3, r2, #8192	; 0x2000
    23fc:	425a      	negs	r2, r3
    23fe:	415a      	adcs	r2, r3
    2400:	602a      	str	r2, [r5, #0]
    2402:	f44f 6380 	mov.w	r3, #1024	; 0x400
    2406:	2000      	movs	r0, #0
    2408:	6023      	str	r3, [r4, #0]
    240a:	b010      	add	sp, #64	; 0x40
    240c:	bd70      	pop	{r4, r5, r6, pc}
	...

00002410 <__smakebuf_r>:
    2410:	898b      	ldrh	r3, [r1, #12]
    2412:	b573      	push	{r0, r1, r4, r5, r6, lr}
    2414:	079e      	lsls	r6, r3, #30
    2416:	4605      	mov	r5, r0
    2418:	460c      	mov	r4, r1
    241a:	d410      	bmi.n	243e <__smakebuf_r+0x2e>
    241c:	ab01      	add	r3, sp, #4
    241e:	466a      	mov	r2, sp
    2420:	f7ff ffd2 	bl	23c8 <__swhatbuf_r>
    2424:	9900      	ldr	r1, [sp, #0]
    2426:	4606      	mov	r6, r0
    2428:	4628      	mov	r0, r5
    242a:	f000 f8c5 	bl	25b8 <_malloc_r>
    242e:	b968      	cbnz	r0, 244c <__smakebuf_r+0x3c>
    2430:	f9b4 300c 	ldrsh.w	r3, [r4, #12]
    2434:	059a      	lsls	r2, r3, #22
    2436:	d422      	bmi.n	247e <__smakebuf_r+0x6e>
    2438:	f043 0302 	orr.w	r3, r3, #2
    243c:	81a3      	strh	r3, [r4, #12]
    243e:	f104 0347 	add.w	r3, r4, #71	; 0x47
    2442:	6023      	str	r3, [r4, #0]
    2444:	6123      	str	r3, [r4, #16]
    2446:	2301      	movs	r3, #1
    2448:	6163      	str	r3, [r4, #20]
    244a:	e018      	b.n	247e <__smakebuf_r+0x6e>
    244c:	4b0d      	ldr	r3, [pc, #52]	; (2484 <__smakebuf_r+0x74>)
    244e:	62ab      	str	r3, [r5, #40]	; 0x28
    2450:	89a3      	ldrh	r3, [r4, #12]
    2452:	6020      	str	r0, [r4, #0]
    2454:	f043 0380 	orr.w	r3, r3, #128	; 0x80
    2458:	81a3      	strh	r3, [r4, #12]
    245a:	9b00      	ldr	r3, [sp, #0]
    245c:	6120      	str	r0, [r4, #16]
    245e:	6163      	str	r3, [r4, #20]
    2460:	9b01      	ldr	r3, [sp, #4]
    2462:	b14b      	cbz	r3, 2478 <__smakebuf_r+0x68>
    2464:	f9b4 100e 	ldrsh.w	r1, [r4, #14]
    2468:	4628      	mov	r0, r5
    246a:	f003 fdf5 	bl	6058 <_isatty_r>
    246e:	b118      	cbz	r0, 2478 <__smakebuf_r+0x68>
    2470:	89a3      	ldrh	r3, [r4, #12]
    2472:	f043 0301 	orr.w	r3, r3, #1
    2476:	81a3      	strh	r3, [r4, #12]
    2478:	89a0      	ldrh	r0, [r4, #12]
    247a:	4330      	orrs	r0, r6
    247c:	81a0      	strh	r0, [r4, #12]
    247e:	b002      	add	sp, #8
    2480:	bd70      	pop	{r4, r5, r6, pc}
    2482:	bf00      	nop
    2484:	00002015 	.word	0x00002015

00002488 <malloc>:
    2488:	4b02      	ldr	r3, [pc, #8]	; (2494 <malloc+0xc>)
    248a:	4601      	mov	r1, r0
    248c:	6818      	ldr	r0, [r3, #0]
    248e:	f000 b893 	b.w	25b8 <_malloc_r>
    2492:	bf00      	nop
    2494:	10000138 	.word	0x10000138

00002498 <free>:
    2498:	4b02      	ldr	r3, [pc, #8]	; (24a4 <free+0xc>)
    249a:	4601      	mov	r1, r0
    249c:	6818      	ldr	r0, [r3, #0]
    249e:	f000 b83f 	b.w	2520 <_free_r>
    24a2:	bf00      	nop
    24a4:	10000138 	.word	0x10000138

000024a8 <memchr>:
    24a8:	b510      	push	{r4, lr}
    24aa:	b2c9      	uxtb	r1, r1
    24ac:	4402      	add	r2, r0
    24ae:	4290      	cmp	r0, r2
    24b0:	4603      	mov	r3, r0
    24b2:	d005      	beq.n	24c0 <memchr+0x18>
    24b4:	781c      	ldrb	r4, [r3, #0]
    24b6:	3001      	adds	r0, #1
    24b8:	428c      	cmp	r4, r1
    24ba:	d1f8      	bne.n	24ae <memchr+0x6>
    24bc:	4618      	mov	r0, r3
    24be:	bd10      	pop	{r4, pc}
    24c0:	2000      	movs	r0, #0
    24c2:	bd10      	pop	{r4, pc}

000024c4 <memcpy>:
    24c4:	b510      	push	{r4, lr}
    24c6:	1e43      	subs	r3, r0, #1
    24c8:	440a      	add	r2, r1
    24ca:	4291      	cmp	r1, r2
    24cc:	d004      	beq.n	24d8 <memcpy+0x14>
    24ce:	f811 4b01 	ldrb.w	r4, [r1], #1
    24d2:	f803 4f01 	strb.w	r4, [r3, #1]!
    24d6:	e7f8      	b.n	24ca <memcpy+0x6>
    24d8:	bd10      	pop	{r4, pc}

000024da <memmove>:
    24da:	4288      	cmp	r0, r1
    24dc:	b510      	push	{r4, lr}
    24de:	eb01 0302 	add.w	r3, r1, r2
    24e2:	d801      	bhi.n	24e8 <memmove+0xe>
    24e4:	1e42      	subs	r2, r0, #1
    24e6:	e00b      	b.n	2500 <memmove+0x26>
    24e8:	4298      	cmp	r0, r3
    24ea:	d2fb      	bcs.n	24e4 <memmove+0xa>
    24ec:	1881      	adds	r1, r0, r2
    24ee:	1ad2      	subs	r2, r2, r3
    24f0:	42d3      	cmn	r3, r2
    24f2:	d004      	beq.n	24fe <memmove+0x24>
    24f4:	f813 4d01 	ldrb.w	r4, [r3, #-1]!
    24f8:	f801 4d01 	strb.w	r4, [r1, #-1]!
    24fc:	e7f8      	b.n	24f0 <memmove+0x16>
    24fe:	bd10      	pop	{r4, pc}
    2500:	4299      	cmp	r1, r3
    2502:	d004      	beq.n	250e <memmove+0x34>
    2504:	f811 4b01 	ldrb.w	r4, [r1], #1
    2508:	f802 4f01 	strb.w	r4, [r2, #1]!
    250c:	e7f8      	b.n	2500 <memmove+0x26>
    250e:	bd10      	pop	{r4, pc}

00002510 <memset>:
    2510:	4603      	mov	r3, r0
    2512:	4402      	add	r2, r0
    2514:	4293      	cmp	r3, r2
    2516:	d002      	beq.n	251e <memset+0xe>
    2518:	f803 1b01 	strb.w	r1, [r3], #1
    251c:	e7fa      	b.n	2514 <memset+0x4>
    251e:	4770      	bx	lr

00002520 <_free_r>:
    2520:	b538      	push	{r3, r4, r5, lr}
    2522:	4605      	mov	r5, r0
    2524:	2900      	cmp	r1, #0
    2526:	d044      	beq.n	25b2 <_free_r+0x92>
    2528:	f851 3c04 	ldr.w	r3, [r1, #-4]
    252c:	1f0c      	subs	r4, r1, #4
    252e:	2b00      	cmp	r3, #0
    2530:	bfb8      	it	lt
    2532:	18e4      	addlt	r4, r4, r3
    2534:	f003 fdee 	bl	6114 <__malloc_lock>
    2538:	4a1e      	ldr	r2, [pc, #120]	; (25b4 <_free_r+0x94>)
    253a:	6813      	ldr	r3, [r2, #0]
    253c:	4611      	mov	r1, r2
    253e:	b913      	cbnz	r3, 2546 <_free_r+0x26>
    2540:	6063      	str	r3, [r4, #4]
    2542:	6014      	str	r4, [r2, #0]
    2544:	e030      	b.n	25a8 <_free_r+0x88>
    2546:	42a3      	cmp	r3, r4
    2548:	d90d      	bls.n	2566 <_free_r+0x46>
    254a:	6822      	ldr	r2, [r4, #0]
    254c:	18a0      	adds	r0, r4, r2
    254e:	4283      	cmp	r3, r0
    2550:	bf01      	itttt	eq
    2552:	6818      	ldreq	r0, [r3, #0]
    2554:	685b      	ldreq	r3, [r3, #4]
    2556:	1812      	addeq	r2, r2, r0
    2558:	6022      	streq	r2, [r4, #0]
    255a:	6063      	str	r3, [r4, #4]
    255c:	600c      	str	r4, [r1, #0]
    255e:	e023      	b.n	25a8 <_free_r+0x88>
    2560:	42a2      	cmp	r2, r4
    2562:	d803      	bhi.n	256c <_free_r+0x4c>
    2564:	4613      	mov	r3, r2
    2566:	685a      	ldr	r2, [r3, #4]
    2568:	2a00      	cmp	r2, #0
    256a:	d1f9      	bne.n	2560 <_free_r+0x40>
    256c:	6818      	ldr	r0, [r3, #0]
    256e:	1819      	adds	r1, r3, r0
    2570:	42a1      	cmp	r1, r4
    2572:	d10b      	bne.n	258c <_free_r+0x6c>
    2574:	6821      	ldr	r1, [r4, #0]
    2576:	4401      	add	r1, r0
    2578:	1858      	adds	r0, r3, r1
    257a:	4282      	cmp	r2, r0
    257c:	6019      	str	r1, [r3, #0]
    257e:	d113      	bne.n	25a8 <_free_r+0x88>
    2580:	6810      	ldr	r0, [r2, #0]
    2582:	6852      	ldr	r2, [r2, #4]
    2584:	4401      	add	r1, r0
    2586:	6019      	str	r1, [r3, #0]
    2588:	605a      	str	r2, [r3, #4]
    258a:	e00d      	b.n	25a8 <_free_r+0x88>
    258c:	d902      	bls.n	2594 <_free_r+0x74>
    258e:	230c      	movs	r3, #12
    2590:	602b      	str	r3, [r5, #0]
    2592:	e009      	b.n	25a8 <_free_r+0x88>
    2594:	6821      	ldr	r1, [r4, #0]
    2596:	1860      	adds	r0, r4, r1
    2598:	4282      	cmp	r2, r0
    259a:	bf01      	itttt	eq
    259c:	6810      	ldreq	r0, [r2, #0]
    259e:	6852      	ldreq	r2, [r2, #4]
    25a0:	1809      	addeq	r1, r1, r0
    25a2:	6021      	streq	r1, [r4, #0]
    25a4:	6062      	str	r2, [r4, #4]
    25a6:	605c      	str	r4, [r3, #4]
    25a8:	4628      	mov	r0, r5
    25aa:	e8bd 4038 	ldmia.w	sp!, {r3, r4, r5, lr}
    25ae:	f003 bdb2 	b.w	6116 <__malloc_unlock>
    25b2:	bd38      	pop	{r3, r4, r5, pc}
    25b4:	100004a4 	.word	0x100004a4

000025b8 <_malloc_r>:
    25b8:	b570      	push	{r4, r5, r6, lr}
    25ba:	1ccd      	adds	r5, r1, #3
    25bc:	f025 0503 	bic.w	r5, r5, #3
    25c0:	3508      	adds	r5, #8
    25c2:	2d0c      	cmp	r5, #12
    25c4:	bf38      	it	cc
    25c6:	250c      	movcc	r5, #12
    25c8:	2d00      	cmp	r5, #0
    25ca:	4606      	mov	r6, r0
    25cc:	db01      	blt.n	25d2 <_malloc_r+0x1a>
    25ce:	42a9      	cmp	r1, r5
    25d0:	d902      	bls.n	25d8 <_malloc_r+0x20>
    25d2:	230c      	movs	r3, #12
    25d4:	6033      	str	r3, [r6, #0]
    25d6:	e046      	b.n	2666 <_malloc_r+0xae>
    25d8:	f003 fd9c 	bl	6114 <__malloc_lock>
    25dc:	4b23      	ldr	r3, [pc, #140]	; (266c <_malloc_r+0xb4>)
    25de:	681c      	ldr	r4, [r3, #0]
    25e0:	461a      	mov	r2, r3
    25e2:	4621      	mov	r1, r4
    25e4:	b1a1      	cbz	r1, 2610 <_malloc_r+0x58>
    25e6:	680b      	ldr	r3, [r1, #0]
    25e8:	1b5b      	subs	r3, r3, r5
    25ea:	d40e      	bmi.n	260a <_malloc_r+0x52>
    25ec:	2b0b      	cmp	r3, #11
    25ee:	d903      	bls.n	25f8 <_malloc_r+0x40>
    25f0:	600b      	str	r3, [r1, #0]
    25f2:	18cc      	adds	r4, r1, r3
    25f4:	50cd      	str	r5, [r1, r3]
    25f6:	e01e      	b.n	2636 <_malloc_r+0x7e>
    25f8:	428c      	cmp	r4, r1
    25fa:	bf0b      	itete	eq
    25fc:	6863      	ldreq	r3, [r4, #4]
    25fe:	684b      	ldrne	r3, [r1, #4]
    2600:	6013      	streq	r3, [r2, #0]
    2602:	6063      	strne	r3, [r4, #4]
    2604:	bf18      	it	ne
    2606:	460c      	movne	r4, r1
    2608:	e015      	b.n	2636 <_malloc_r+0x7e>
    260a:	460c      	mov	r4, r1
    260c:	6849      	ldr	r1, [r1, #4]
    260e:	e7e9      	b.n	25e4 <_malloc_r+0x2c>
    2610:	4c17      	ldr	r4, [pc, #92]	; (2670 <_malloc_r+0xb8>)
    2612:	6823      	ldr	r3, [r4, #0]
    2614:	b91b      	cbnz	r3, 261e <_malloc_r+0x66>
    2616:	4630      	mov	r0, r6
    2618:	f001 f92a 	bl	3870 <_sbrk_r>
    261c:	6020      	str	r0, [r4, #0]
    261e:	4629      	mov	r1, r5
    2620:	4630      	mov	r0, r6
    2622:	f001 f925 	bl	3870 <_sbrk_r>
    2626:	1c43      	adds	r3, r0, #1
    2628:	d018      	beq.n	265c <_malloc_r+0xa4>
    262a:	1cc4      	adds	r4, r0, #3
    262c:	f024 0403 	bic.w	r4, r4, #3
    2630:	42a0      	cmp	r0, r4
    2632:	d10d      	bne.n	2650 <_malloc_r+0x98>
    2634:	6025      	str	r5, [r4, #0]
    2636:	4630      	mov	r0, r6
    2638:	f003 fd6d 	bl	6116 <__malloc_unlock>
    263c:	f104 000b 	add.w	r0, r4, #11
    2640:	1d23      	adds	r3, r4, #4
    2642:	f020 0007 	bic.w	r0, r0, #7
    2646:	1ac3      	subs	r3, r0, r3
    2648:	d00e      	beq.n	2668 <_malloc_r+0xb0>
    264a:	425a      	negs	r2, r3
    264c:	50e2      	str	r2, [r4, r3]
    264e:	bd70      	pop	{r4, r5, r6, pc}
    2650:	1a21      	subs	r1, r4, r0
    2652:	4630      	mov	r0, r6
    2654:	f001 f90c 	bl	3870 <_sbrk_r>
    2658:	3001      	adds	r0, #1
    265a:	d1eb      	bne.n	2634 <_malloc_r+0x7c>
    265c:	230c      	movs	r3, #12
    265e:	6033      	str	r3, [r6, #0]
    2660:	4630      	mov	r0, r6
    2662:	f003 fd58 	bl	6116 <__malloc_unlock>
    2666:	2000      	movs	r0, #0
    2668:	bd70      	pop	{r4, r5, r6, pc}
    266a:	bf00      	nop
    266c:	100004a4 	.word	0x100004a4
    2670:	100004a0 	.word	0x100004a0

00002674 <__sfputc_r>:
    2674:	6893      	ldr	r3, [r2, #8]
    2676:	b410      	push	{r4}
    2678:	3b01      	subs	r3, #1
    267a:	2b00      	cmp	r3, #0
    267c:	6093      	str	r3, [r2, #8]
    267e:	da08      	bge.n	2692 <__sfputc_r+0x1e>
    2680:	6994      	ldr	r4, [r2, #24]
    2682:	42a3      	cmp	r3, r4
    2684:	db02      	blt.n	268c <__sfputc_r+0x18>
    2686:	b2cb      	uxtb	r3, r1
    2688:	2b0a      	cmp	r3, #10
    268a:	d102      	bne.n	2692 <__sfputc_r+0x1e>
    268c:	bc10      	pop	{r4}
    268e:	f002 ba73 	b.w	4b78 <__swbuf_r>
    2692:	6813      	ldr	r3, [r2, #0]
    2694:	1c58      	adds	r0, r3, #1
    2696:	6010      	str	r0, [r2, #0]
    2698:	7019      	strb	r1, [r3, #0]
    269a:	b2c8      	uxtb	r0, r1
    269c:	bc10      	pop	{r4}
    269e:	4770      	bx	lr

000026a0 <__sfputs_r>:
    26a0:	b5f8      	push	{r3, r4, r5, r6, r7, lr}
    26a2:	4606      	mov	r6, r0
    26a4:	460f      	mov	r7, r1
    26a6:	4614      	mov	r4, r2
    26a8:	18d5      	adds	r5, r2, r3
    26aa:	42ac      	cmp	r4, r5
    26ac:	d008      	beq.n	26c0 <__sfputs_r+0x20>
    26ae:	463a      	mov	r2, r7
    26b0:	f814 1b01 	ldrb.w	r1, [r4], #1
    26b4:	4630      	mov	r0, r6
    26b6:	f7ff ffdd 	bl	2674 <__sfputc_r>
    26ba:	1c43      	adds	r3, r0, #1
    26bc:	d1f5      	bne.n	26aa <__sfputs_r+0xa>
    26be:	e000      	b.n	26c2 <__sfputs_r+0x22>
    26c0:	2000      	movs	r0, #0
    26c2:	bdf8      	pop	{r3, r4, r5, r6, r7, pc}

000026c4 <_vfiprintf_r>:
    26c4:	e92d 4ff0 	stmdb	sp!, {r4, r5, r6, r7, r8, r9, r10, r11, lr}
    26c8:	b09d      	sub	sp, #116	; 0x74
    26ca:	460c      	mov	r4, r1
    26cc:	4617      	mov	r7, r2
    26ce:	9303      	str	r3, [sp, #12]
    26d0:	4606      	mov	r6, r0
    26d2:	b118      	cbz	r0, 26dc <_vfiprintf_r+0x18>
    26d4:	6983      	ldr	r3, [r0, #24]
    26d6:	b90b      	cbnz	r3, 26dc <_vfiprintf_r+0x18>
    26d8:	f7ff fcdc 	bl	2094 <__sinit>
    26dc:	4b7f      	ldr	r3, [pc, #508]	; (28dc <_vfiprintf_r+0x218>)
    26de:	429c      	cmp	r4, r3
    26e0:	d101      	bne.n	26e6 <_vfiprintf_r+0x22>
    26e2:	6874      	ldr	r4, [r6, #4]
    26e4:	e008      	b.n	26f8 <_vfiprintf_r+0x34>
    26e6:	4b7e      	ldr	r3, [pc, #504]	; (28e0 <_vfiprintf_r+0x21c>)
    26e8:	429c      	cmp	r4, r3
    26ea:	d101      	bne.n	26f0 <_vfiprintf_r+0x2c>
    26ec:	68b4      	ldr	r4, [r6, #8]
    26ee:	e003      	b.n	26f8 <_vfiprintf_r+0x34>
    26f0:	4b7c      	ldr	r3, [pc, #496]	; (28e4 <_vfiprintf_r+0x220>)
    26f2:	429c      	cmp	r4, r3
    26f4:	bf08      	it	eq
    26f6:	68f4      	ldreq	r4, [r6, #12]
    26f8:	89a3      	ldrh	r3, [r4, #12]
    26fa:	0718      	lsls	r0, r3, #28
    26fc:	d50c      	bpl.n	2718 <_vfiprintf_r+0x54>
    26fe:	6923      	ldr	r3, [r4, #16]
    2700:	b153      	cbz	r3, 2718 <_vfiprintf_r+0x54>
    2702:	2300      	movs	r3, #0
    2704:	9309      	str	r3, [sp, #36]	; 0x24
    2706:	2320      	movs	r3, #32
    2708:	f88d 3029 	strb.w	r3, [sp, #41]	; 0x29
    270c:	2330      	movs	r3, #48	; 0x30
    270e:	f88d 302a 	strb.w	r3, [sp, #42]	; 0x2a
    2712:	f8df b1d4 	ldr.w	r11, [pc, #468]	; 28e8 <_vfiprintf_r+0x224>
    2716:	e044      	b.n	27a2 <_vfiprintf_r+0xde>
    2718:	4621      	mov	r1, r4
    271a:	4630      	mov	r0, r6
    271c:	f002 fa92 	bl	4c44 <__swsetup_r>
    2720:	2800      	cmp	r0, #0
    2722:	d0ee      	beq.n	2702 <_vfiprintf_r+0x3e>
    2724:	f04f 30ff 	mov.w	r0, #4294967295
    2728:	e0d5      	b.n	28d6 <_vfiprintf_r+0x212>
    272a:	9a03      	ldr	r2, [sp, #12]
    272c:	1d11      	adds	r1, r2, #4
    272e:	6812      	ldr	r2, [r2, #0]
    2730:	9103      	str	r1, [sp, #12]
    2732:	2a00      	cmp	r2, #0
    2734:	f280 808c 	bge.w	2850 <_vfiprintf_r+0x18c>
    2738:	4252      	negs	r2, r2
    273a:	f043 0002 	orr.w	r0, r3, #2
    273e:	9207      	str	r2, [sp, #28]
    2740:	9004      	str	r0, [sp, #16]
    2742:	f898 3000 	ldrb.w	r3, [r8]
    2746:	2b2e      	cmp	r3, #46	; 0x2e
    2748:	f000 8084 	beq.w	2854 <_vfiprintf_r+0x190>
    274c:	2203      	movs	r2, #3
    274e:	f898 1000 	ldrb.w	r1, [r8]
    2752:	4865      	ldr	r0, [pc, #404]	; (28e8 <_vfiprintf_r+0x224>)
    2754:	f7ff fea8 	bl	24a8 <memchr>
    2758:	b148      	cbz	r0, 276e <_vfiprintf_r+0xaa>
    275a:	2340      	movs	r3, #64	; 0x40
    275c:	ebcb 0000 	rsb	r0, r11, r0
    2760:	fa03 f000 	lsl.w	r0, r3, r0
    2764:	9b04      	ldr	r3, [sp, #16]
    2766:	f108 0801 	add.w	r8, r8, #1
    276a:	4318      	orrs	r0, r3
    276c:	9004      	str	r0, [sp, #16]
    276e:	f898 1000 	ldrb.w	r1, [r8]
    2772:	2206      	movs	r2, #6
    2774:	485d      	ldr	r0, [pc, #372]	; (28ec <_vfiprintf_r+0x228>)
    2776:	f108 0701 	add.w	r7, r8, #1
    277a:	f88d 1028 	strb.w	r1, [sp, #40]	; 0x28
    277e:	f7ff fe93 	bl	24a8 <memchr>
    2782:	2800      	cmp	r0, #0
    2784:	f000 8095 	beq.w	28b2 <_vfiprintf_r+0x1ee>
    2788:	4b59      	ldr	r3, [pc, #356]	; (28f0 <_vfiprintf_r+0x22c>)
    278a:	2b00      	cmp	r3, #0
    278c:	f040 8088 	bne.w	28a0 <_vfiprintf_r+0x1dc>
    2790:	9b03      	ldr	r3, [sp, #12]
    2792:	3307      	adds	r3, #7
    2794:	f023 0307 	bic.w	r3, r3, #7
    2798:	3308      	adds	r3, #8
    279a:	9303      	str	r3, [sp, #12]
    279c:	9b09      	ldr	r3, [sp, #36]	; 0x24
    279e:	4453      	add	r3, r10
    27a0:	9309      	str	r3, [sp, #36]	; 0x24
    27a2:	46b8      	mov	r8, r7
    27a4:	4645      	mov	r5, r8
    27a6:	f815 3b01 	ldrb.w	r3, [r5], #1
    27aa:	b91b      	cbnz	r3, 27b4 <_vfiprintf_r+0xf0>
    27ac:	ebb8 0907 	subs.w	r9, r8, r7
    27b0:	d00f      	beq.n	27d2 <_vfiprintf_r+0x10e>
    27b2:	e003      	b.n	27bc <_vfiprintf_r+0xf8>
    27b4:	2b25      	cmp	r3, #37	; 0x25
    27b6:	d0f9      	beq.n	27ac <_vfiprintf_r+0xe8>
    27b8:	46a8      	mov	r8, r5
    27ba:	e7f3      	b.n	27a4 <_vfiprintf_r+0xe0>
    27bc:	464b      	mov	r3, r9
    27be:	463a      	mov	r2, r7
    27c0:	4621      	mov	r1, r4
    27c2:	4630      	mov	r0, r6
    27c4:	f7ff ff6c 	bl	26a0 <__sfputs_r>
    27c8:	3001      	adds	r0, #1
    27ca:	d07f      	beq.n	28cc <_vfiprintf_r+0x208>
    27cc:	9b09      	ldr	r3, [sp, #36]	; 0x24
    27ce:	444b      	add	r3, r9
    27d0:	9309      	str	r3, [sp, #36]	; 0x24
    27d2:	f898 3000 	ldrb.w	r3, [r8]
    27d6:	2b00      	cmp	r3, #0
    27d8:	d078      	beq.n	28cc <_vfiprintf_r+0x208>
    27da:	2300      	movs	r3, #0
    27dc:	f04f 32ff 	mov.w	r2, #4294967295
    27e0:	9304      	str	r3, [sp, #16]
    27e2:	9307      	str	r3, [sp, #28]
    27e4:	9205      	str	r2, [sp, #20]
    27e6:	9306      	str	r3, [sp, #24]
    27e8:	f88d 3053 	strb.w	r3, [sp, #83]	; 0x53
    27ec:	931a      	str	r3, [sp, #104]	; 0x68
    27ee:	2701      	movs	r7, #1
    27f0:	2205      	movs	r2, #5
    27f2:	7829      	ldrb	r1, [r5, #0]
    27f4:	483f      	ldr	r0, [pc, #252]	; (28f4 <_vfiprintf_r+0x230>)
    27f6:	f7ff fe57 	bl	24a8 <memchr>
    27fa:	f105 0801 	add.w	r8, r5, #1
    27fe:	9b04      	ldr	r3, [sp, #16]
    2800:	b138      	cbz	r0, 2812 <_vfiprintf_r+0x14e>
    2802:	4a3c      	ldr	r2, [pc, #240]	; (28f4 <_vfiprintf_r+0x230>)
    2804:	4645      	mov	r5, r8
    2806:	1a80      	subs	r0, r0, r2
    2808:	fa07 f000 	lsl.w	r0, r7, r0
    280c:	4318      	orrs	r0, r3
    280e:	9004      	str	r0, [sp, #16]
    2810:	e7ee      	b.n	27f0 <_vfiprintf_r+0x12c>
    2812:	06d9      	lsls	r1, r3, #27
    2814:	bf44      	itt	mi
    2816:	2220      	movmi	r2, #32
    2818:	f88d 2053 	strbmi.w	r2, [sp, #83]	; 0x53
    281c:	071a      	lsls	r2, r3, #28
    281e:	bf44      	itt	mi
    2820:	222b      	movmi	r2, #43	; 0x2b
    2822:	f88d 2053 	strbmi.w	r2, [sp, #83]	; 0x53
    2826:	782a      	ldrb	r2, [r5, #0]
    2828:	2a2a      	cmp	r2, #42	; 0x2a
    282a:	f43f af7e 	beq.w	272a <_vfiprintf_r+0x66>
    282e:	9a07      	ldr	r2, [sp, #28]
    2830:	2100      	movs	r1, #0
    2832:	200a      	movs	r0, #10
    2834:	46a8      	mov	r8, r5
    2836:	f898 3000 	ldrb.w	r3, [r8]
    283a:	3501      	adds	r5, #1
    283c:	3b30      	subs	r3, #48	; 0x30
    283e:	2b09      	cmp	r3, #9
    2840:	d803      	bhi.n	284a <_vfiprintf_r+0x186>
    2842:	fb00 3202 	mla	r2, r0, r2, r3
    2846:	2101      	movs	r1, #1
    2848:	e7f4      	b.n	2834 <_vfiprintf_r+0x170>
    284a:	2900      	cmp	r1, #0
    284c:	f43f af79 	beq.w	2742 <_vfiprintf_r+0x7e>
    2850:	9207      	str	r2, [sp, #28]
    2852:	e776      	b.n	2742 <_vfiprintf_r+0x7e>
    2854:	f898 3001 	ldrb.w	r3, [r8, #1]
    2858:	2b2a      	cmp	r3, #42	; 0x2a
    285a:	d10b      	bne.n	2874 <_vfiprintf_r+0x1b0>
    285c:	9b03      	ldr	r3, [sp, #12]
    285e:	f108 0802 	add.w	r8, r8, #2
    2862:	1d1a      	adds	r2, r3, #4
    2864:	681b      	ldr	r3, [r3, #0]
    2866:	9203      	str	r2, [sp, #12]
    2868:	2b00      	cmp	r3, #0
    286a:	bfb8      	it	lt
    286c:	f04f 33ff 	movlt.w	r3, #4294967295
    2870:	9305      	str	r3, [sp, #20]
    2872:	e76b      	b.n	274c <_vfiprintf_r+0x88>
    2874:	2300      	movs	r3, #0
    2876:	4619      	mov	r1, r3
    2878:	9305      	str	r3, [sp, #20]
    287a:	f108 0001 	add.w	r0, r8, #1
    287e:	250a      	movs	r5, #10
    2880:	4680      	mov	r8, r0
    2882:	f898 2000 	ldrb.w	r2, [r8]
    2886:	3001      	adds	r0, #1
    2888:	3a30      	subs	r2, #48	; 0x30
    288a:	2a09      	cmp	r2, #9
    288c:	d803      	bhi.n	2896 <_vfiprintf_r+0x1d2>
    288e:	fb05 2101 	mla	r1, r5, r1, r2
    2892:	2301      	movs	r3, #1
    2894:	e7f4      	b.n	2880 <_vfiprintf_r+0x1bc>
    2896:	2b00      	cmp	r3, #0
    2898:	f43f af58 	beq.w	274c <_vfiprintf_r+0x88>
    289c:	9105      	str	r1, [sp, #20]
    289e:	e755      	b.n	274c <_vfiprintf_r+0x88>
    28a0:	ab03      	add	r3, sp, #12
    28a2:	9300      	str	r3, [sp, #0]
    28a4:	4622      	mov	r2, r4
    28a6:	4b14      	ldr	r3, [pc, #80]	; (28f8 <_vfiprintf_r+0x234>)
    28a8:	a904      	add	r1, sp, #16
    28aa:	4630      	mov	r0, r6
    28ac:	f000 f8b8 	bl	2a20 <_printf_float>
    28b0:	e007      	b.n	28c2 <_vfiprintf_r+0x1fe>
    28b2:	ab03      	add	r3, sp, #12
    28b4:	9300      	str	r3, [sp, #0]
    28b6:	4622      	mov	r2, r4
    28b8:	4b0f      	ldr	r3, [pc, #60]	; (28f8 <_vfiprintf_r+0x234>)
    28ba:	a904      	add	r1, sp, #16
    28bc:	4630      	mov	r0, r6
    28be:	f000 fb69 	bl	2f94 <_printf_i>
    28c2:	f1b0 3fff 	cmp.w	r0, #4294967295
    28c6:	4682      	mov	r10, r0
    28c8:	f47f af68 	bne.w	279c <_vfiprintf_r+0xd8>
    28cc:	89a3      	ldrh	r3, [r4, #12]
    28ce:	065b      	lsls	r3, r3, #25
    28d0:	f53f af28 	bmi.w	2724 <_vfiprintf_r+0x60>
    28d4:	9809      	ldr	r0, [sp, #36]	; 0x24
    28d6:	b01d      	add	sp, #116	; 0x74
    28d8:	e8bd 8ff0 	ldmia.w	sp!, {r4, r5, r6, r7, r8, r9, r10, r11, pc}
    28dc:	000084ec 	.word	0x000084ec
    28e0:	0000850c 	.word	0x0000850c
    28e4:	0000852c 	.word	0x0000852c
    28e8:	00008556 	.word	0x00008556
    28ec:	0000855a 	.word	0x0000855a
    28f0:	00002a21 	.word	0x00002a21
    28f4:	00008550 	.word	0x00008550
    28f8:	000026a1 	.word	0x000026a1

000028fc <__cvt>:
    28fc:	e92d 47f0 	stmdb	sp!, {r4, r5, r6, r7, r8, r9, r10, lr}
    2900:	b088      	sub	sp, #32
    2902:	9f14      	ldr	r7, [sp, #80]	; 0x50
    2904:	2b00      	cmp	r3, #0
    2906:	461e      	mov	r6, r3
    2908:	9912      	ldr	r1, [sp, #72]	; 0x48
    290a:	bfb8      	it	lt
    290c:	f103 4300 	addlt.w	r3, r3, #2147483648	; 0x80000000
    2910:	f027 0720 	bic.w	r7, r7, #32
    2914:	bfb6      	itet	lt
    2916:	461e      	movlt	r6, r3
    2918:	2300      	movge	r3, #0
    291a:	232d      	movlt	r3, #45	; 0x2d
    291c:	2f46      	cmp	r7, #70	; 0x46
    291e:	4614      	mov	r4, r2
    2920:	9d10      	ldr	r5, [sp, #64]	; 0x40
    2922:	f8dd a04c 	ldr.w	r10, [sp, #76]	; 0x4c
    2926:	700b      	strb	r3, [r1, #0]
    2928:	d003      	beq.n	2932 <__cvt+0x36>
    292a:	2f45      	cmp	r7, #69	; 0x45
    292c:	d103      	bne.n	2936 <__cvt+0x3a>
    292e:	3501      	adds	r5, #1
    2930:	e001      	b.n	2936 <__cvt+0x3a>
    2932:	2303      	movs	r3, #3
    2934:	e000      	b.n	2938 <__cvt+0x3c>
    2936:	2302      	movs	r3, #2
    2938:	aa07      	add	r2, sp, #28
    293a:	9204      	str	r2, [sp, #16]
    293c:	aa06      	add	r2, sp, #24
    293e:	9203      	str	r2, [sp, #12]
    2940:	e88d 0428 	stmia.w	sp, {r3, r5, r10}
    2944:	4622      	mov	r2, r4
    2946:	4633      	mov	r3, r6
    2948:	f002 fa86 	bl	4e58 <_dtoa_r>
    294c:	2f47      	cmp	r7, #71	; 0x47
    294e:	4680      	mov	r8, r0
    2950:	d102      	bne.n	2958 <__cvt+0x5c>
    2952:	9b11      	ldr	r3, [sp, #68]	; 0x44
    2954:	07db      	lsls	r3, r3, #31
    2956:	d528      	bpl.n	29aa <__cvt+0xae>
    2958:	2f46      	cmp	r7, #70	; 0x46
    295a:	eb08 0905 	add.w	r9, r8, r5
    295e:	d111      	bne.n	2984 <__cvt+0x88>
    2960:	f898 3000 	ldrb.w	r3, [r8]
    2964:	2b30      	cmp	r3, #48	; 0x30
    2966:	d10a      	bne.n	297e <__cvt+0x82>
    2968:	2200      	movs	r2, #0
    296a:	2300      	movs	r3, #0
    296c:	4620      	mov	r0, r4
    296e:	4631      	mov	r1, r6
    2970:	f004 ff3a 	bl	77e8 <__aeabi_dcmpeq>
    2974:	b918      	cbnz	r0, 297e <__cvt+0x82>
    2976:	f1c5 0501 	rsb	r5, r5, #1
    297a:	f8ca 5000 	str.w	r5, [r10]
    297e:	f8da 3000 	ldr.w	r3, [r10]
    2982:	4499      	add	r9, r3
    2984:	2200      	movs	r2, #0
    2986:	2300      	movs	r3, #0
    2988:	4620      	mov	r0, r4
    298a:	4631      	mov	r1, r6
    298c:	f004 ff2c 	bl	77e8 <__aeabi_dcmpeq>
    2990:	b908      	cbnz	r0, 2996 <__cvt+0x9a>
    2992:	2230      	movs	r2, #48	; 0x30
    2994:	e002      	b.n	299c <__cvt+0xa0>
    2996:	f8cd 901c 	str.w	r9, [sp, #28]
    299a:	e006      	b.n	29aa <__cvt+0xae>
    299c:	9b07      	ldr	r3, [sp, #28]
    299e:	4599      	cmp	r9, r3
    29a0:	d903      	bls.n	29aa <__cvt+0xae>
    29a2:	1c59      	adds	r1, r3, #1
    29a4:	9107      	str	r1, [sp, #28]
    29a6:	701a      	strb	r2, [r3, #0]
    29a8:	e7f8      	b.n	299c <__cvt+0xa0>
    29aa:	4640      	mov	r0, r8
    29ac:	9b07      	ldr	r3, [sp, #28]
    29ae:	9a15      	ldr	r2, [sp, #84]	; 0x54
    29b0:	ebc8 0303 	rsb	r3, r8, r3
    29b4:	6013      	str	r3, [r2, #0]
    29b6:	b008      	add	sp, #32
    29b8:	e8bd 87f0 	ldmia.w	sp!, {r4, r5, r6, r7, r8, r9, r10, pc}

000029bc <__exponent>:
    29bc:	4603      	mov	r3, r0
    29be:	b573      	push	{r0, r1, r4, r5, r6, lr}
    29c0:	2900      	cmp	r1, #0
    29c2:	bfb8      	it	lt
    29c4:	4249      	neglt	r1, r1
    29c6:	f803 2b02 	strb.w	r2, [r3], #2
    29ca:	bfb4      	ite	lt
    29cc:	222d      	movlt	r2, #45	; 0x2d
    29ce:	222b      	movge	r2, #43	; 0x2b
    29d0:	2909      	cmp	r1, #9
    29d2:	7042      	strb	r2, [r0, #1]
    29d4:	dd1a      	ble.n	2a0c <__exponent+0x50>
    29d6:	f10d 0207 	add.w	r2, sp, #7
    29da:	4616      	mov	r6, r2
    29dc:	250a      	movs	r5, #10
    29de:	fb91 f4f5 	sdiv	r4, r1, r5
    29e2:	fb05 1114 	mls	r1, r5, r4, r1
    29e6:	2c09      	cmp	r4, #9
    29e8:	f101 0130 	add.w	r1, r1, #48	; 0x30
    29ec:	f802 1d01 	strb.w	r1, [r2, #-1]!
    29f0:	4621      	mov	r1, r4
    29f2:	dcf4      	bgt.n	29de <__exponent+0x22>
    29f4:	3130      	adds	r1, #48	; 0x30
    29f6:	1e54      	subs	r4, r2, #1
    29f8:	f802 1c01 	strb.w	r1, [r2, #-1]
    29fc:	42b4      	cmp	r4, r6
    29fe:	461a      	mov	r2, r3
    2a00:	d20a      	bcs.n	2a18 <__exponent+0x5c>
    2a02:	f814 2b01 	ldrb.w	r2, [r4], #1
    2a06:	f803 2b01 	strb.w	r2, [r3], #1
    2a0a:	e7f7      	b.n	29fc <__exponent+0x40>
    2a0c:	461a      	mov	r2, r3
    2a0e:	2430      	movs	r4, #48	; 0x30
    2a10:	4421      	add	r1, r4
    2a12:	f802 4b02 	strb.w	r4, [r2], #2
    2a16:	7059      	strb	r1, [r3, #1]
    2a18:	1a10      	subs	r0, r2, r0
    2a1a:	b002      	add	sp, #8
    2a1c:	bd70      	pop	{r4, r5, r6, pc}
	...

00002a20 <_printf_float>:
    2a20:	e92d 4ff0 	stmdb	sp!, {r4, r5, r6, r7, r8, r9, r10, r11, lr}
    2a24:	b091      	sub	sp, #68	; 0x44
    2a26:	460c      	mov	r4, r1
    2a28:	f8dd 8068 	ldr.w	r8, [sp, #104]	; 0x68
    2a2c:	4616      	mov	r6, r2
    2a2e:	461f      	mov	r7, r3
    2a30:	4605      	mov	r5, r0
    2a32:	f003 fb3d 	bl	60b0 <_localeconv_r>
    2a36:	6803      	ldr	r3, [r0, #0]
    2a38:	4618      	mov	r0, r3
    2a3a:	9309      	str	r3, [sp, #36]	; 0x24
    2a3c:	f001 f8f1 	bl	3c22 <strlen>
    2a40:	2300      	movs	r3, #0
    2a42:	930e      	str	r3, [sp, #56]	; 0x38
    2a44:	f8d8 3000 	ldr.w	r3, [r8]
    2a48:	900a      	str	r0, [sp, #40]	; 0x28
    2a4a:	3307      	adds	r3, #7
    2a4c:	f023 0307 	bic.w	r3, r3, #7
    2a50:	f103 0208 	add.w	r2, r3, #8
    2a54:	f894 9018 	ldrb.w	r9, [r4, #24]
    2a58:	f8d4 b000 	ldr.w	r11, [r4]
    2a5c:	f8c8 2000 	str.w	r2, [r8]
    2a60:	e9d3 2300 	ldrd	r2, r3, [r3]
    2a64:	e9c4 2312 	strd	r2, r3, [r4, #72]	; 0x48
    2a68:	f8d4 a04c 	ldr.w	r10, [r4, #76]	; 0x4c
    2a6c:	f8d4 8048 	ldr.w	r8, [r4, #72]	; 0x48
    2a70:	f02a 4300 	bic.w	r3, r10, #2147483648	; 0x80000000
    2a74:	930b      	str	r3, [sp, #44]	; 0x2c
    2a76:	f04f 32ff 	mov.w	r2, #4294967295
    2a7a:	4ba7      	ldr	r3, [pc, #668]	; (2d18 <_printf_float+0x2f8>)
    2a7c:	4640      	mov	r0, r8
    2a7e:	990b      	ldr	r1, [sp, #44]	; 0x2c
    2a80:	f004 fee4 	bl	784c <__aeabi_dcmpun>
    2a84:	b9a0      	cbnz	r0, 2ab0 <_printf_float+0x90>
    2a86:	f04f 32ff 	mov.w	r2, #4294967295
    2a8a:	4ba3      	ldr	r3, [pc, #652]	; (2d18 <_printf_float+0x2f8>)
    2a8c:	4640      	mov	r0, r8
    2a8e:	990b      	ldr	r1, [sp, #44]	; 0x2c
    2a90:	f004 febe 	bl	7810 <__aeabi_dcmple>
    2a94:	b960      	cbnz	r0, 2ab0 <_printf_float+0x90>
    2a96:	2200      	movs	r2, #0
    2a98:	2300      	movs	r3, #0
    2a9a:	4640      	mov	r0, r8
    2a9c:	4651      	mov	r1, r10
    2a9e:	f004 fead 	bl	77fc <__aeabi_dcmplt>
    2aa2:	b110      	cbz	r0, 2aaa <_printf_float+0x8a>
    2aa4:	232d      	movs	r3, #45	; 0x2d
    2aa6:	f884 3043 	strb.w	r3, [r4, #67]	; 0x43
    2aaa:	4b9c      	ldr	r3, [pc, #624]	; (2d1c <_printf_float+0x2fc>)
    2aac:	4a9c      	ldr	r2, [pc, #624]	; (2d20 <_printf_float+0x300>)
    2aae:	e00a      	b.n	2ac6 <_printf_float+0xa6>
    2ab0:	4642      	mov	r2, r8
    2ab2:	4653      	mov	r3, r10
    2ab4:	4640      	mov	r0, r8
    2ab6:	4651      	mov	r1, r10
    2ab8:	f004 fec8 	bl	784c <__aeabi_dcmpun>
    2abc:	2800      	cmp	r0, #0
    2abe:	f000 8192 	beq.w	2de6 <_printf_float+0x3c6>
    2ac2:	4b98      	ldr	r3, [pc, #608]	; (2d24 <_printf_float+0x304>)
    2ac4:	4a98      	ldr	r2, [pc, #608]	; (2d28 <_printf_float+0x308>)
    2ac6:	f1b9 0f47 	cmp.w	r9, #71	; 0x47
    2aca:	bf8c      	ite	hi
    2acc:	4690      	movhi	r8, r2
    2ace:	4698      	movls	r8, r3
    2ad0:	2303      	movs	r3, #3
    2ad2:	6123      	str	r3, [r4, #16]
    2ad4:	f02b 0304 	bic.w	r3, r11, #4
    2ad8:	6023      	str	r3, [r4, #0]
    2ada:	f04f 0a00 	mov.w	r10, #0
    2ade:	e03d      	b.n	2b5c <_printf_float+0x13c>
    2ae0:	f1b9 0f67 	cmp.w	r9, #103	; 0x67
    2ae4:	f000 818a 	beq.w	2dfc <_printf_float+0x3dc>
    2ae8:	f1b9 0f47 	cmp.w	r9, #71	; 0x47
    2aec:	f000 8186 	beq.w	2dfc <_printf_float+0x3dc>
    2af0:	6023      	str	r3, [r4, #0]
    2af2:	9301      	str	r3, [sp, #4]
    2af4:	6863      	ldr	r3, [r4, #4]
    2af6:	2100      	movs	r1, #0
    2af8:	f10d 0233 	add.w	r2, sp, #51	; 0x33
    2afc:	9005      	str	r0, [sp, #20]
    2afe:	9202      	str	r2, [sp, #8]
    2b00:	9300      	str	r3, [sp, #0]
    2b02:	4642      	mov	r2, r8
    2b04:	4653      	mov	r3, r10
    2b06:	9106      	str	r1, [sp, #24]
    2b08:	f8cd 9010 	str.w	r9, [sp, #16]
    2b0c:	f8cd e00c 	str.w	lr, [sp, #12]
    2b10:	4628      	mov	r0, r5
    2b12:	f7ff fef3 	bl	28fc <__cvt>
    2b16:	f009 03df 	and.w	r3, r9, #223	; 0xdf
    2b1a:	2b47      	cmp	r3, #71	; 0x47
    2b1c:	4680      	mov	r8, r0
    2b1e:	f000 8184 	beq.w	2e2a <_printf_float+0x40a>
    2b22:	f1b9 0f65 	cmp.w	r9, #101	; 0x65
    2b26:	990d      	ldr	r1, [sp, #52]	; 0x34
    2b28:	f200 818d 	bhi.w	2e46 <_printf_float+0x426>
    2b2c:	3901      	subs	r1, #1
    2b2e:	464a      	mov	r2, r9
    2b30:	f104 0050 	add.w	r0, r4, #80	; 0x50
    2b34:	910d      	str	r1, [sp, #52]	; 0x34
    2b36:	f7ff ff41 	bl	29bc <__exponent>
    2b3a:	9a0e      	ldr	r2, [sp, #56]	; 0x38
    2b3c:	4682      	mov	r10, r0
    2b3e:	1883      	adds	r3, r0, r2
    2b40:	2a01      	cmp	r2, #1
    2b42:	6123      	str	r3, [r4, #16]
    2b44:	f300 817c 	bgt.w	2e40 <_printf_float+0x420>
    2b48:	6822      	ldr	r2, [r4, #0]
    2b4a:	07d1      	lsls	r1, r2, #31
    2b4c:	f100 8178 	bmi.w	2e40 <_printf_float+0x420>
    2b50:	f89d 3033 	ldrb.w	r3, [sp, #51]	; 0x33
    2b54:	b113      	cbz	r3, 2b5c <_printf_float+0x13c>
    2b56:	232d      	movs	r3, #45	; 0x2d
    2b58:	f884 3043 	strb.w	r3, [r4, #67]	; 0x43
    2b5c:	9700      	str	r7, [sp, #0]
    2b5e:	4633      	mov	r3, r6
    2b60:	aa0f      	add	r2, sp, #60	; 0x3c
    2b62:	4621      	mov	r1, r4
    2b64:	4628      	mov	r0, r5
    2b66:	f000 f99f 	bl	2ea8 <_printf_common>
    2b6a:	3001      	adds	r0, #1
    2b6c:	d102      	bne.n	2b74 <_printf_float+0x154>
    2b6e:	f04f 30ff 	mov.w	r0, #4294967295
    2b72:	e196      	b.n	2ea2 <_printf_float+0x482>
    2b74:	6823      	ldr	r3, [r4, #0]
    2b76:	055a      	lsls	r2, r3, #21
    2b78:	d401      	bmi.n	2b7e <_printf_float+0x15e>
    2b7a:	6923      	ldr	r3, [r4, #16]
    2b7c:	e065      	b.n	2c4a <_printf_float+0x22a>
    2b7e:	f1b9 0f65 	cmp.w	r9, #101	; 0x65
    2b82:	f240 80d5 	bls.w	2d30 <_printf_float+0x310>
    2b86:	e9d4 0112 	ldrd	r0, r1, [r4, #72]	; 0x48
    2b8a:	2200      	movs	r2, #0
    2b8c:	2300      	movs	r3, #0
    2b8e:	f004 fe2b 	bl	77e8 <__aeabi_dcmpeq>
    2b92:	b378      	cbz	r0, 2bf4 <_printf_float+0x1d4>
    2b94:	2301      	movs	r3, #1
    2b96:	4a65      	ldr	r2, [pc, #404]	; (2d2c <_printf_float+0x30c>)
    2b98:	4631      	mov	r1, r6
    2b9a:	4628      	mov	r0, r5
    2b9c:	47b8      	blx	r7
    2b9e:	3001      	adds	r0, #1
    2ba0:	d0e5      	beq.n	2b6e <_printf_float+0x14e>
    2ba2:	9b0e      	ldr	r3, [sp, #56]	; 0x38
    2ba4:	9a0d      	ldr	r2, [sp, #52]	; 0x34
    2ba6:	429a      	cmp	r2, r3
    2ba8:	db0b      	blt.n	2bc2 <_printf_float+0x1a2>
    2baa:	6823      	ldr	r3, [r4, #0]
    2bac:	07d8      	lsls	r0, r3, #31
    2bae:	d408      	bmi.n	2bc2 <_printf_float+0x1a2>
    2bb0:	6823      	ldr	r3, [r4, #0]
    2bb2:	079b      	lsls	r3, r3, #30
    2bb4:	f140 8111 	bpl.w	2dda <_printf_float+0x3ba>
    2bb8:	f04f 0800 	mov.w	r8, #0
    2bbc:	f104 0919 	add.w	r9, r4, #25
    2bc0:	e106      	b.n	2dd0 <_printf_float+0x3b0>
    2bc2:	9b0a      	ldr	r3, [sp, #40]	; 0x28
    2bc4:	9a09      	ldr	r2, [sp, #36]	; 0x24
    2bc6:	4631      	mov	r1, r6
    2bc8:	4628      	mov	r0, r5
    2bca:	47b8      	blx	r7
    2bcc:	3001      	adds	r0, #1
    2bce:	d0ce      	beq.n	2b6e <_printf_float+0x14e>
    2bd0:	f04f 0800 	mov.w	r8, #0
    2bd4:	f104 091a 	add.w	r9, r4, #26
    2bd8:	9b0e      	ldr	r3, [sp, #56]	; 0x38
    2bda:	3b01      	subs	r3, #1
    2bdc:	4598      	cmp	r8, r3
    2bde:	dae7      	bge.n	2bb0 <_printf_float+0x190>
    2be0:	2301      	movs	r3, #1
    2be2:	464a      	mov	r2, r9
    2be4:	4631      	mov	r1, r6
    2be6:	4628      	mov	r0, r5
    2be8:	47b8      	blx	r7
    2bea:	3001      	adds	r0, #1
    2bec:	d0bf      	beq.n	2b6e <_printf_float+0x14e>
    2bee:	f108 0801 	add.w	r8, r8, #1
    2bf2:	e7f1      	b.n	2bd8 <_printf_float+0x1b8>
    2bf4:	9b0d      	ldr	r3, [sp, #52]	; 0x34
    2bf6:	2b00      	cmp	r3, #0
    2bf8:	dc29      	bgt.n	2c4e <_printf_float+0x22e>
    2bfa:	2301      	movs	r3, #1
    2bfc:	4a4b      	ldr	r2, [pc, #300]	; (2d2c <_printf_float+0x30c>)
    2bfe:	4631      	mov	r1, r6
    2c00:	4628      	mov	r0, r5
    2c02:	47b8      	blx	r7
    2c04:	3001      	adds	r0, #1
    2c06:	d0b2      	beq.n	2b6e <_printf_float+0x14e>
    2c08:	9b0d      	ldr	r3, [sp, #52]	; 0x34
    2c0a:	b923      	cbnz	r3, 2c16 <_printf_float+0x1f6>
    2c0c:	9b0e      	ldr	r3, [sp, #56]	; 0x38
    2c0e:	b913      	cbnz	r3, 2c16 <_printf_float+0x1f6>
    2c10:	6823      	ldr	r3, [r4, #0]
    2c12:	07d9      	lsls	r1, r3, #31
    2c14:	d5cc      	bpl.n	2bb0 <_printf_float+0x190>
    2c16:	9b0a      	ldr	r3, [sp, #40]	; 0x28
    2c18:	9a09      	ldr	r2, [sp, #36]	; 0x24
    2c1a:	4631      	mov	r1, r6
    2c1c:	4628      	mov	r0, r5
    2c1e:	47b8      	blx	r7
    2c20:	3001      	adds	r0, #1
    2c22:	d0a4      	beq.n	2b6e <_printf_float+0x14e>
    2c24:	f04f 0900 	mov.w	r9, #0
    2c28:	f104 0a1a 	add.w	r10, r4, #26
    2c2c:	9b0d      	ldr	r3, [sp, #52]	; 0x34
    2c2e:	425b      	negs	r3, r3
    2c30:	4599      	cmp	r9, r3
    2c32:	da09      	bge.n	2c48 <_printf_float+0x228>
    2c34:	2301      	movs	r3, #1
    2c36:	4652      	mov	r2, r10
    2c38:	4631      	mov	r1, r6
    2c3a:	4628      	mov	r0, r5
    2c3c:	47b8      	blx	r7
    2c3e:	3001      	adds	r0, #1
    2c40:	d095      	beq.n	2b6e <_printf_float+0x14e>
    2c42:	f109 0901 	add.w	r9, r9, #1
    2c46:	e7f1      	b.n	2c2c <_printf_float+0x20c>
    2c48:	9b0e      	ldr	r3, [sp, #56]	; 0x38
    2c4a:	4642      	mov	r2, r8
    2c4c:	e0a7      	b.n	2d9e <_printf_float+0x37e>
    2c4e:	9a0e      	ldr	r2, [sp, #56]	; 0x38
    2c50:	6da3      	ldr	r3, [r4, #88]	; 0x58
    2c52:	429a      	cmp	r2, r3
    2c54:	bfa8      	it	ge
    2c56:	461a      	movge	r2, r3
    2c58:	2a00      	cmp	r2, #0
    2c5a:	4691      	mov	r9, r2
    2c5c:	dc06      	bgt.n	2c6c <_printf_float+0x24c>
    2c5e:	f04f 0a00 	mov.w	r10, #0
    2c62:	ea29 79e9 	bic.w	r9, r9, r9, asr #31
    2c66:	f104 0b1a 	add.w	r11, r4, #26
    2c6a:	e011      	b.n	2c90 <_printf_float+0x270>
    2c6c:	4613      	mov	r3, r2
    2c6e:	4631      	mov	r1, r6
    2c70:	4642      	mov	r2, r8
    2c72:	4628      	mov	r0, r5
    2c74:	47b8      	blx	r7
    2c76:	3001      	adds	r0, #1
    2c78:	d1f1      	bne.n	2c5e <_printf_float+0x23e>
    2c7a:	e778      	b.n	2b6e <_printf_float+0x14e>
    2c7c:	2301      	movs	r3, #1
    2c7e:	465a      	mov	r2, r11
    2c80:	4631      	mov	r1, r6
    2c82:	4628      	mov	r0, r5
    2c84:	47b8      	blx	r7
    2c86:	3001      	adds	r0, #1
    2c88:	f43f af71 	beq.w	2b6e <_printf_float+0x14e>
    2c8c:	f10a 0a01 	add.w	r10, r10, #1
    2c90:	6da3      	ldr	r3, [r4, #88]	; 0x58
    2c92:	ebc9 0203 	rsb	r2, r9, r3
    2c96:	4592      	cmp	r10, r2
    2c98:	dbf0      	blt.n	2c7c <_printf_float+0x25c>
    2c9a:	eb08 0903 	add.w	r9, r8, r3
    2c9e:	9a0d      	ldr	r2, [sp, #52]	; 0x34
    2ca0:	9b0e      	ldr	r3, [sp, #56]	; 0x38
    2ca2:	429a      	cmp	r2, r3
    2ca4:	db0f      	blt.n	2cc6 <_printf_float+0x2a6>
    2ca6:	6823      	ldr	r3, [r4, #0]
    2ca8:	07da      	lsls	r2, r3, #31
    2caa:	d40c      	bmi.n	2cc6 <_printf_float+0x2a6>
    2cac:	9b0e      	ldr	r3, [sp, #56]	; 0x38
    2cae:	9a0d      	ldr	r2, [sp, #52]	; 0x34
    2cb0:	4498      	add	r8, r3
    2cb2:	ebc9 0808 	rsb	r8, r9, r8
    2cb6:	1a9b      	subs	r3, r3, r2
    2cb8:	4598      	cmp	r8, r3
    2cba:	bfa8      	it	ge
    2cbc:	4698      	movge	r8, r3
    2cbe:	f1b8 0f00 	cmp.w	r8, #0
    2cc2:	dc08      	bgt.n	2cd6 <_printf_float+0x2b6>
    2cc4:	e00f      	b.n	2ce6 <_printf_float+0x2c6>
    2cc6:	9b0a      	ldr	r3, [sp, #40]	; 0x28
    2cc8:	9a09      	ldr	r2, [sp, #36]	; 0x24
    2cca:	4631      	mov	r1, r6
    2ccc:	4628      	mov	r0, r5
    2cce:	47b8      	blx	r7
    2cd0:	3001      	adds	r0, #1
    2cd2:	d1eb      	bne.n	2cac <_printf_float+0x28c>
    2cd4:	e74b      	b.n	2b6e <_printf_float+0x14e>
    2cd6:	4643      	mov	r3, r8
    2cd8:	464a      	mov	r2, r9
    2cda:	4631      	mov	r1, r6
    2cdc:	4628      	mov	r0, r5
    2cde:	47b8      	blx	r7
    2ce0:	3001      	adds	r0, #1
    2ce2:	f43f af44 	beq.w	2b6e <_printf_float+0x14e>
    2ce6:	f04f 0900 	mov.w	r9, #0
    2cea:	ea28 78e8 	bic.w	r8, r8, r8, asr #31
    2cee:	f104 0a1a 	add.w	r10, r4, #26
    2cf2:	e009      	b.n	2d08 <_printf_float+0x2e8>
    2cf4:	2301      	movs	r3, #1
    2cf6:	4652      	mov	r2, r10
    2cf8:	4631      	mov	r1, r6
    2cfa:	4628      	mov	r0, r5
    2cfc:	47b8      	blx	r7
    2cfe:	3001      	adds	r0, #1
    2d00:	f43f af35 	beq.w	2b6e <_printf_float+0x14e>
    2d04:	f109 0901 	add.w	r9, r9, #1
    2d08:	9a0d      	ldr	r2, [sp, #52]	; 0x34
    2d0a:	9b0e      	ldr	r3, [sp, #56]	; 0x38
    2d0c:	1a9b      	subs	r3, r3, r2
    2d0e:	ebc8 0303 	rsb	r3, r8, r3
    2d12:	4599      	cmp	r9, r3
    2d14:	dbee      	blt.n	2cf4 <_printf_float+0x2d4>
    2d16:	e74b      	b.n	2bb0 <_printf_float+0x190>
    2d18:	7fefffff 	.word	0x7fefffff
    2d1c:	00008561 	.word	0x00008561
    2d20:	00008565 	.word	0x00008565
    2d24:	00008569 	.word	0x00008569
    2d28:	0000856d 	.word	0x0000856d
    2d2c:	000085ba 	.word	0x000085ba
    2d30:	9a0e      	ldr	r2, [sp, #56]	; 0x38
    2d32:	2a01      	cmp	r2, #1
    2d34:	dc01      	bgt.n	2d3a <_printf_float+0x31a>
    2d36:	07db      	lsls	r3, r3, #31
    2d38:	d538      	bpl.n	2dac <_printf_float+0x38c>
    2d3a:	2301      	movs	r3, #1
    2d3c:	4642      	mov	r2, r8
    2d3e:	4631      	mov	r1, r6
    2d40:	4628      	mov	r0, r5
    2d42:	47b8      	blx	r7
    2d44:	3001      	adds	r0, #1
    2d46:	f43f af12 	beq.w	2b6e <_printf_float+0x14e>
    2d4a:	9b0a      	ldr	r3, [sp, #40]	; 0x28
    2d4c:	9a09      	ldr	r2, [sp, #36]	; 0x24
    2d4e:	4631      	mov	r1, r6
    2d50:	4628      	mov	r0, r5
    2d52:	47b8      	blx	r7
    2d54:	3001      	adds	r0, #1
    2d56:	f43f af0a 	beq.w	2b6e <_printf_float+0x14e>
    2d5a:	e9d4 0112 	ldrd	r0, r1, [r4, #72]	; 0x48
    2d5e:	2200      	movs	r2, #0
    2d60:	2300      	movs	r3, #0
    2d62:	f004 fd41 	bl	77e8 <__aeabi_dcmpeq>
    2d66:	b120      	cbz	r0, 2d72 <_printf_float+0x352>
    2d68:	f04f 0800 	mov.w	r8, #0
    2d6c:	f104 091a 	add.w	r9, r4, #26
    2d70:	e00e      	b.n	2d90 <_printf_float+0x370>
    2d72:	9b0e      	ldr	r3, [sp, #56]	; 0x38
    2d74:	f108 0201 	add.w	r2, r8, #1
    2d78:	3b01      	subs	r3, #1
    2d7a:	e019      	b.n	2db0 <_printf_float+0x390>
    2d7c:	2301      	movs	r3, #1
    2d7e:	464a      	mov	r2, r9
    2d80:	4631      	mov	r1, r6
    2d82:	4628      	mov	r0, r5
    2d84:	47b8      	blx	r7
    2d86:	3001      	adds	r0, #1
    2d88:	f43f aef1 	beq.w	2b6e <_printf_float+0x14e>
    2d8c:	f108 0801 	add.w	r8, r8, #1
    2d90:	9b0e      	ldr	r3, [sp, #56]	; 0x38
    2d92:	3b01      	subs	r3, #1
    2d94:	4598      	cmp	r8, r3
    2d96:	dbf1      	blt.n	2d7c <_printf_float+0x35c>
    2d98:	4653      	mov	r3, r10
    2d9a:	f104 0250 	add.w	r2, r4, #80	; 0x50
    2d9e:	4631      	mov	r1, r6
    2da0:	4628      	mov	r0, r5
    2da2:	47b8      	blx	r7
    2da4:	3001      	adds	r0, #1
    2da6:	f47f af03 	bne.w	2bb0 <_printf_float+0x190>
    2daa:	e6e0      	b.n	2b6e <_printf_float+0x14e>
    2dac:	4642      	mov	r2, r8
    2dae:	2301      	movs	r3, #1
    2db0:	4631      	mov	r1, r6
    2db2:	4628      	mov	r0, r5
    2db4:	47b8      	blx	r7
    2db6:	3001      	adds	r0, #1
    2db8:	d1ee      	bne.n	2d98 <_printf_float+0x378>
    2dba:	e6d8      	b.n	2b6e <_printf_float+0x14e>
    2dbc:	2301      	movs	r3, #1
    2dbe:	464a      	mov	r2, r9
    2dc0:	4631      	mov	r1, r6
    2dc2:	4628      	mov	r0, r5
    2dc4:	47b8      	blx	r7
    2dc6:	3001      	adds	r0, #1
    2dc8:	f43f aed1 	beq.w	2b6e <_printf_float+0x14e>
    2dcc:	f108 0801 	add.w	r8, r8, #1
    2dd0:	68e3      	ldr	r3, [r4, #12]
    2dd2:	9a0f      	ldr	r2, [sp, #60]	; 0x3c
    2dd4:	1a9b      	subs	r3, r3, r2
    2dd6:	4598      	cmp	r8, r3
    2dd8:	dbf0      	blt.n	2dbc <_printf_float+0x39c>
    2dda:	68e0      	ldr	r0, [r4, #12]
    2ddc:	9b0f      	ldr	r3, [sp, #60]	; 0x3c
    2dde:	4298      	cmp	r0, r3
    2de0:	bfb8      	it	lt
    2de2:	4618      	movlt	r0, r3
    2de4:	e05d      	b.n	2ea2 <_printf_float+0x482>
    2de6:	6862      	ldr	r2, [r4, #4]
    2de8:	a80e      	add	r0, sp, #56	; 0x38
    2dea:	1c53      	adds	r3, r2, #1
    2dec:	f10d 0e34 	add.w	lr, sp, #52	; 0x34
    2df0:	f44b 6380 	orr.w	r3, r11, #1024	; 0x400
    2df4:	f47f ae74 	bne.w	2ae0 <_printf_float+0xc0>
    2df8:	2206      	movs	r2, #6
    2dfa:	e001      	b.n	2e00 <_printf_float+0x3e0>
    2dfc:	b912      	cbnz	r2, 2e04 <_printf_float+0x3e4>
    2dfe:	2201      	movs	r2, #1
    2e00:	6062      	str	r2, [r4, #4]
    2e02:	e675      	b.n	2af0 <_printf_float+0xd0>
    2e04:	2100      	movs	r1, #0
    2e06:	9106      	str	r1, [sp, #24]
    2e08:	f10d 0133 	add.w	r1, sp, #51	; 0x33
    2e0c:	e88d 000c 	stmia.w	sp, {r2, r3}
    2e10:	6023      	str	r3, [r4, #0]
    2e12:	9005      	str	r0, [sp, #20]
    2e14:	4642      	mov	r2, r8
    2e16:	f8cd 9010 	str.w	r9, [sp, #16]
    2e1a:	f8cd e00c 	str.w	lr, [sp, #12]
    2e1e:	9102      	str	r1, [sp, #8]
    2e20:	4653      	mov	r3, r10
    2e22:	4628      	mov	r0, r5
    2e24:	f7ff fd6a 	bl	28fc <__cvt>
    2e28:	4680      	mov	r8, r0
    2e2a:	9b0d      	ldr	r3, [sp, #52]	; 0x34
    2e2c:	1cd8      	adds	r0, r3, #3
    2e2e:	db02      	blt.n	2e36 <_printf_float+0x416>
    2e30:	6862      	ldr	r2, [r4, #4]
    2e32:	4293      	cmp	r3, r2
    2e34:	dd1d      	ble.n	2e72 <_printf_float+0x452>
    2e36:	f1a9 0902 	sub.w	r9, r9, #2
    2e3a:	fa5f f989 	uxtb.w	r9, r9
    2e3e:	e670      	b.n	2b22 <_printf_float+0x102>
    2e40:	3301      	adds	r3, #1
    2e42:	6123      	str	r3, [r4, #16]
    2e44:	e684      	b.n	2b50 <_printf_float+0x130>
    2e46:	f1b9 0f66 	cmp.w	r9, #102	; 0x66
    2e4a:	d114      	bne.n	2e76 <_printf_float+0x456>
    2e4c:	2900      	cmp	r1, #0
    2e4e:	6863      	ldr	r3, [r4, #4]
    2e50:	dd07      	ble.n	2e62 <_printf_float+0x442>
    2e52:	6121      	str	r1, [r4, #16]
    2e54:	b913      	cbnz	r3, 2e5c <_printf_float+0x43c>
    2e56:	6822      	ldr	r2, [r4, #0]
    2e58:	07d2      	lsls	r2, r2, #31
    2e5a:	d51d      	bpl.n	2e98 <_printf_float+0x478>
    2e5c:	3301      	adds	r3, #1
    2e5e:	440b      	add	r3, r1
    2e60:	e019      	b.n	2e96 <_printf_float+0x476>
    2e62:	b913      	cbnz	r3, 2e6a <_printf_float+0x44a>
    2e64:	6822      	ldr	r2, [r4, #0]
    2e66:	07d0      	lsls	r0, r2, #31
    2e68:	d501      	bpl.n	2e6e <_printf_float+0x44e>
    2e6a:	3302      	adds	r3, #2
    2e6c:	e013      	b.n	2e96 <_printf_float+0x476>
    2e6e:	2301      	movs	r3, #1
    2e70:	e011      	b.n	2e96 <_printf_float+0x476>
    2e72:	f04f 0967 	mov.w	r9, #103	; 0x67
    2e76:	9b0d      	ldr	r3, [sp, #52]	; 0x34
    2e78:	9a0e      	ldr	r2, [sp, #56]	; 0x38
    2e7a:	4293      	cmp	r3, r2
    2e7c:	db05      	blt.n	2e8a <_printf_float+0x46a>
    2e7e:	6822      	ldr	r2, [r4, #0]
    2e80:	6123      	str	r3, [r4, #16]
    2e82:	07d1      	lsls	r1, r2, #31
    2e84:	d508      	bpl.n	2e98 <_printf_float+0x478>
    2e86:	3301      	adds	r3, #1
    2e88:	e005      	b.n	2e96 <_printf_float+0x476>
    2e8a:	2b00      	cmp	r3, #0
    2e8c:	bfd4      	ite	le
    2e8e:	f1c3 0302 	rsble	r3, r3, #2
    2e92:	2301      	movgt	r3, #1
    2e94:	4413      	add	r3, r2
    2e96:	6123      	str	r3, [r4, #16]
    2e98:	9b0d      	ldr	r3, [sp, #52]	; 0x34
    2e9a:	f04f 0a00 	mov.w	r10, #0
    2e9e:	65a3      	str	r3, [r4, #88]	; 0x58
    2ea0:	e656      	b.n	2b50 <_printf_float+0x130>
    2ea2:	b011      	add	sp, #68	; 0x44
    2ea4:	e8bd 8ff0 	ldmia.w	sp!, {r4, r5, r6, r7, r8, r9, r10, r11, pc}

00002ea8 <_printf_common>:
    2ea8:	e92d 47f0 	stmdb	sp!, {r4, r5, r6, r7, r8, r9, r10, lr}
    2eac:	4691      	mov	r9, r2
    2eae:	461f      	mov	r7, r3
    2eb0:	690a      	ldr	r2, [r1, #16]
    2eb2:	688b      	ldr	r3, [r1, #8]
    2eb4:	4606      	mov	r6, r0
    2eb6:	4293      	cmp	r3, r2
    2eb8:	bfb8      	it	lt
    2eba:	4613      	movlt	r3, r2
    2ebc:	f8c9 3000 	str.w	r3, [r9]
    2ec0:	f891 2043 	ldrb.w	r2, [r1, #67]	; 0x43
    2ec4:	460c      	mov	r4, r1
    2ec6:	f8dd 8020 	ldr.w	r8, [sp, #32]
    2eca:	b112      	cbz	r2, 2ed2 <_printf_common+0x2a>
    2ecc:	3301      	adds	r3, #1
    2ece:	f8c9 3000 	str.w	r3, [r9]
    2ed2:	6823      	ldr	r3, [r4, #0]
    2ed4:	0699      	lsls	r1, r3, #26
    2ed6:	bf42      	ittt	mi
    2ed8:	f8d9 3000 	ldrmi.w	r3, [r9]
    2edc:	3302      	addmi	r3, #2
    2ede:	f8c9 3000 	strmi.w	r3, [r9]
    2ee2:	6825      	ldr	r5, [r4, #0]
    2ee4:	f015 0506 	ands.w	r5, r5, #6
    2ee8:	d110      	bne.n	2f0c <_printf_common+0x64>
    2eea:	f104 0a19 	add.w	r10, r4, #25
    2eee:	e007      	b.n	2f00 <_printf_common+0x58>
    2ef0:	2301      	movs	r3, #1
    2ef2:	4652      	mov	r2, r10
    2ef4:	4639      	mov	r1, r7
    2ef6:	4630      	mov	r0, r6
    2ef8:	47c0      	blx	r8
    2efa:	3001      	adds	r0, #1
    2efc:	d01a      	beq.n	2f34 <_printf_common+0x8c>
    2efe:	3501      	adds	r5, #1
    2f00:	68e3      	ldr	r3, [r4, #12]
    2f02:	f8d9 2000 	ldr.w	r2, [r9]
    2f06:	1a9b      	subs	r3, r3, r2
    2f08:	429d      	cmp	r5, r3
    2f0a:	dbf1      	blt.n	2ef0 <_printf_common+0x48>
    2f0c:	f894 3043 	ldrb.w	r3, [r4, #67]	; 0x43
    2f10:	6822      	ldr	r2, [r4, #0]
    2f12:	3300      	adds	r3, #0
    2f14:	bf18      	it	ne
    2f16:	2301      	movne	r3, #1
    2f18:	0692      	lsls	r2, r2, #26
    2f1a:	d50f      	bpl.n	2f3c <_printf_common+0x94>
    2f1c:	18e1      	adds	r1, r4, r3
    2f1e:	2030      	movs	r0, #48	; 0x30
    2f20:	f881 0043 	strb.w	r0, [r1, #67]	; 0x43
    2f24:	1c5a      	adds	r2, r3, #1
    2f26:	f894 1045 	ldrb.w	r1, [r4, #69]	; 0x45
    2f2a:	4422      	add	r2, r4
    2f2c:	3302      	adds	r3, #2
    2f2e:	f882 1043 	strb.w	r1, [r2, #67]	; 0x43
    2f32:	e003      	b.n	2f3c <_printf_common+0x94>
    2f34:	f04f 30ff 	mov.w	r0, #4294967295
    2f38:	e8bd 87f0 	ldmia.w	sp!, {r4, r5, r6, r7, r8, r9, r10, pc}
    2f3c:	f104 0243 	add.w	r2, r4, #67	; 0x43
    2f40:	4639      	mov	r1, r7
    2f42:	4630      	mov	r0, r6
    2f44:	47c0      	blx	r8
    2f46:	3001      	adds	r0, #1
    2f48:	d0f4      	beq.n	2f34 <_printf_common+0x8c>
    2f4a:	6822      	ldr	r2, [r4, #0]
    2f4c:	f8d9 5000 	ldr.w	r5, [r9]
    2f50:	68e3      	ldr	r3, [r4, #12]
    2f52:	f002 0206 	and.w	r2, r2, #6
    2f56:	2a04      	cmp	r2, #4
    2f58:	bf08      	it	eq
    2f5a:	1b5d      	subeq	r5, r3, r5
    2f5c:	6922      	ldr	r2, [r4, #16]
    2f5e:	68a3      	ldr	r3, [r4, #8]
    2f60:	bf0c      	ite	eq
    2f62:	ea25 75e5 	biceq.w	r5, r5, r5, asr #31
    2f66:	2500      	movne	r5, #0
    2f68:	4293      	cmp	r3, r2
    2f6a:	bfc4      	itt	gt
    2f6c:	1a9b      	subgt	r3, r3, r2
    2f6e:	18ed      	addgt	r5, r5, r3
    2f70:	f04f 0900 	mov.w	r9, #0
    2f74:	341a      	adds	r4, #26
    2f76:	454d      	cmp	r5, r9
    2f78:	d009      	beq.n	2f8e <_printf_common+0xe6>
    2f7a:	2301      	movs	r3, #1
    2f7c:	4622      	mov	r2, r4
    2f7e:	4639      	mov	r1, r7
    2f80:	4630      	mov	r0, r6
    2f82:	47c0      	blx	r8
    2f84:	3001      	adds	r0, #1
    2f86:	d0d5      	beq.n	2f34 <_printf_common+0x8c>
    2f88:	f109 0901 	add.w	r9, r9, #1
    2f8c:	e7f3      	b.n	2f76 <_printf_common+0xce>
    2f8e:	2000      	movs	r0, #0
    2f90:	e8bd 87f0 	ldmia.w	sp!, {r4, r5, r6, r7, r8, r9, r10, pc}

00002f94 <_printf_i>:
    2f94:	e92d 43f0 	stmdb	sp!, {r4, r5, r6, r7, r8, r9, lr}
    2f98:	4617      	mov	r7, r2
    2f9a:	7e0a      	ldrb	r2, [r1, #24]
    2f9c:	b085      	sub	sp, #20
    2f9e:	2a6e      	cmp	r2, #110	; 0x6e
    2fa0:	4698      	mov	r8, r3
    2fa2:	4606      	mov	r6, r0
    2fa4:	460c      	mov	r4, r1
    2fa6:	9b0c      	ldr	r3, [sp, #48]	; 0x30
    2fa8:	f101 0e43 	add.w	lr, r1, #67	; 0x43
    2fac:	f000 80ae 	beq.w	310c <_printf_i+0x178>
    2fb0:	d811      	bhi.n	2fd6 <_printf_i+0x42>
    2fb2:	2a63      	cmp	r2, #99	; 0x63
    2fb4:	d022      	beq.n	2ffc <_printf_i+0x68>
    2fb6:	d809      	bhi.n	2fcc <_printf_i+0x38>
    2fb8:	2a00      	cmp	r2, #0
    2fba:	f000 80bb 	beq.w	3134 <_printf_i+0x1a0>
    2fbe:	2a58      	cmp	r2, #88	; 0x58
    2fc0:	f040 80ca 	bne.w	3158 <_printf_i+0x1c4>
    2fc4:	f881 2045 	strb.w	r2, [r1, #69]	; 0x45
    2fc8:	4983      	ldr	r1, [pc, #524]	; (31d8 <_printf_i+0x244>)
    2fca:	e055      	b.n	3078 <_printf_i+0xe4>
    2fcc:	2a64      	cmp	r2, #100	; 0x64
    2fce:	d01e      	beq.n	300e <_printf_i+0x7a>
    2fd0:	2a69      	cmp	r2, #105	; 0x69
    2fd2:	d01c      	beq.n	300e <_printf_i+0x7a>
    2fd4:	e0c0      	b.n	3158 <_printf_i+0x1c4>
    2fd6:	2a73      	cmp	r2, #115	; 0x73
    2fd8:	f000 80b0 	beq.w	313c <_printf_i+0x1a8>
    2fdc:	d809      	bhi.n	2ff2 <_printf_i+0x5e>
    2fde:	2a6f      	cmp	r2, #111	; 0x6f
    2fe0:	d02e      	beq.n	3040 <_printf_i+0xac>
    2fe2:	2a70      	cmp	r2, #112	; 0x70
    2fe4:	f040 80b8 	bne.w	3158 <_printf_i+0x1c4>
    2fe8:	680a      	ldr	r2, [r1, #0]
    2fea:	f042 0220 	orr.w	r2, r2, #32
    2fee:	600a      	str	r2, [r1, #0]
    2ff0:	e03e      	b.n	3070 <_printf_i+0xdc>
    2ff2:	2a75      	cmp	r2, #117	; 0x75
    2ff4:	d024      	beq.n	3040 <_printf_i+0xac>
    2ff6:	2a78      	cmp	r2, #120	; 0x78
    2ff8:	d03a      	beq.n	3070 <_printf_i+0xdc>
    2ffa:	e0ad      	b.n	3158 <_printf_i+0x1c4>
    2ffc:	681a      	ldr	r2, [r3, #0]
    2ffe:	f101 0542 	add.w	r5, r1, #66	; 0x42
    3002:	1d11      	adds	r1, r2, #4
    3004:	6019      	str	r1, [r3, #0]
    3006:	6813      	ldr	r3, [r2, #0]
    3008:	f884 3042 	strb.w	r3, [r4, #66]	; 0x42
    300c:	e0a8      	b.n	3160 <_printf_i+0x1cc>
    300e:	6821      	ldr	r1, [r4, #0]
    3010:	681a      	ldr	r2, [r3, #0]
    3012:	f011 0f80 	tst.w	r1, #128	; 0x80
    3016:	d002      	beq.n	301e <_printf_i+0x8a>
    3018:	1d11      	adds	r1, r2, #4
    301a:	6019      	str	r1, [r3, #0]
    301c:	e008      	b.n	3030 <_printf_i+0x9c>
    301e:	f011 0f40 	tst.w	r1, #64	; 0x40
    3022:	f102 0104 	add.w	r1, r2, #4
    3026:	6019      	str	r1, [r3, #0]
    3028:	d002      	beq.n	3030 <_printf_i+0x9c>
    302a:	f9b2 3000 	ldrsh.w	r3, [r2]
    302e:	e000      	b.n	3032 <_printf_i+0x9e>
    3030:	6813      	ldr	r3, [r2, #0]
    3032:	2b00      	cmp	r3, #0
    3034:	da3c      	bge.n	30b0 <_printf_i+0x11c>
    3036:	222d      	movs	r2, #45	; 0x2d
    3038:	425b      	negs	r3, r3
    303a:	f884 2043 	strb.w	r2, [r4, #67]	; 0x43
    303e:	e037      	b.n	30b0 <_printf_i+0x11c>
    3040:	6821      	ldr	r1, [r4, #0]
    3042:	681a      	ldr	r2, [r3, #0]
    3044:	f011 0f80 	tst.w	r1, #128	; 0x80
    3048:	d002      	beq.n	3050 <_printf_i+0xbc>
    304a:	1d11      	adds	r1, r2, #4
    304c:	6019      	str	r1, [r3, #0]
    304e:	e007      	b.n	3060 <_printf_i+0xcc>
    3050:	f011 0f40 	tst.w	r1, #64	; 0x40
    3054:	f102 0104 	add.w	r1, r2, #4
    3058:	6019      	str	r1, [r3, #0]
    305a:	d001      	beq.n	3060 <_printf_i+0xcc>
    305c:	8813      	ldrh	r3, [r2, #0]
    305e:	e000      	b.n	3062 <_printf_i+0xce>
    3060:	6813      	ldr	r3, [r2, #0]
    3062:	7e22      	ldrb	r2, [r4, #24]
    3064:	495c      	ldr	r1, [pc, #368]	; (31d8 <_printf_i+0x244>)
    3066:	2a6f      	cmp	r2, #111	; 0x6f
    3068:	bf14      	ite	ne
    306a:	220a      	movne	r2, #10
    306c:	2208      	moveq	r2, #8
    306e:	e01b      	b.n	30a8 <_printf_i+0x114>
    3070:	2278      	movs	r2, #120	; 0x78
    3072:	495a      	ldr	r1, [pc, #360]	; (31dc <_printf_i+0x248>)
    3074:	f884 2045 	strb.w	r2, [r4, #69]	; 0x45
    3078:	6822      	ldr	r2, [r4, #0]
    307a:	6818      	ldr	r0, [r3, #0]
    307c:	f012 0f80 	tst.w	r2, #128	; 0x80
    3080:	f100 0504 	add.w	r5, r0, #4
    3084:	601d      	str	r5, [r3, #0]
    3086:	d103      	bne.n	3090 <_printf_i+0xfc>
    3088:	0655      	lsls	r5, r2, #25
    308a:	d501      	bpl.n	3090 <_printf_i+0xfc>
    308c:	8803      	ldrh	r3, [r0, #0]
    308e:	e000      	b.n	3092 <_printf_i+0xfe>
    3090:	6803      	ldr	r3, [r0, #0]
    3092:	07d0      	lsls	r0, r2, #31
    3094:	bf44      	itt	mi
    3096:	f042 0220 	orrmi.w	r2, r2, #32
    309a:	6022      	strmi	r2, [r4, #0]
    309c:	b91b      	cbnz	r3, 30a6 <_printf_i+0x112>
    309e:	6822      	ldr	r2, [r4, #0]
    30a0:	f022 0220 	bic.w	r2, r2, #32
    30a4:	6022      	str	r2, [r4, #0]
    30a6:	2210      	movs	r2, #16
    30a8:	2000      	movs	r0, #0
    30aa:	f884 0043 	strb.w	r0, [r4, #67]	; 0x43
    30ae:	e001      	b.n	30b4 <_printf_i+0x120>
    30b0:	4949      	ldr	r1, [pc, #292]	; (31d8 <_printf_i+0x244>)
    30b2:	220a      	movs	r2, #10
    30b4:	6865      	ldr	r5, [r4, #4]
    30b6:	2d00      	cmp	r5, #0
    30b8:	60a5      	str	r5, [r4, #8]
    30ba:	db08      	blt.n	30ce <_printf_i+0x13a>
    30bc:	6820      	ldr	r0, [r4, #0]
    30be:	f020 0004 	bic.w	r0, r0, #4
    30c2:	6020      	str	r0, [r4, #0]
    30c4:	b92b      	cbnz	r3, 30d2 <_printf_i+0x13e>
    30c6:	2d00      	cmp	r5, #0
    30c8:	d17d      	bne.n	31c6 <_printf_i+0x232>
    30ca:	4675      	mov	r5, lr
    30cc:	e00c      	b.n	30e8 <_printf_i+0x154>
    30ce:	2b00      	cmp	r3, #0
    30d0:	d079      	beq.n	31c6 <_printf_i+0x232>
    30d2:	4675      	mov	r5, lr
    30d4:	fbb3 f0f2 	udiv	r0, r3, r2
    30d8:	fb02 3310 	mls	r3, r2, r0, r3
    30dc:	5ccb      	ldrb	r3, [r1, r3]
    30de:	f805 3d01 	strb.w	r3, [r5, #-1]!
    30e2:	4603      	mov	r3, r0
    30e4:	2800      	cmp	r0, #0
    30e6:	d1f5      	bne.n	30d4 <_printf_i+0x140>
    30e8:	2a08      	cmp	r2, #8
    30ea:	d10b      	bne.n	3104 <_printf_i+0x170>
    30ec:	6823      	ldr	r3, [r4, #0]
    30ee:	07da      	lsls	r2, r3, #31
    30f0:	d508      	bpl.n	3104 <_printf_i+0x170>
    30f2:	6923      	ldr	r3, [r4, #16]
    30f4:	6862      	ldr	r2, [r4, #4]
    30f6:	429a      	cmp	r2, r3
    30f8:	bfde      	ittt	le
    30fa:	2330      	movle	r3, #48	; 0x30
    30fc:	f805 3c01 	strble.w	r3, [r5, #-1]
    3100:	f105 35ff 	addle.w	r5, r5, #4294967295
    3104:	ebc5 030e 	rsb	r3, r5, lr
    3108:	6123      	str	r3, [r4, #16]
    310a:	e02e      	b.n	316a <_printf_i+0x1d6>
    310c:	6808      	ldr	r0, [r1, #0]
    310e:	681a      	ldr	r2, [r3, #0]
    3110:	f010 0f80 	tst.w	r0, #128	; 0x80
    3114:	6949      	ldr	r1, [r1, #20]
    3116:	d003      	beq.n	3120 <_printf_i+0x18c>
    3118:	1d10      	adds	r0, r2, #4
    311a:	6018      	str	r0, [r3, #0]
    311c:	6813      	ldr	r3, [r2, #0]
    311e:	e008      	b.n	3132 <_printf_i+0x19e>
    3120:	f010 0f40 	tst.w	r0, #64	; 0x40
    3124:	f102 0004 	add.w	r0, r2, #4
    3128:	6018      	str	r0, [r3, #0]
    312a:	6813      	ldr	r3, [r2, #0]
    312c:	d001      	beq.n	3132 <_printf_i+0x19e>
    312e:	8019      	strh	r1, [r3, #0]
    3130:	e000      	b.n	3134 <_printf_i+0x1a0>
    3132:	6019      	str	r1, [r3, #0]
    3134:	2300      	movs	r3, #0
    3136:	6123      	str	r3, [r4, #16]
    3138:	4675      	mov	r5, lr
    313a:	e016      	b.n	316a <_printf_i+0x1d6>
    313c:	681a      	ldr	r2, [r3, #0]
    313e:	1d11      	adds	r1, r2, #4
    3140:	6019      	str	r1, [r3, #0]
    3142:	6815      	ldr	r5, [r2, #0]
    3144:	2100      	movs	r1, #0
    3146:	6862      	ldr	r2, [r4, #4]
    3148:	4628      	mov	r0, r5
    314a:	f7ff f9ad 	bl	24a8 <memchr>
    314e:	b108      	cbz	r0, 3154 <_printf_i+0x1c0>
    3150:	1b40      	subs	r0, r0, r5
    3152:	6060      	str	r0, [r4, #4]
    3154:	6863      	ldr	r3, [r4, #4]
    3156:	e004      	b.n	3162 <_printf_i+0x1ce>
    3158:	f104 0542 	add.w	r5, r4, #66	; 0x42
    315c:	f884 2042 	strb.w	r2, [r4, #66]	; 0x42
    3160:	2301      	movs	r3, #1
    3162:	6123      	str	r3, [r4, #16]
    3164:	2300      	movs	r3, #0
    3166:	f884 3043 	strb.w	r3, [r4, #67]	; 0x43
    316a:	f8cd 8000 	str.w	r8, [sp]
    316e:	463b      	mov	r3, r7
    3170:	aa03      	add	r2, sp, #12
    3172:	4621      	mov	r1, r4
    3174:	4630      	mov	r0, r6
    3176:	f7ff fe97 	bl	2ea8 <_printf_common>
    317a:	3001      	adds	r0, #1
    317c:	d102      	bne.n	3184 <_printf_i+0x1f0>
    317e:	f04f 30ff 	mov.w	r0, #4294967295
    3182:	e026      	b.n	31d2 <_printf_i+0x23e>
    3184:	6923      	ldr	r3, [r4, #16]
    3186:	462a      	mov	r2, r5
    3188:	4639      	mov	r1, r7
    318a:	4630      	mov	r0, r6
    318c:	47c0      	blx	r8
    318e:	3001      	adds	r0, #1
    3190:	d0f5      	beq.n	317e <_printf_i+0x1ea>
    3192:	6823      	ldr	r3, [r4, #0]
    3194:	079b      	lsls	r3, r3, #30
    3196:	d510      	bpl.n	31ba <_printf_i+0x226>
    3198:	2500      	movs	r5, #0
    319a:	f104 0919 	add.w	r9, r4, #25
    319e:	e007      	b.n	31b0 <_printf_i+0x21c>
    31a0:	2301      	movs	r3, #1
    31a2:	464a      	mov	r2, r9
    31a4:	4639      	mov	r1, r7
    31a6:	4630      	mov	r0, r6
    31a8:	47c0      	blx	r8
    31aa:	3001      	adds	r0, #1
    31ac:	d0e7      	beq.n	317e <_printf_i+0x1ea>
    31ae:	3501      	adds	r5, #1
    31b0:	68e3      	ldr	r3, [r4, #12]
    31b2:	9a03      	ldr	r2, [sp, #12]
    31b4:	1a9b      	subs	r3, r3, r2
    31b6:	429d      	cmp	r5, r3
    31b8:	dbf2      	blt.n	31a0 <_printf_i+0x20c>
    31ba:	68e0      	ldr	r0, [r4, #12]
    31bc:	9b03      	ldr	r3, [sp, #12]
    31be:	4298      	cmp	r0, r3
    31c0:	bfb8      	it	lt
    31c2:	4618      	movlt	r0, r3
    31c4:	e005      	b.n	31d2 <_printf_i+0x23e>
    31c6:	780b      	ldrb	r3, [r1, #0]
    31c8:	f104 0542 	add.w	r5, r4, #66	; 0x42
    31cc:	f884 3042 	strb.w	r3, [r4, #66]	; 0x42
    31d0:	e78a      	b.n	30e8 <_printf_i+0x154>
    31d2:	b005      	add	sp, #20
    31d4:	e8bd 83f0 	ldmia.w	sp!, {r4, r5, r6, r7, r8, r9, pc}
    31d8:	00008571 	.word	0x00008571
    31dc:	00008582 	.word	0x00008582

000031e0 <_scanf_float>:
    31e0:	e92d 4ff0 	stmdb	sp!, {r4, r5, r6, r7, r8, r9, r10, r11, lr}
    31e4:	469a      	mov	r10, r3
    31e6:	688b      	ldr	r3, [r1, #8]
    31e8:	4616      	mov	r6, r2
    31ea:	1e5a      	subs	r2, r3, #1
    31ec:	f5b2 7fae 	cmp.w	r2, #348	; 0x15c
    31f0:	bf88      	it	hi
    31f2:	f46f 72ae 	mvnhi.w	r2, #348	; 0x15c
    31f6:	b087      	sub	sp, #28
    31f8:	bf82      	ittt	hi
    31fa:	189b      	addhi	r3, r3, r2
    31fc:	9301      	strhi	r3, [sp, #4]
    31fe:	f240 135d 	movwhi	r3, #349	; 0x15d
    3202:	4688      	mov	r8, r1
    3204:	bf96      	itet	ls
    3206:	2300      	movls	r3, #0
    3208:	608b      	strhi	r3, [r1, #8]
    320a:	9301      	strls	r3, [sp, #4]
    320c:	680b      	ldr	r3, [r1, #0]
    320e:	f04f 0b00 	mov.w	r11, #0
    3212:	f443 63f0 	orr.w	r3, r3, #1920	; 0x780
    3216:	f848 3b1c 	str.w	r3, [r8], #28
    321a:	4607      	mov	r7, r0
    321c:	460c      	mov	r4, r1
    321e:	4645      	mov	r5, r8
    3220:	465a      	mov	r2, r11
    3222:	46d9      	mov	r9, r11
    3224:	f8cd b010 	str.w	r11, [sp, #16]
    3228:	f8cd b00c 	str.w	r11, [sp, #12]
    322c:	f8cd b008 	str.w	r11, [sp, #8]
    3230:	68a1      	ldr	r1, [r4, #8]
    3232:	2900      	cmp	r1, #0
    3234:	f000 80e5 	beq.w	3402 <_scanf_float+0x222>
    3238:	6833      	ldr	r3, [r6, #0]
    323a:	781b      	ldrb	r3, [r3, #0]
    323c:	2b49      	cmp	r3, #73	; 0x49
    323e:	d070      	beq.n	3322 <_scanf_float+0x142>
    3240:	d816      	bhi.n	3270 <_scanf_float+0x90>
    3242:	2b39      	cmp	r3, #57	; 0x39
    3244:	d80d      	bhi.n	3262 <_scanf_float+0x82>
    3246:	2b31      	cmp	r3, #49	; 0x31
    3248:	d240      	bcs.n	32cc <_scanf_float+0xec>
    324a:	2b2d      	cmp	r3, #45	; 0x2d
    324c:	d046      	beq.n	32dc <_scanf_float+0xfc>
    324e:	d802      	bhi.n	3256 <_scanf_float+0x76>
    3250:	2b2b      	cmp	r3, #43	; 0x2b
    3252:	d043      	beq.n	32dc <_scanf_float+0xfc>
    3254:	e0d5      	b.n	3402 <_scanf_float+0x222>
    3256:	2b2e      	cmp	r3, #46	; 0x2e
    3258:	f000 8092 	beq.w	3380 <_scanf_float+0x1a0>
    325c:	2b30      	cmp	r3, #48	; 0x30
    325e:	d023      	beq.n	32a8 <_scanf_float+0xc8>
    3260:	e0cf      	b.n	3402 <_scanf_float+0x222>
    3262:	2b45      	cmp	r3, #69	; 0x45
    3264:	f000 8095 	beq.w	3392 <_scanf_float+0x1b2>
    3268:	2b46      	cmp	r3, #70	; 0x46
    326a:	d077      	beq.n	335c <_scanf_float+0x17c>
    326c:	2b41      	cmp	r3, #65	; 0x41
    326e:	e00c      	b.n	328a <_scanf_float+0xaa>
    3270:	2b65      	cmp	r3, #101	; 0x65
    3272:	f000 808e 	beq.w	3392 <_scanf_float+0x1b2>
    3276:	d80a      	bhi.n	328e <_scanf_float+0xae>
    3278:	2b54      	cmp	r3, #84	; 0x54
    327a:	d075      	beq.n	3368 <_scanf_float+0x188>
    327c:	d802      	bhi.n	3284 <_scanf_float+0xa4>
    327e:	2b4e      	cmp	r3, #78	; 0x4e
    3280:	d034      	beq.n	32ec <_scanf_float+0x10c>
    3282:	e0be      	b.n	3402 <_scanf_float+0x222>
    3284:	2b59      	cmp	r3, #89	; 0x59
    3286:	d075      	beq.n	3374 <_scanf_float+0x194>
    3288:	2b61      	cmp	r3, #97	; 0x61
    328a:	d046      	beq.n	331a <_scanf_float+0x13a>
    328c:	e0b9      	b.n	3402 <_scanf_float+0x222>
    328e:	2b6e      	cmp	r3, #110	; 0x6e
    3290:	d02c      	beq.n	32ec <_scanf_float+0x10c>
    3292:	d804      	bhi.n	329e <_scanf_float+0xbe>
    3294:	2b66      	cmp	r3, #102	; 0x66
    3296:	d061      	beq.n	335c <_scanf_float+0x17c>
    3298:	2b69      	cmp	r3, #105	; 0x69
    329a:	d042      	beq.n	3322 <_scanf_float+0x142>
    329c:	e0b1      	b.n	3402 <_scanf_float+0x222>
    329e:	2b74      	cmp	r3, #116	; 0x74
    32a0:	d062      	beq.n	3368 <_scanf_float+0x188>
    32a2:	2b79      	cmp	r3, #121	; 0x79
    32a4:	d066      	beq.n	3374 <_scanf_float+0x194>
    32a6:	e0ac      	b.n	3402 <_scanf_float+0x222>
    32a8:	6820      	ldr	r0, [r4, #0]
    32aa:	f410 7f80 	tst.w	r0, #256	; 0x100
    32ae:	d00d      	beq.n	32cc <_scanf_float+0xec>
    32b0:	9b01      	ldr	r3, [sp, #4]
    32b2:	f020 0080 	bic.w	r0, r0, #128	; 0x80
    32b6:	6020      	str	r0, [r4, #0]
    32b8:	f109 0901 	add.w	r9, r9, #1
    32bc:	2b00      	cmp	r3, #0
    32be:	f000 8087 	beq.w	33d0 <_scanf_float+0x1f0>
    32c2:	3b01      	subs	r3, #1
    32c4:	3101      	adds	r1, #1
    32c6:	9301      	str	r3, [sp, #4]
    32c8:	60a1      	str	r1, [r4, #8]
    32ca:	e081      	b.n	33d0 <_scanf_float+0x1f0>
    32cc:	eb12 0f0b 	cmn.w	r2, r11
    32d0:	f040 8097 	bne.w	3402 <_scanf_float+0x222>
    32d4:	6821      	ldr	r1, [r4, #0]
    32d6:	f421 71c0 	bic.w	r1, r1, #384	; 0x180
    32da:	e005      	b.n	32e8 <_scanf_float+0x108>
    32dc:	6821      	ldr	r1, [r4, #0]
    32de:	0608      	lsls	r0, r1, #24
    32e0:	f140 808f 	bpl.w	3402 <_scanf_float+0x222>
    32e4:	f021 0180 	bic.w	r1, r1, #128	; 0x80
    32e8:	6021      	str	r1, [r4, #0]
    32ea:	e06f      	b.n	33cc <_scanf_float+0x1ec>
    32ec:	b96a      	cbnz	r2, 330a <_scanf_float+0x12a>
    32ee:	f1b9 0f00 	cmp.w	r9, #0
    32f2:	d10c      	bne.n	330e <_scanf_float+0x12e>
    32f4:	6821      	ldr	r1, [r4, #0]
    32f6:	f401 60e0 	and.w	r0, r1, #1792	; 0x700
    32fa:	f5b0 6fe0 	cmp.w	r0, #1792	; 0x700
    32fe:	d106      	bne.n	330e <_scanf_float+0x12e>
    3300:	f421 61f0 	bic.w	r1, r1, #1920	; 0x780
    3304:	6021      	str	r1, [r4, #0]
    3306:	2201      	movs	r2, #1
    3308:	e060      	b.n	33cc <_scanf_float+0x1ec>
    330a:	2a02      	cmp	r2, #2
    330c:	d05d      	beq.n	33ca <_scanf_float+0x1ea>
    330e:	f1bb 0f01 	cmp.w	r11, #1
    3312:	d01e      	beq.n	3352 <_scanf_float+0x172>
    3314:	f1bb 0f04 	cmp.w	r11, #4
    3318:	e01a      	b.n	3350 <_scanf_float+0x170>
    331a:	2a01      	cmp	r2, #1
    331c:	d171      	bne.n	3402 <_scanf_float+0x222>
    331e:	2202      	movs	r2, #2
    3320:	e054      	b.n	33cc <_scanf_float+0x1ec>
    3322:	f1bb 0f00 	cmp.w	r11, #0
    3326:	d10e      	bne.n	3346 <_scanf_float+0x166>
    3328:	f1b9 0f00 	cmp.w	r9, #0
    332c:	d16c      	bne.n	3408 <_scanf_float+0x228>
    332e:	6821      	ldr	r1, [r4, #0]
    3330:	f401 60e0 	and.w	r0, r1, #1792	; 0x700
    3334:	f5b0 6fe0 	cmp.w	r0, #1792	; 0x700
    3338:	d16a      	bne.n	3410 <_scanf_float+0x230>
    333a:	f421 61f0 	bic.w	r1, r1, #1920	; 0x780
    333e:	6021      	str	r1, [r4, #0]
    3340:	f04f 0b01 	mov.w	r11, #1
    3344:	e042      	b.n	33cc <_scanf_float+0x1ec>
    3346:	f1bb 0f03 	cmp.w	r11, #3
    334a:	d002      	beq.n	3352 <_scanf_float+0x172>
    334c:	f1bb 0f05 	cmp.w	r11, #5
    3350:	d157      	bne.n	3402 <_scanf_float+0x222>
    3352:	f10b 0b01 	add.w	r11, r11, #1
    3356:	fa5f fb8b 	uxtb.w	r11, r11
    335a:	e037      	b.n	33cc <_scanf_float+0x1ec>
    335c:	f1bb 0f02 	cmp.w	r11, #2
    3360:	d14f      	bne.n	3402 <_scanf_float+0x222>
    3362:	f04f 0b03 	mov.w	r11, #3
    3366:	e031      	b.n	33cc <_scanf_float+0x1ec>
    3368:	f1bb 0f06 	cmp.w	r11, #6
    336c:	d149      	bne.n	3402 <_scanf_float+0x222>
    336e:	f04f 0b07 	mov.w	r11, #7
    3372:	e02b      	b.n	33cc <_scanf_float+0x1ec>
    3374:	f1bb 0f07 	cmp.w	r11, #7
    3378:	d143      	bne.n	3402 <_scanf_float+0x222>
    337a:	f04f 0b08 	mov.w	r11, #8
    337e:	e025      	b.n	33cc <_scanf_float+0x1ec>
    3380:	6821      	ldr	r1, [r4, #0]
    3382:	0588      	lsls	r0, r1, #22
    3384:	d53d      	bpl.n	3402 <_scanf_float+0x222>
    3386:	f421 7120 	bic.w	r1, r1, #640	; 0x280
    338a:	6021      	str	r1, [r4, #0]
    338c:	f8cd 9008 	str.w	r9, [sp, #8]
    3390:	e01c      	b.n	33cc <_scanf_float+0x1ec>
    3392:	6821      	ldr	r1, [r4, #0]
    3394:	f401 60a0 	and.w	r0, r1, #1280	; 0x500
    3398:	f5b0 6f80 	cmp.w	r0, #1024	; 0x400
    339c:	d004      	beq.n	33a8 <_scanf_float+0x1c8>
    339e:	0548      	lsls	r0, r1, #21
    33a0:	d52f      	bpl.n	3402 <_scanf_float+0x222>
    33a2:	f1b9 0f00 	cmp.w	r9, #0
    33a6:	d033      	beq.n	3410 <_scanf_float+0x230>
    33a8:	0588      	lsls	r0, r1, #22
    33aa:	bf58      	it	pl
    33ac:	9802      	ldrpl	r0, [sp, #8]
    33ae:	f421 61f0 	bic.w	r1, r1, #1920	; 0x780
    33b2:	bf58      	it	pl
    33b4:	ebc0 0009 	rsbpl	r0, r0, r9
    33b8:	f441 71c0 	orr.w	r1, r1, #384	; 0x180
    33bc:	bf5c      	itt	pl
    33be:	9003      	strpl	r0, [sp, #12]
    33c0:	9504      	strpl	r5, [sp, #16]
    33c2:	6021      	str	r1, [r4, #0]
    33c4:	f04f 0900 	mov.w	r9, #0
    33c8:	e000      	b.n	33cc <_scanf_float+0x1ec>
    33ca:	2203      	movs	r2, #3
    33cc:	702b      	strb	r3, [r5, #0]
    33ce:	3501      	adds	r5, #1
    33d0:	68a3      	ldr	r3, [r4, #8]
    33d2:	3b01      	subs	r3, #1
    33d4:	60a3      	str	r3, [r4, #8]
    33d6:	6923      	ldr	r3, [r4, #16]
    33d8:	3301      	adds	r3, #1
    33da:	6123      	str	r3, [r4, #16]
    33dc:	6873      	ldr	r3, [r6, #4]
    33de:	3b01      	subs	r3, #1
    33e0:	2b00      	cmp	r3, #0
    33e2:	6073      	str	r3, [r6, #4]
    33e4:	dd03      	ble.n	33ee <_scanf_float+0x20e>
    33e6:	6833      	ldr	r3, [r6, #0]
    33e8:	3301      	adds	r3, #1
    33ea:	6033      	str	r3, [r6, #0]
    33ec:	e720      	b.n	3230 <_scanf_float+0x50>
    33ee:	f8d4 3180 	ldr.w	r3, [r4, #384]	; 0x180
    33f2:	4631      	mov	r1, r6
    33f4:	4638      	mov	r0, r7
    33f6:	9205      	str	r2, [sp, #20]
    33f8:	4798      	blx	r3
    33fa:	9a05      	ldr	r2, [sp, #20]
    33fc:	2800      	cmp	r0, #0
    33fe:	f43f af17 	beq.w	3230 <_scanf_float+0x50>
    3402:	f1b9 0f00 	cmp.w	r9, #0
    3406:	d003      	beq.n	3410 <_scanf_float+0x230>
    3408:	6823      	ldr	r3, [r4, #0]
    340a:	f423 7380 	bic.w	r3, r3, #256	; 0x100
    340e:	6023      	str	r3, [r4, #0]
    3410:	3a01      	subs	r2, #1
    3412:	2a01      	cmp	r2, #1
    3414:	d80e      	bhi.n	3434 <_scanf_float+0x254>
    3416:	4545      	cmp	r5, r8
    3418:	d90a      	bls.n	3430 <_scanf_float+0x250>
    341a:	f8d4 317c 	ldr.w	r3, [r4, #380]	; 0x17c
    341e:	4632      	mov	r2, r6
    3420:	f815 1d01 	ldrb.w	r1, [r5, #-1]!
    3424:	4638      	mov	r0, r7
    3426:	4798      	blx	r3
    3428:	6923      	ldr	r3, [r4, #16]
    342a:	3b01      	subs	r3, #1
    342c:	6123      	str	r3, [r4, #16]
    342e:	e7f2      	b.n	3416 <_scanf_float+0x236>
    3430:	2601      	movs	r6, #1
    3432:	e0ad      	b.n	3590 <_scanf_float+0x3b0>
    3434:	f10b 33ff 	add.w	r3, r11, #4294967295
    3438:	2b06      	cmp	r3, #6
    343a:	d822      	bhi.n	3482 <_scanf_float+0x2a2>
    343c:	f1bb 0f02 	cmp.w	r11, #2
    3440:	d912      	bls.n	3468 <_scanf_float+0x288>
    3442:	f1ab 0b03 	sub.w	r11, r11, #3
    3446:	fa5f fb8b 	uxtb.w	r11, r11
    344a:	ebcb 0b05 	rsb	r11, r11, r5
    344e:	455d      	cmp	r5, r11
    3450:	d017      	beq.n	3482 <_scanf_float+0x2a2>
    3452:	f8d4 317c 	ldr.w	r3, [r4, #380]	; 0x17c
    3456:	4632      	mov	r2, r6
    3458:	f815 1d01 	ldrb.w	r1, [r5, #-1]!
    345c:	4638      	mov	r0, r7
    345e:	4798      	blx	r3
    3460:	6923      	ldr	r3, [r4, #16]
    3462:	3b01      	subs	r3, #1
    3464:	6123      	str	r3, [r4, #16]
    3466:	e7f2      	b.n	344e <_scanf_float+0x26e>
    3468:	4545      	cmp	r5, r8
    346a:	d9e1      	bls.n	3430 <_scanf_float+0x250>
    346c:	f8d4 317c 	ldr.w	r3, [r4, #380]	; 0x17c
    3470:	4632      	mov	r2, r6
    3472:	f815 1d01 	ldrb.w	r1, [r5, #-1]!
    3476:	4638      	mov	r0, r7
    3478:	4798      	blx	r3
    347a:	6923      	ldr	r3, [r4, #16]
    347c:	3b01      	subs	r3, #1
    347e:	6123      	str	r3, [r4, #16]
    3480:	e7f2      	b.n	3468 <_scanf_float+0x288>
    3482:	6823      	ldr	r3, [r4, #0]
    3484:	05da      	lsls	r2, r3, #23
    3486:	d52c      	bpl.n	34e2 <_scanf_float+0x302>
    3488:	055b      	lsls	r3, r3, #21
    348a:	d50c      	bpl.n	34a6 <_scanf_float+0x2c6>
    348c:	4545      	cmp	r5, r8
    348e:	d9cf      	bls.n	3430 <_scanf_float+0x250>
    3490:	f8d4 317c 	ldr.w	r3, [r4, #380]	; 0x17c
    3494:	4632      	mov	r2, r6
    3496:	f815 1d01 	ldrb.w	r1, [r5, #-1]!
    349a:	4638      	mov	r0, r7
    349c:	4798      	blx	r3
    349e:	6923      	ldr	r3, [r4, #16]
    34a0:	3b01      	subs	r3, #1
    34a2:	6123      	str	r3, [r4, #16]
    34a4:	e7f2      	b.n	348c <_scanf_float+0x2ac>
    34a6:	f815 1c01 	ldrb.w	r1, [r5, #-1]
    34aa:	6923      	ldr	r3, [r4, #16]
    34ac:	2965      	cmp	r1, #101	; 0x65
    34ae:	f103 33ff 	add.w	r3, r3, #4294967295
    34b2:	f105 3bff 	add.w	r11, r5, #4294967295
    34b6:	6123      	str	r3, [r4, #16]
    34b8:	d00d      	beq.n	34d6 <_scanf_float+0x2f6>
    34ba:	2945      	cmp	r1, #69	; 0x45
    34bc:	d00b      	beq.n	34d6 <_scanf_float+0x2f6>
    34be:	f8d4 317c 	ldr.w	r3, [r4, #380]	; 0x17c
    34c2:	4632      	mov	r2, r6
    34c4:	4638      	mov	r0, r7
    34c6:	4798      	blx	r3
    34c8:	6923      	ldr	r3, [r4, #16]
    34ca:	f815 1c02 	ldrb.w	r1, [r5, #-2]
    34ce:	3b01      	subs	r3, #1
    34d0:	f1a5 0b02 	sub.w	r11, r5, #2
    34d4:	6123      	str	r3, [r4, #16]
    34d6:	f8d4 317c 	ldr.w	r3, [r4, #380]	; 0x17c
    34da:	4632      	mov	r2, r6
    34dc:	4638      	mov	r0, r7
    34de:	4798      	blx	r3
    34e0:	465d      	mov	r5, r11
    34e2:	6826      	ldr	r6, [r4, #0]
    34e4:	f016 0610 	ands.w	r6, r6, #16
    34e8:	d151      	bne.n	358e <_scanf_float+0x3ae>
    34ea:	702e      	strb	r6, [r5, #0]
    34ec:	6823      	ldr	r3, [r4, #0]
    34ee:	f403 63c0 	and.w	r3, r3, #1536	; 0x600
    34f2:	f5b3 6f80 	cmp.w	r3, #1024	; 0x400
    34f6:	d105      	bne.n	3504 <_scanf_float+0x324>
    34f8:	9b02      	ldr	r3, [sp, #8]
    34fa:	ebc3 0309 	rsb	r3, r3, r9
    34fe:	425a      	negs	r2, r3
    3500:	b963      	cbnz	r3, 351c <_scanf_float+0x33c>
    3502:	e015      	b.n	3530 <_scanf_float+0x350>
    3504:	9b03      	ldr	r3, [sp, #12]
    3506:	b19b      	cbz	r3, 3530 <_scanf_float+0x350>
    3508:	9904      	ldr	r1, [sp, #16]
    350a:	230a      	movs	r3, #10
    350c:	4632      	mov	r2, r6
    350e:	3101      	adds	r1, #1
    3510:	4638      	mov	r0, r7
    3512:	f001 fa51 	bl	49b8 <_strtol_r>
    3516:	9b03      	ldr	r3, [sp, #12]
    3518:	9d04      	ldr	r5, [sp, #16]
    351a:	1ac2      	subs	r2, r0, r3
    351c:	f204 136f 	addw	r3, r4, #367	; 0x16f
    3520:	429d      	cmp	r5, r3
    3522:	bf28      	it	cs
    3524:	f504 75b7 	addcs.w	r5, r4, #366	; 0x16e
    3528:	491b      	ldr	r1, [pc, #108]	; (3598 <_scanf_float+0x3b8>)
    352a:	4628      	mov	r0, r5
    352c:	f000 fadc 	bl	3ae8 <siprintf>
    3530:	2200      	movs	r2, #0
    3532:	4641      	mov	r1, r8
    3534:	4638      	mov	r0, r7
    3536:	f001 f9a7 	bl	4888 <_strtod_r>
    353a:	6822      	ldr	r2, [r4, #0]
    353c:	4680      	mov	r8, r0
    353e:	f012 0f02 	tst.w	r2, #2
    3542:	4689      	mov	r9, r1
    3544:	f8da 3000 	ldr.w	r3, [r10]
    3548:	d003      	beq.n	3552 <_scanf_float+0x372>
    354a:	1d1a      	adds	r2, r3, #4
    354c:	f8ca 2000 	str.w	r2, [r10]
    3550:	e006      	b.n	3560 <_scanf_float+0x380>
    3552:	f012 0504 	ands.w	r5, r2, #4
    3556:	f103 0204 	add.w	r2, r3, #4
    355a:	f8ca 2000 	str.w	r2, [r10]
    355e:	d003      	beq.n	3568 <_scanf_float+0x388>
    3560:	681b      	ldr	r3, [r3, #0]
    3562:	e9c3 8900 	strd	r8, r9, [r3]
    3566:	e00e      	b.n	3586 <_scanf_float+0x3a6>
    3568:	681f      	ldr	r7, [r3, #0]
    356a:	4602      	mov	r2, r0
    356c:	460b      	mov	r3, r1
    356e:	f004 f96d 	bl	784c <__aeabi_dcmpun>
    3572:	b118      	cbz	r0, 357c <_scanf_float+0x39c>
    3574:	4628      	mov	r0, r5
    3576:	f000 fa6d 	bl	3a54 <nanf>
    357a:	e003      	b.n	3584 <_scanf_float+0x3a4>
    357c:	4640      	mov	r0, r8
    357e:	4649      	mov	r1, r9
    3580:	f004 f9c2 	bl	7908 <__aeabi_d2f>
    3584:	6038      	str	r0, [r7, #0]
    3586:	68e3      	ldr	r3, [r4, #12]
    3588:	3301      	adds	r3, #1
    358a:	60e3      	str	r3, [r4, #12]
    358c:	e000      	b.n	3590 <_scanf_float+0x3b0>
    358e:	2600      	movs	r6, #0
    3590:	4630      	mov	r0, r6
    3592:	b007      	add	sp, #28
    3594:	e8bd 8ff0 	ldmia.w	sp!, {r4, r5, r6, r7, r8, r9, r10, r11, pc}
    3598:	00008593 	.word	0x00008593

0000359c <_scanf_chars>:
    359c:	e92d 41f0 	stmdb	sp!, {r4, r5, r6, r7, r8, lr}
    35a0:	4615      	mov	r5, r2
    35a2:	688a      	ldr	r2, [r1, #8]
    35a4:	4680      	mov	r8, r0
    35a6:	460c      	mov	r4, r1
    35a8:	b932      	cbnz	r2, 35b8 <_scanf_chars+0x1c>
    35aa:	698a      	ldr	r2, [r1, #24]
    35ac:	2a00      	cmp	r2, #0
    35ae:	bf0c      	ite	eq
    35b0:	2201      	moveq	r2, #1
    35b2:	f04f 32ff 	movne.w	r2, #4294967295
    35b6:	608a      	str	r2, [r1, #8]
    35b8:	6822      	ldr	r2, [r4, #0]
    35ba:	2600      	movs	r6, #0
    35bc:	06d1      	lsls	r1, r2, #27
    35be:	bf5f      	itttt	pl
    35c0:	681a      	ldrpl	r2, [r3, #0]
    35c2:	1d11      	addpl	r1, r2, #4
    35c4:	6019      	strpl	r1, [r3, #0]
    35c6:	6817      	ldrpl	r7, [r2, #0]
    35c8:	69a3      	ldr	r3, [r4, #24]
    35ca:	b9fb      	cbnz	r3, 360c <_scanf_chars+0x70>
    35cc:	6823      	ldr	r3, [r4, #0]
    35ce:	3601      	adds	r6, #1
    35d0:	06da      	lsls	r2, r3, #27
    35d2:	bf5e      	ittt	pl
    35d4:	682b      	ldrpl	r3, [r5, #0]
    35d6:	781b      	ldrbpl	r3, [r3, #0]
    35d8:	703b      	strbpl	r3, [r7, #0]
    35da:	682a      	ldr	r2, [r5, #0]
    35dc:	686b      	ldr	r3, [r5, #4]
    35de:	f102 0201 	add.w	r2, r2, #1
    35e2:	602a      	str	r2, [r5, #0]
    35e4:	68a2      	ldr	r2, [r4, #8]
    35e6:	f103 33ff 	add.w	r3, r3, #4294967295
    35ea:	f102 32ff 	add.w	r2, r2, #4294967295
    35ee:	606b      	str	r3, [r5, #4]
    35f0:	bf58      	it	pl
    35f2:	3701      	addpl	r7, #1
    35f4:	60a2      	str	r2, [r4, #8]
    35f6:	b33a      	cbz	r2, 3648 <_scanf_chars+0xac>
    35f8:	2b00      	cmp	r3, #0
    35fa:	dce5      	bgt.n	35c8 <_scanf_chars+0x2c>
    35fc:	f8d4 3180 	ldr.w	r3, [r4, #384]	; 0x180
    3600:	4629      	mov	r1, r5
    3602:	4640      	mov	r0, r8
    3604:	4798      	blx	r3
    3606:	2800      	cmp	r0, #0
    3608:	d0de      	beq.n	35c8 <_scanf_chars+0x2c>
    360a:	e01d      	b.n	3648 <_scanf_chars+0xac>
    360c:	2b01      	cmp	r3, #1
    360e:	d106      	bne.n	361e <_scanf_chars+0x82>
    3610:	682b      	ldr	r3, [r5, #0]
    3612:	6962      	ldr	r2, [r4, #20]
    3614:	781b      	ldrb	r3, [r3, #0]
    3616:	5cd3      	ldrb	r3, [r2, r3]
    3618:	2b00      	cmp	r3, #0
    361a:	d1d7      	bne.n	35cc <_scanf_chars+0x30>
    361c:	e012      	b.n	3644 <_scanf_chars+0xa8>
    361e:	2b02      	cmp	r3, #2
    3620:	d001      	beq.n	3626 <_scanf_chars+0x8a>
    3622:	b14e      	cbz	r6, 3638 <_scanf_chars+0x9c>
    3624:	e010      	b.n	3648 <_scanf_chars+0xac>
    3626:	f002 fd37 	bl	6098 <__locale_ctype_ptr>
    362a:	682b      	ldr	r3, [r5, #0]
    362c:	781b      	ldrb	r3, [r3, #0]
    362e:	4418      	add	r0, r3
    3630:	7843      	ldrb	r3, [r0, #1]
    3632:	071b      	lsls	r3, r3, #28
    3634:	d5ca      	bpl.n	35cc <_scanf_chars+0x30>
    3636:	e7f4      	b.n	3622 <_scanf_chars+0x86>
    3638:	69a3      	ldr	r3, [r4, #24]
    363a:	2b01      	cmp	r3, #1
    363c:	d104      	bne.n	3648 <_scanf_chars+0xac>
    363e:	2001      	movs	r0, #1
    3640:	e8bd 81f0 	ldmia.w	sp!, {r4, r5, r6, r7, r8, pc}
    3644:	2e00      	cmp	r6, #0
    3646:	d0fa      	beq.n	363e <_scanf_chars+0xa2>
    3648:	6823      	ldr	r3, [r4, #0]
    364a:	f013 0310 	ands.w	r3, r3, #16
    364e:	d105      	bne.n	365c <_scanf_chars+0xc0>
    3650:	68e2      	ldr	r2, [r4, #12]
    3652:	3201      	adds	r2, #1
    3654:	60e2      	str	r2, [r4, #12]
    3656:	69a2      	ldr	r2, [r4, #24]
    3658:	b102      	cbz	r2, 365c <_scanf_chars+0xc0>
    365a:	703b      	strb	r3, [r7, #0]
    365c:	6923      	ldr	r3, [r4, #16]
    365e:	2000      	movs	r0, #0
    3660:	441e      	add	r6, r3
    3662:	6126      	str	r6, [r4, #16]
    3664:	e8bd 81f0 	ldmia.w	sp!, {r4, r5, r6, r7, r8, pc}

00003668 <_scanf_i>:
    3668:	e92d 4ff0 	stmdb	sp!, {r4, r5, r6, r7, r8, r9, r10, r11, lr}
    366c:	460c      	mov	r4, r1
    366e:	469a      	mov	r10, r3
    3670:	4b72      	ldr	r3, [pc, #456]	; (383c <_scanf_i+0x1d4>)
    3672:	b087      	sub	sp, #28
    3674:	4683      	mov	r11, r0
    3676:	4616      	mov	r6, r2
    3678:	e893 0007 	ldmia.w	r3, {r0, r1, r2}
    367c:	ab03      	add	r3, sp, #12
    367e:	68a7      	ldr	r7, [r4, #8]
    3680:	e883 0007 	stmia.w	r3, {r0, r1, r2}
    3684:	4b6e      	ldr	r3, [pc, #440]	; (3840 <_scanf_i+0x1d8>)
    3686:	69a1      	ldr	r1, [r4, #24]
    3688:	4a6e      	ldr	r2, [pc, #440]	; (3844 <_scanf_i+0x1dc>)
    368a:	f104 091c 	add.w	r9, r4, #28
    368e:	2903      	cmp	r1, #3
    3690:	bf18      	it	ne
    3692:	461a      	movne	r2, r3
    3694:	1e7b      	subs	r3, r7, #1
    3696:	f5b3 7fae 	cmp.w	r3, #348	; 0x15c
    369a:	bf84      	itt	hi
    369c:	f240 135d 	movwhi	r3, #349	; 0x15d
    36a0:	60a3      	strhi	r3, [r4, #8]
    36a2:	6823      	ldr	r3, [r4, #0]
    36a4:	bf88      	it	hi
    36a6:	f46f 75ae 	mvnhi.w	r5, #348	; 0x15c
    36aa:	f443 6350 	orr.w	r3, r3, #3328	; 0xd00
    36ae:	6023      	str	r3, [r4, #0]
    36b0:	464b      	mov	r3, r9
    36b2:	9200      	str	r2, [sp, #0]
    36b4:	bf8c      	ite	hi
    36b6:	197f      	addhi	r7, r7, r5
    36b8:	2700      	movls	r7, #0
    36ba:	f04f 0800 	mov.w	r8, #0
    36be:	6831      	ldr	r1, [r6, #0]
    36c0:	9301      	str	r3, [sp, #4]
    36c2:	ab03      	add	r3, sp, #12
    36c4:	f853 0028 	ldr.w	r0, [r3, r8, lsl #2]
    36c8:	2202      	movs	r2, #2
    36ca:	7809      	ldrb	r1, [r1, #0]
    36cc:	f7fe feec 	bl	24a8 <memchr>
    36d0:	9b01      	ldr	r3, [sp, #4]
    36d2:	2800      	cmp	r0, #0
    36d4:	d033      	beq.n	373e <_scanf_i+0xd6>
    36d6:	f1b8 0f01 	cmp.w	r8, #1
    36da:	d10b      	bne.n	36f4 <_scanf_i+0x8c>
    36dc:	6862      	ldr	r2, [r4, #4]
    36de:	b92a      	cbnz	r2, 36ec <_scanf_i+0x84>
    36e0:	2208      	movs	r2, #8
    36e2:	6062      	str	r2, [r4, #4]
    36e4:	6822      	ldr	r2, [r4, #0]
    36e6:	f442 7200 	orr.w	r2, r2, #512	; 0x200
    36ea:	6022      	str	r2, [r4, #0]
    36ec:	6822      	ldr	r2, [r4, #0]
    36ee:	f422 62a0 	bic.w	r2, r2, #1280	; 0x500
    36f2:	e00c      	b.n	370e <_scanf_i+0xa6>
    36f4:	f1b8 0f02 	cmp.w	r8, #2
    36f8:	d10a      	bne.n	3710 <_scanf_i+0xa8>
    36fa:	6822      	ldr	r2, [r4, #0]
    36fc:	f402 61c0 	and.w	r1, r2, #1536	; 0x600
    3700:	f5b1 7f00 	cmp.w	r1, #512	; 0x200
    3704:	d11b      	bne.n	373e <_scanf_i+0xd6>
    3706:	2110      	movs	r1, #16
    3708:	6061      	str	r1, [r4, #4]
    370a:	f442 7280 	orr.w	r2, r2, #256	; 0x100
    370e:	6022      	str	r2, [r4, #0]
    3710:	68a2      	ldr	r2, [r4, #8]
    3712:	1e51      	subs	r1, r2, #1
    3714:	60a1      	str	r1, [r4, #8]
    3716:	b192      	cbz	r2, 373e <_scanf_i+0xd6>
    3718:	6832      	ldr	r2, [r6, #0]
    371a:	1c5d      	adds	r5, r3, #1
    371c:	1c51      	adds	r1, r2, #1
    371e:	6031      	str	r1, [r6, #0]
    3720:	7812      	ldrb	r2, [r2, #0]
    3722:	701a      	strb	r2, [r3, #0]
    3724:	6873      	ldr	r3, [r6, #4]
    3726:	3b01      	subs	r3, #1
    3728:	2b00      	cmp	r3, #0
    372a:	6073      	str	r3, [r6, #4]
    372c:	dc06      	bgt.n	373c <_scanf_i+0xd4>
    372e:	f8d4 3180 	ldr.w	r3, [r4, #384]	; 0x180
    3732:	4631      	mov	r1, r6
    3734:	4658      	mov	r0, r11
    3736:	4798      	blx	r3
    3738:	2800      	cmp	r0, #0
    373a:	d141      	bne.n	37c0 <_scanf_i+0x158>
    373c:	462b      	mov	r3, r5
    373e:	f108 0801 	add.w	r8, r8, #1
    3742:	f1b8 0f03 	cmp.w	r8, #3
    3746:	d1ba      	bne.n	36be <_scanf_i+0x56>
    3748:	6862      	ldr	r2, [r4, #4]
    374a:	b90a      	cbnz	r2, 3750 <_scanf_i+0xe8>
    374c:	220a      	movs	r2, #10
    374e:	6062      	str	r2, [r4, #4]
    3750:	6862      	ldr	r2, [r4, #4]
    3752:	493d      	ldr	r1, [pc, #244]	; (3848 <_scanf_i+0x1e0>)
    3754:	6960      	ldr	r0, [r4, #20]
    3756:	1a89      	subs	r1, r1, r2
    3758:	9301      	str	r3, [sp, #4]
    375a:	f000 f899 	bl	3890 <__sccl>
    375e:	9b01      	ldr	r3, [sp, #4]
    3760:	f04f 0800 	mov.w	r8, #0
    3764:	461d      	mov	r5, r3
    3766:	68a3      	ldr	r3, [r4, #8]
    3768:	b363      	cbz	r3, 37c4 <_scanf_i+0x15c>
    376a:	6831      	ldr	r1, [r6, #0]
    376c:	6960      	ldr	r0, [r4, #20]
    376e:	780a      	ldrb	r2, [r1, #0]
    3770:	5c80      	ldrb	r0, [r0, r2]
    3772:	b338      	cbz	r0, 37c4 <_scanf_i+0x15c>
    3774:	2a30      	cmp	r2, #48	; 0x30
    3776:	6822      	ldr	r2, [r4, #0]
    3778:	d108      	bne.n	378c <_scanf_i+0x124>
    377a:	0510      	lsls	r0, r2, #20
    377c:	d506      	bpl.n	378c <_scanf_i+0x124>
    377e:	f108 0801 	add.w	r8, r8, #1
    3782:	b157      	cbz	r7, 379a <_scanf_i+0x132>
    3784:	3301      	adds	r3, #1
    3786:	3f01      	subs	r7, #1
    3788:	60a3      	str	r3, [r4, #8]
    378a:	e006      	b.n	379a <_scanf_i+0x132>
    378c:	f422 6210 	bic.w	r2, r2, #2304	; 0x900
    3790:	6022      	str	r2, [r4, #0]
    3792:	780b      	ldrb	r3, [r1, #0]
    3794:	3501      	adds	r5, #1
    3796:	f805 3c01 	strb.w	r3, [r5, #-1]
    379a:	6873      	ldr	r3, [r6, #4]
    379c:	3b01      	subs	r3, #1
    379e:	2b00      	cmp	r3, #0
    37a0:	6073      	str	r3, [r6, #4]
    37a2:	dd03      	ble.n	37ac <_scanf_i+0x144>
    37a4:	6833      	ldr	r3, [r6, #0]
    37a6:	3301      	adds	r3, #1
    37a8:	6033      	str	r3, [r6, #0]
    37aa:	e005      	b.n	37b8 <_scanf_i+0x150>
    37ac:	f8d4 3180 	ldr.w	r3, [r4, #384]	; 0x180
    37b0:	4631      	mov	r1, r6
    37b2:	4658      	mov	r0, r11
    37b4:	4798      	blx	r3
    37b6:	b928      	cbnz	r0, 37c4 <_scanf_i+0x15c>
    37b8:	68a3      	ldr	r3, [r4, #8]
    37ba:	3b01      	subs	r3, #1
    37bc:	60a3      	str	r3, [r4, #8]
    37be:	e7d2      	b.n	3766 <_scanf_i+0xfe>
    37c0:	f04f 0800 	mov.w	r8, #0
    37c4:	6823      	ldr	r3, [r4, #0]
    37c6:	05d9      	lsls	r1, r3, #23
    37c8:	d50c      	bpl.n	37e4 <_scanf_i+0x17c>
    37ca:	454d      	cmp	r5, r9
    37cc:	d908      	bls.n	37e0 <_scanf_i+0x178>
    37ce:	f815 1c01 	ldrb.w	r1, [r5, #-1]
    37d2:	1e6f      	subs	r7, r5, #1
    37d4:	f8d4 317c 	ldr.w	r3, [r4, #380]	; 0x17c
    37d8:	4632      	mov	r2, r6
    37da:	4658      	mov	r0, r11
    37dc:	4798      	blx	r3
    37de:	463d      	mov	r5, r7
    37e0:	454d      	cmp	r5, r9
    37e2:	d027      	beq.n	3834 <_scanf_i+0x1cc>
    37e4:	6822      	ldr	r2, [r4, #0]
    37e6:	f012 0210 	ands.w	r2, r2, #16
    37ea:	d11b      	bne.n	3824 <_scanf_i+0x1bc>
    37ec:	702a      	strb	r2, [r5, #0]
    37ee:	6863      	ldr	r3, [r4, #4]
    37f0:	4649      	mov	r1, r9
    37f2:	4658      	mov	r0, r11
    37f4:	9e00      	ldr	r6, [sp, #0]
    37f6:	47b0      	blx	r6
    37f8:	6822      	ldr	r2, [r4, #0]
    37fa:	f8da 3000 	ldr.w	r3, [r10]
    37fe:	f012 0f20 	tst.w	r2, #32
    3802:	d107      	bne.n	3814 <_scanf_i+0x1ac>
    3804:	07d2      	lsls	r2, r2, #31
    3806:	d505      	bpl.n	3814 <_scanf_i+0x1ac>
    3808:	1d1a      	adds	r2, r3, #4
    380a:	f8ca 2000 	str.w	r2, [r10]
    380e:	681b      	ldr	r3, [r3, #0]
    3810:	8018      	strh	r0, [r3, #0]
    3812:	e004      	b.n	381e <_scanf_i+0x1b6>
    3814:	1d1a      	adds	r2, r3, #4
    3816:	f8ca 2000 	str.w	r2, [r10]
    381a:	681b      	ldr	r3, [r3, #0]
    381c:	6018      	str	r0, [r3, #0]
    381e:	68e3      	ldr	r3, [r4, #12]
    3820:	3301      	adds	r3, #1
    3822:	60e3      	str	r3, [r4, #12]
    3824:	6923      	ldr	r3, [r4, #16]
    3826:	ebc9 0505 	rsb	r5, r9, r5
    382a:	4445      	add	r5, r8
    382c:	441d      	add	r5, r3
    382e:	6125      	str	r5, [r4, #16]
    3830:	2000      	movs	r0, #0
    3832:	e000      	b.n	3836 <_scanf_i+0x1ce>
    3834:	2001      	movs	r0, #1
    3836:	b007      	add	sp, #28
    3838:	e8bd 8ff0 	ldmia.w	sp!, {r4, r5, r6, r7, r8, r9, r10, r11, pc}
    383c:	00008598 	.word	0x00008598
    3840:	00004ae1 	.word	0x00004ae1
    3844:	000049b9 	.word	0x000049b9
    3848:	000085b4 	.word	0x000085b4

0000384c <_open_r>:
    384c:	b538      	push	{r3, r4, r5, lr}
    384e:	4c07      	ldr	r4, [pc, #28]	; (386c <_open_r+0x20>)
    3850:	4605      	mov	r5, r0
    3852:	4608      	mov	r0, r1
    3854:	4611      	mov	r1, r2
    3856:	2200      	movs	r2, #0
    3858:	6022      	str	r2, [r4, #0]
    385a:	461a      	mov	r2, r3
    385c:	f7fc feb6 	bl	5cc <_open>
    3860:	1c43      	adds	r3, r0, #1
    3862:	d102      	bne.n	386a <_open_r+0x1e>
    3864:	6823      	ldr	r3, [r4, #0]
    3866:	b103      	cbz	r3, 386a <_open_r+0x1e>
    3868:	602b      	str	r3, [r5, #0]
    386a:	bd38      	pop	{r3, r4, r5, pc}
    386c:	100004b0 	.word	0x100004b0

00003870 <_sbrk_r>:
    3870:	b538      	push	{r3, r4, r5, lr}
    3872:	4c06      	ldr	r4, [pc, #24]	; (388c <_sbrk_r+0x1c>)
    3874:	2300      	movs	r3, #0
    3876:	4605      	mov	r5, r0
    3878:	4608      	mov	r0, r1
    387a:	6023      	str	r3, [r4, #0]
    387c:	f7fc ffcc 	bl	818 <_sbrk>
    3880:	1c43      	adds	r3, r0, #1
    3882:	d102      	bne.n	388a <_sbrk_r+0x1a>
    3884:	6823      	ldr	r3, [r4, #0]
    3886:	b103      	cbz	r3, 388a <_sbrk_r+0x1a>
    3888:	602b      	str	r3, [r5, #0]
    388a:	bd38      	pop	{r3, r4, r5, pc}
    388c:	100004b0 	.word	0x100004b0

00003890 <__sccl>:
    3890:	b570      	push	{r4, r5, r6, lr}
    3892:	780b      	ldrb	r3, [r1, #0]
    3894:	1e44      	subs	r4, r0, #1
    3896:	2b5e      	cmp	r3, #94	; 0x5e
    3898:	bf13      	iteet	ne
    389a:	1c4a      	addne	r2, r1, #1
    389c:	1c8a      	addeq	r2, r1, #2
    389e:	784b      	ldrbeq	r3, [r1, #1]
    38a0:	2100      	movne	r1, #0
    38a2:	bf08      	it	eq
    38a4:	2101      	moveq	r1, #1
    38a6:	f100 05ff 	add.w	r5, r0, #255	; 0xff
    38aa:	f804 1f01 	strb.w	r1, [r4, #1]!
    38ae:	42ac      	cmp	r4, r5
    38b0:	d1fb      	bne.n	38aa <__sccl+0x1a>
    38b2:	b90b      	cbnz	r3, 38b8 <__sccl+0x28>
    38b4:	1e50      	subs	r0, r2, #1
    38b6:	bd70      	pop	{r4, r5, r6, pc}
    38b8:	f081 0401 	eor.w	r4, r1, #1
    38bc:	4611      	mov	r1, r2
    38be:	54c4      	strb	r4, [r0, r3]
    38c0:	780d      	ldrb	r5, [r1, #0]
    38c2:	1c4a      	adds	r2, r1, #1
    38c4:	2d2d      	cmp	r5, #45	; 0x2d
    38c6:	d006      	beq.n	38d6 <__sccl+0x46>
    38c8:	2d5d      	cmp	r5, #93	; 0x5d
    38ca:	d00f      	beq.n	38ec <__sccl+0x5c>
    38cc:	b10d      	cbz	r5, 38d2 <__sccl+0x42>
    38ce:	462b      	mov	r3, r5
    38d0:	e7f4      	b.n	38bc <__sccl+0x2c>
    38d2:	4608      	mov	r0, r1
    38d4:	bd70      	pop	{r4, r5, r6, pc}
    38d6:	784e      	ldrb	r6, [r1, #1]
    38d8:	2e5d      	cmp	r6, #93	; 0x5d
    38da:	d0f8      	beq.n	38ce <__sccl+0x3e>
    38dc:	42b3      	cmp	r3, r6
    38de:	dcf6      	bgt.n	38ce <__sccl+0x3e>
    38e0:	3102      	adds	r1, #2
    38e2:	3301      	adds	r3, #1
    38e4:	429e      	cmp	r6, r3
    38e6:	54c4      	strb	r4, [r0, r3]
    38e8:	dcfb      	bgt.n	38e2 <__sccl+0x52>
    38ea:	e7e9      	b.n	38c0 <__sccl+0x30>
    38ec:	4610      	mov	r0, r2
    38ee:	bd70      	pop	{r4, r5, r6, pc}

000038f0 <setbuf>:
    38f0:	2900      	cmp	r1, #0
    38f2:	f44f 6380 	mov.w	r3, #1024	; 0x400
    38f6:	bf0c      	ite	eq
    38f8:	2202      	moveq	r2, #2
    38fa:	2200      	movne	r2, #0
    38fc:	f000 b800 	b.w	3900 <setvbuf>

00003900 <setvbuf>:
    3900:	e92d 43f7 	stmdb	sp!, {r0, r1, r2, r4, r5, r6, r7, r8, r9, lr}
    3904:	461d      	mov	r5, r3
    3906:	4b4f      	ldr	r3, [pc, #316]	; (3a44 <setvbuf+0x144>)
    3908:	4604      	mov	r4, r0
    390a:	681e      	ldr	r6, [r3, #0]
    390c:	460f      	mov	r7, r1
    390e:	4690      	mov	r8, r2
    3910:	b126      	cbz	r6, 391c <setvbuf+0x1c>
    3912:	69b3      	ldr	r3, [r6, #24]
    3914:	b913      	cbnz	r3, 391c <setvbuf+0x1c>
    3916:	4630      	mov	r0, r6
    3918:	f7fe fbbc 	bl	2094 <__sinit>
    391c:	4b4a      	ldr	r3, [pc, #296]	; (3a48 <setvbuf+0x148>)
    391e:	429c      	cmp	r4, r3
    3920:	d101      	bne.n	3926 <setvbuf+0x26>
    3922:	6874      	ldr	r4, [r6, #4]
    3924:	e008      	b.n	3938 <setvbuf+0x38>
    3926:	4b49      	ldr	r3, [pc, #292]	; (3a4c <setvbuf+0x14c>)
    3928:	429c      	cmp	r4, r3
    392a:	d101      	bne.n	3930 <setvbuf+0x30>
    392c:	68b4      	ldr	r4, [r6, #8]
    392e:	e003      	b.n	3938 <setvbuf+0x38>
    3930:	4b47      	ldr	r3, [pc, #284]	; (3a50 <setvbuf+0x150>)
    3932:	429c      	cmp	r4, r3
    3934:	bf08      	it	eq
    3936:	68f4      	ldreq	r4, [r6, #12]
    3938:	f1b8 0f02 	cmp.w	r8, #2
    393c:	d004      	beq.n	3948 <setvbuf+0x48>
    393e:	f1b8 0f01 	cmp.w	r8, #1
    3942:	d879      	bhi.n	3a38 <setvbuf+0x138>
    3944:	2d00      	cmp	r5, #0
    3946:	db77      	blt.n	3a38 <setvbuf+0x138>
    3948:	4621      	mov	r1, r4
    394a:	4630      	mov	r0, r6
    394c:	f7fe fb38 	bl	1fc0 <_fflush_r>
    3950:	6b61      	ldr	r1, [r4, #52]	; 0x34
    3952:	b141      	cbz	r1, 3966 <setvbuf+0x66>
    3954:	f104 0344 	add.w	r3, r4, #68	; 0x44
    3958:	4299      	cmp	r1, r3
    395a:	d002      	beq.n	3962 <setvbuf+0x62>
    395c:	4630      	mov	r0, r6
    395e:	f7fe fddf 	bl	2520 <_free_r>
    3962:	2300      	movs	r3, #0
    3964:	6363      	str	r3, [r4, #52]	; 0x34
    3966:	2300      	movs	r3, #0
    3968:	61a3      	str	r3, [r4, #24]
    396a:	6063      	str	r3, [r4, #4]
    396c:	89a3      	ldrh	r3, [r4, #12]
    396e:	061b      	lsls	r3, r3, #24
    3970:	d503      	bpl.n	397a <setvbuf+0x7a>
    3972:	6921      	ldr	r1, [r4, #16]
    3974:	4630      	mov	r0, r6
    3976:	f7fe fdd3 	bl	2520 <_free_r>
    397a:	89a3      	ldrh	r3, [r4, #12]
    397c:	f1b8 0f02 	cmp.w	r8, #2
    3980:	f423 634a 	bic.w	r3, r3, #3232	; 0xca0
    3984:	f023 0303 	bic.w	r3, r3, #3
    3988:	81a3      	strh	r3, [r4, #12]
    398a:	d01e      	beq.n	39ca <setvbuf+0xca>
    398c:	ab01      	add	r3, sp, #4
    398e:	466a      	mov	r2, sp
    3990:	4621      	mov	r1, r4
    3992:	4630      	mov	r0, r6
    3994:	f7fe fd18 	bl	23c8 <__swhatbuf_r>
    3998:	89a3      	ldrh	r3, [r4, #12]
    399a:	4318      	orrs	r0, r3
    399c:	81a0      	strh	r0, [r4, #12]
    399e:	b90d      	cbnz	r5, 39a4 <setvbuf+0xa4>
    39a0:	9d00      	ldr	r5, [sp, #0]
    39a2:	e000      	b.n	39a6 <setvbuf+0xa6>
    39a4:	bb2f      	cbnz	r7, 39f2 <setvbuf+0xf2>
    39a6:	4628      	mov	r0, r5
    39a8:	f7fe fd6e 	bl	2488 <malloc>
    39ac:	4607      	mov	r7, r0
    39ae:	b9d0      	cbnz	r0, 39e6 <setvbuf+0xe6>
    39b0:	f8dd 9000 	ldr.w	r9, [sp]
    39b4:	45a9      	cmp	r9, r5
    39b6:	d102      	bne.n	39be <setvbuf+0xbe>
    39b8:	f04f 30ff 	mov.w	r0, #4294967295
    39bc:	e006      	b.n	39cc <setvbuf+0xcc>
    39be:	4648      	mov	r0, r9
    39c0:	f7fe fd62 	bl	2488 <malloc>
    39c4:	4607      	mov	r7, r0
    39c6:	b978      	cbnz	r0, 39e8 <setvbuf+0xe8>
    39c8:	e7f6      	b.n	39b8 <setvbuf+0xb8>
    39ca:	2000      	movs	r0, #0
    39cc:	89a3      	ldrh	r3, [r4, #12]
    39ce:	f043 0302 	orr.w	r3, r3, #2
    39d2:	81a3      	strh	r3, [r4, #12]
    39d4:	2300      	movs	r3, #0
    39d6:	60a3      	str	r3, [r4, #8]
    39d8:	f104 0347 	add.w	r3, r4, #71	; 0x47
    39dc:	6023      	str	r3, [r4, #0]
    39de:	6123      	str	r3, [r4, #16]
    39e0:	2301      	movs	r3, #1
    39e2:	6163      	str	r3, [r4, #20]
    39e4:	e02a      	b.n	3a3c <setvbuf+0x13c>
    39e6:	46a9      	mov	r9, r5
    39e8:	464d      	mov	r5, r9
    39ea:	89a3      	ldrh	r3, [r4, #12]
    39ec:	f043 0380 	orr.w	r3, r3, #128	; 0x80
    39f0:	81a3      	strh	r3, [r4, #12]
    39f2:	69b3      	ldr	r3, [r6, #24]
    39f4:	b913      	cbnz	r3, 39fc <setvbuf+0xfc>
    39f6:	4630      	mov	r0, r6
    39f8:	f7fe fb4c 	bl	2094 <__sinit>
    39fc:	f1b8 0f01 	cmp.w	r8, #1
    3a00:	bf08      	it	eq
    3a02:	89a3      	ldrheq	r3, [r4, #12]
    3a04:	6027      	str	r7, [r4, #0]
    3a06:	bf04      	itt	eq
    3a08:	f043 0301 	orreq.w	r3, r3, #1
    3a0c:	81a3      	strheq	r3, [r4, #12]
    3a0e:	89a3      	ldrh	r3, [r4, #12]
    3a10:	6127      	str	r7, [r4, #16]
    3a12:	f003 0008 	and.w	r0, r3, #8
    3a16:	b280      	uxth	r0, r0
    3a18:	6165      	str	r5, [r4, #20]
    3a1a:	b158      	cbz	r0, 3a34 <setvbuf+0x134>
    3a1c:	f013 0301 	ands.w	r3, r3, #1
    3a20:	f04f 0000 	mov.w	r0, #0
    3a24:	bf1d      	ittte	ne
    3a26:	426d      	negne	r5, r5
    3a28:	60a0      	strne	r0, [r4, #8]
    3a2a:	61a5      	strne	r5, [r4, #24]
    3a2c:	60a5      	streq	r5, [r4, #8]
    3a2e:	bf08      	it	eq
    3a30:	4618      	moveq	r0, r3
    3a32:	e003      	b.n	3a3c <setvbuf+0x13c>
    3a34:	60a0      	str	r0, [r4, #8]
    3a36:	e001      	b.n	3a3c <setvbuf+0x13c>
    3a38:	f04f 30ff 	mov.w	r0, #4294967295
    3a3c:	b003      	add	sp, #12
    3a3e:	e8bd 83f0 	ldmia.w	sp!, {r4, r5, r6, r7, r8, r9, pc}
    3a42:	bf00      	nop
    3a44:	10000138 	.word	0x10000138
    3a48:	000084ec 	.word	0x000084ec
    3a4c:	0000850c 	.word	0x0000850c
    3a50:	0000852c 	.word	0x0000852c

00003a54 <nanf>:
    3a54:	4800      	ldr	r0, [pc, #0]	; (3a58 <nanf+0x4>)
    3a56:	4770      	bx	lr
    3a58:	7fc00000 	.word	0x7fc00000

00003a5c <_raise_r>:
    3a5c:	291f      	cmp	r1, #31
    3a5e:	b538      	push	{r3, r4, r5, lr}
    3a60:	4604      	mov	r4, r0
    3a62:	460d      	mov	r5, r1
    3a64:	d904      	bls.n	3a70 <_raise_r+0x14>
    3a66:	2316      	movs	r3, #22
    3a68:	6003      	str	r3, [r0, #0]
    3a6a:	f04f 30ff 	mov.w	r0, #4294967295
    3a6e:	bd38      	pop	{r3, r4, r5, pc}
    3a70:	6c42      	ldr	r2, [r0, #68]	; 0x44
    3a72:	b112      	cbz	r2, 3a7a <_raise_r+0x1e>
    3a74:	f852 3021 	ldr.w	r3, [r2, r1, lsl #2]
    3a78:	b94b      	cbnz	r3, 3a8e <_raise_r+0x32>
    3a7a:	4620      	mov	r0, r4
    3a7c:	f000 f832 	bl	3ae4 <_getpid_r>
    3a80:	462a      	mov	r2, r5
    3a82:	4601      	mov	r1, r0
    3a84:	4620      	mov	r0, r4
    3a86:	e8bd 4038 	ldmia.w	sp!, {r3, r4, r5, lr}
    3a8a:	f000 b819 	b.w	3ac0 <_kill_r>
    3a8e:	2b01      	cmp	r3, #1
    3a90:	d00c      	beq.n	3aac <_raise_r+0x50>
    3a92:	1c59      	adds	r1, r3, #1
    3a94:	d103      	bne.n	3a9e <_raise_r+0x42>
    3a96:	2316      	movs	r3, #22
    3a98:	6003      	str	r3, [r0, #0]
    3a9a:	2001      	movs	r0, #1
    3a9c:	bd38      	pop	{r3, r4, r5, pc}
    3a9e:	2400      	movs	r4, #0
    3aa0:	4628      	mov	r0, r5
    3aa2:	f842 4025 	str.w	r4, [r2, r5, lsl #2]
    3aa6:	4798      	blx	r3
    3aa8:	4620      	mov	r0, r4
    3aaa:	bd38      	pop	{r3, r4, r5, pc}
    3aac:	2000      	movs	r0, #0
    3aae:	bd38      	pop	{r3, r4, r5, pc}

00003ab0 <raise>:
    3ab0:	4b02      	ldr	r3, [pc, #8]	; (3abc <raise+0xc>)
    3ab2:	4601      	mov	r1, r0
    3ab4:	6818      	ldr	r0, [r3, #0]
    3ab6:	f7ff bfd1 	b.w	3a5c <_raise_r>
    3aba:	bf00      	nop
    3abc:	10000138 	.word	0x10000138

00003ac0 <_kill_r>:
    3ac0:	b538      	push	{r3, r4, r5, lr}
    3ac2:	4c07      	ldr	r4, [pc, #28]	; (3ae0 <_kill_r+0x20>)
    3ac4:	2300      	movs	r3, #0
    3ac6:	4605      	mov	r5, r0
    3ac8:	4608      	mov	r0, r1
    3aca:	4611      	mov	r1, r2
    3acc:	6023      	str	r3, [r4, #0]
    3ace:	f004 fa6d 	bl	7fac <_kill>
    3ad2:	1c43      	adds	r3, r0, #1
    3ad4:	d102      	bne.n	3adc <_kill_r+0x1c>
    3ad6:	6823      	ldr	r3, [r4, #0]
    3ad8:	b103      	cbz	r3, 3adc <_kill_r+0x1c>
    3ada:	602b      	str	r3, [r5, #0]
    3adc:	bd38      	pop	{r3, r4, r5, pc}
    3ade:	bf00      	nop
    3ae0:	100004b0 	.word	0x100004b0

00003ae4 <_getpid_r>:
    3ae4:	f004 ba5a 	b.w	7f9c <_getpid>

00003ae8 <siprintf>:
    3ae8:	b40e      	push	{r1, r2, r3}
    3aea:	b500      	push	{lr}
    3aec:	f44f 7102 	mov.w	r1, #520	; 0x208
    3af0:	b09c      	sub	sp, #112	; 0x70
    3af2:	f8ad 1014 	strh.w	r1, [sp, #20]
    3af6:	f06f 4100 	mvn.w	r1, #2147483648	; 0x80000000
    3afa:	9104      	str	r1, [sp, #16]
    3afc:	9107      	str	r1, [sp, #28]
    3afe:	f64f 71ff 	movw	r1, #65535	; 0xffff
    3b02:	ab1d      	add	r3, sp, #116	; 0x74
    3b04:	9002      	str	r0, [sp, #8]
    3b06:	9006      	str	r0, [sp, #24]
    3b08:	4808      	ldr	r0, [pc, #32]	; (3b2c <siprintf+0x44>)
    3b0a:	f853 2b04 	ldr.w	r2, [r3], #4
    3b0e:	f8ad 1016 	strh.w	r1, [sp, #22]
    3b12:	6800      	ldr	r0, [r0, #0]
    3b14:	a902      	add	r1, sp, #8
    3b16:	9301      	str	r3, [sp, #4]
    3b18:	f002 ff74 	bl	6a04 <_svfiprintf_r>
    3b1c:	9b02      	ldr	r3, [sp, #8]
    3b1e:	2200      	movs	r2, #0
    3b20:	701a      	strb	r2, [r3, #0]
    3b22:	b01c      	add	sp, #112	; 0x70
    3b24:	f85d eb04 	ldr.w	lr, [sp], #4
    3b28:	b003      	add	sp, #12
    3b2a:	4770      	bx	lr
    3b2c:	10000138 	.word	0x10000138

00003b30 <siscanf>:
    3b30:	b40e      	push	{r1, r2, r3}
    3b32:	b530      	push	{r4, r5, lr}
    3b34:	b09c      	sub	sp, #112	; 0x70
    3b36:	ac1f      	add	r4, sp, #124	; 0x7c
    3b38:	f44f 7201 	mov.w	r2, #516	; 0x204
    3b3c:	f854 5b04 	ldr.w	r5, [r4], #4
    3b40:	f8ad 2014 	strh.w	r2, [sp, #20]
    3b44:	9002      	str	r0, [sp, #8]
    3b46:	9006      	str	r0, [sp, #24]
    3b48:	f000 f86b 	bl	3c22 <strlen>
    3b4c:	4b0b      	ldr	r3, [pc, #44]	; (3b7c <siscanf+0x4c>)
    3b4e:	9003      	str	r0, [sp, #12]
    3b50:	930b      	str	r3, [sp, #44]	; 0x2c
    3b52:	2300      	movs	r3, #0
    3b54:	930f      	str	r3, [sp, #60]	; 0x3c
    3b56:	9314      	str	r3, [sp, #80]	; 0x50
    3b58:	f64f 73ff 	movw	r3, #65535	; 0xffff
    3b5c:	9007      	str	r0, [sp, #28]
    3b5e:	4808      	ldr	r0, [pc, #32]	; (3b80 <siscanf+0x50>)
    3b60:	f8ad 3016 	strh.w	r3, [sp, #22]
    3b64:	462a      	mov	r2, r5
    3b66:	4623      	mov	r3, r4
    3b68:	a902      	add	r1, sp, #8
    3b6a:	6800      	ldr	r0, [r0, #0]
    3b6c:	9401      	str	r4, [sp, #4]
    3b6e:	f003 f899 	bl	6ca4 <__ssvfiscanf_r>
    3b72:	b01c      	add	sp, #112	; 0x70
    3b74:	e8bd 4030 	ldmia.w	sp!, {r4, r5, lr}
    3b78:	b003      	add	sp, #12
    3b7a:	4770      	bx	lr
    3b7c:	00003ba7 	.word	0x00003ba7
    3b80:	10000138 	.word	0x10000138

00003b84 <__sread>:
    3b84:	b510      	push	{r4, lr}
    3b86:	460c      	mov	r4, r1
    3b88:	f9b1 100e 	ldrsh.w	r1, [r1, #14]
    3b8c:	f003 f9e2 	bl	6f54 <_read_r>
    3b90:	2800      	cmp	r0, #0
    3b92:	bfab      	itete	ge
    3b94:	6d63      	ldrge	r3, [r4, #84]	; 0x54
    3b96:	89a3      	ldrhlt	r3, [r4, #12]
    3b98:	181b      	addge	r3, r3, r0
    3b9a:	f423 5380 	biclt.w	r3, r3, #4096	; 0x1000
    3b9e:	bfac      	ite	ge
    3ba0:	6563      	strge	r3, [r4, #84]	; 0x54
    3ba2:	81a3      	strhlt	r3, [r4, #12]
    3ba4:	bd10      	pop	{r4, pc}

00003ba6 <__seofread>:
    3ba6:	2000      	movs	r0, #0
    3ba8:	4770      	bx	lr

00003baa <__swrite>:
    3baa:	e92d 41f0 	stmdb	sp!, {r4, r5, r6, r7, r8, lr}
    3bae:	461f      	mov	r7, r3
    3bb0:	898b      	ldrh	r3, [r1, #12]
    3bb2:	4605      	mov	r5, r0
    3bb4:	05db      	lsls	r3, r3, #23
    3bb6:	460c      	mov	r4, r1
    3bb8:	4616      	mov	r6, r2
    3bba:	d505      	bpl.n	3bc8 <__swrite+0x1e>
    3bbc:	2302      	movs	r3, #2
    3bbe:	2200      	movs	r2, #0
    3bc0:	f9b1 100e 	ldrsh.w	r1, [r1, #14]
    3bc4:	f002 fa82 	bl	60cc <_lseek_r>
    3bc8:	89a3      	ldrh	r3, [r4, #12]
    3bca:	4632      	mov	r2, r6
    3bcc:	f423 5380 	bic.w	r3, r3, #4096	; 0x1000
    3bd0:	81a3      	strh	r3, [r4, #12]
    3bd2:	f9b4 100e 	ldrsh.w	r1, [r4, #14]
    3bd6:	463b      	mov	r3, r7
    3bd8:	4628      	mov	r0, r5
    3bda:	e8bd 41f0 	ldmia.w	sp!, {r4, r5, r6, r7, r8, lr}
    3bde:	f001 b81f 	b.w	4c20 <_write_r>

00003be2 <__sseek>:
    3be2:	b510      	push	{r4, lr}
    3be4:	460c      	mov	r4, r1
    3be6:	f9b1 100e 	ldrsh.w	r1, [r1, #14]
    3bea:	f002 fa6f 	bl	60cc <_lseek_r>
    3bee:	1c43      	adds	r3, r0, #1
    3bf0:	89a3      	ldrh	r3, [r4, #12]
    3bf2:	bf15      	itete	ne
    3bf4:	6560      	strne	r0, [r4, #84]	; 0x54
    3bf6:	f423 5380 	biceq.w	r3, r3, #4096	; 0x1000
    3bfa:	f443 5380 	orrne.w	r3, r3, #4096	; 0x1000
    3bfe:	81a3      	strheq	r3, [r4, #12]
    3c00:	bf18      	it	ne
    3c02:	81a3      	strhne	r3, [r4, #12]
    3c04:	bd10      	pop	{r4, pc}

00003c06 <__sclose>:
    3c06:	f9b1 100e 	ldrsh.w	r1, [r1, #14]
    3c0a:	f001 b889 	b.w	4d20 <_close_r>

00003c0e <strcmp>:
    3c0e:	f810 2b01 	ldrb.w	r2, [r0], #1
    3c12:	f811 3b01 	ldrb.w	r3, [r1], #1
    3c16:	2a01      	cmp	r2, #1
    3c18:	bf28      	it	cs
    3c1a:	429a      	cmpcs	r2, r3
    3c1c:	d0f7      	beq.n	3c0e <strcmp>
    3c1e:	1ad0      	subs	r0, r2, r3
    3c20:	4770      	bx	lr

00003c22 <strlen>:
    3c22:	4603      	mov	r3, r0
    3c24:	f813 2b01 	ldrb.w	r2, [r3], #1
    3c28:	2a00      	cmp	r2, #0
    3c2a:	d1fb      	bne.n	3c24 <strlen+0x2>
    3c2c:	1a18      	subs	r0, r3, r0
    3c2e:	3801      	subs	r0, #1
    3c30:	4770      	bx	lr

00003c32 <strncmp>:
    3c32:	b530      	push	{r4, r5, lr}
    3c34:	b182      	cbz	r2, 3c58 <strncmp+0x26>
    3c36:	1e45      	subs	r5, r0, #1
    3c38:	3901      	subs	r1, #1
    3c3a:	f815 3f01 	ldrb.w	r3, [r5, #1]!
    3c3e:	f811 4f01 	ldrb.w	r4, [r1, #1]!
    3c42:	42a3      	cmp	r3, r4
    3c44:	d106      	bne.n	3c54 <strncmp+0x22>
    3c46:	43ec      	mvns	r4, r5
    3c48:	4414      	add	r4, r2
    3c4a:	42e0      	cmn	r0, r4
    3c4c:	d001      	beq.n	3c52 <strncmp+0x20>
    3c4e:	2b00      	cmp	r3, #0
    3c50:	d1f3      	bne.n	3c3a <strncmp+0x8>
    3c52:	461c      	mov	r4, r3
    3c54:	1b18      	subs	r0, r3, r4
    3c56:	bd30      	pop	{r4, r5, pc}
    3c58:	4610      	mov	r0, r2
    3c5a:	bd30      	pop	{r4, r5, pc}

00003c5c <sulp>:
    3c5c:	e92d 41f0 	stmdb	sp!, {r4, r5, r6, r7, r8, lr}
    3c60:	460f      	mov	r7, r1
    3c62:	4690      	mov	r8, r2
    3c64:	f002 fd1e 	bl	66a4 <__ulp>
    3c68:	4604      	mov	r4, r0
    3c6a:	460d      	mov	r5, r1
    3c6c:	f1b8 0f00 	cmp.w	r8, #0
    3c70:	d011      	beq.n	3c96 <sulp+0x3a>
    3c72:	f3c7 530a 	ubfx	r3, r7, #20, #11
    3c76:	f1c3 036b 	rsb	r3, r3, #107	; 0x6b
    3c7a:	2b00      	cmp	r3, #0
    3c7c:	dd0b      	ble.n	3c96 <sulp+0x3a>
    3c7e:	051b      	lsls	r3, r3, #20
    3c80:	f103 557f 	add.w	r5, r3, #1069547520	; 0x3fc00000
    3c84:	2400      	movs	r4, #0
    3c86:	f505 1540 	add.w	r5, r5, #3145728	; 0x300000
    3c8a:	4622      	mov	r2, r4
    3c8c:	462b      	mov	r3, r5
    3c8e:	f003 fb43 	bl	7318 <__aeabi_dmul>
    3c92:	e8bd 81f0 	ldmia.w	sp!, {r4, r5, r6, r7, r8, pc}
    3c96:	4620      	mov	r0, r4
    3c98:	4629      	mov	r1, r5
    3c9a:	e8bd 81f0 	ldmia.w	sp!, {r4, r5, r6, r7, r8, pc}
	...

00003ca0 <_strtod_l>:
    3ca0:	e92d 4ff0 	stmdb	sp!, {r4, r5, r6, r7, r8, r9, r10, r11, lr}
    3ca4:	461f      	mov	r7, r3
    3ca6:	b09f      	sub	sp, #124	; 0x7c
    3ca8:	2300      	movs	r3, #0
    3caa:	4682      	mov	r10, r0
    3cac:	4638      	mov	r0, r7
    3cae:	931a      	str	r3, [sp, #104]	; 0x68
    3cb0:	9106      	str	r1, [sp, #24]
    3cb2:	9215      	str	r2, [sp, #84]	; 0x54
    3cb4:	f002 f9fa 	bl	60ac <__localeconv_l>
    3cb8:	4606      	mov	r6, r0
    3cba:	6800      	ldr	r0, [r0, #0]
    3cbc:	f7ff ffb1 	bl	3c22 <strlen>
    3cc0:	4604      	mov	r4, r0
    3cc2:	9b06      	ldr	r3, [sp, #24]
    3cc4:	f04f 0800 	mov.w	r8, #0
    3cc8:	f04f 0900 	mov.w	r9, #0
    3ccc:	9319      	str	r3, [sp, #100]	; 0x64
    3cce:	9b19      	ldr	r3, [sp, #100]	; 0x64
    3cd0:	781a      	ldrb	r2, [r3, #0]
    3cd2:	2a0d      	cmp	r2, #13
    3cd4:	d805      	bhi.n	3ce2 <_strtod_l+0x42>
    3cd6:	2a09      	cmp	r2, #9
    3cd8:	d213      	bcs.n	3d02 <_strtod_l+0x62>
    3cda:	2a00      	cmp	r2, #0
    3cdc:	f000 8196 	beq.w	400c <_strtod_l+0x36c>
    3ce0:	e011      	b.n	3d06 <_strtod_l+0x66>
    3ce2:	2a2b      	cmp	r2, #43	; 0x2b
    3ce4:	d004      	beq.n	3cf0 <_strtod_l+0x50>
    3ce6:	2a2d      	cmp	r2, #45	; 0x2d
    3ce8:	d004      	beq.n	3cf4 <_strtod_l+0x54>
    3cea:	2a20      	cmp	r2, #32
    3cec:	d10b      	bne.n	3d06 <_strtod_l+0x66>
    3cee:	e008      	b.n	3d02 <_strtod_l+0x62>
    3cf0:	2200      	movs	r2, #0
    3cf2:	e000      	b.n	3cf6 <_strtod_l+0x56>
    3cf4:	2201      	movs	r2, #1
    3cf6:	920e      	str	r2, [sp, #56]	; 0x38
    3cf8:	1c5a      	adds	r2, r3, #1
    3cfa:	9219      	str	r2, [sp, #100]	; 0x64
    3cfc:	785b      	ldrb	r3, [r3, #1]
    3cfe:	b923      	cbnz	r3, 3d0a <_strtod_l+0x6a>
    3d00:	e184      	b.n	400c <_strtod_l+0x36c>
    3d02:	3301      	adds	r3, #1
    3d04:	e7e2      	b.n	3ccc <_strtod_l+0x2c>
    3d06:	2300      	movs	r3, #0
    3d08:	930e      	str	r3, [sp, #56]	; 0x38
    3d0a:	9d19      	ldr	r5, [sp, #100]	; 0x64
    3d0c:	782b      	ldrb	r3, [r5, #0]
    3d0e:	2b30      	cmp	r3, #48	; 0x30
    3d10:	d15d      	bne.n	3dce <_strtod_l+0x12e>
    3d12:	786b      	ldrb	r3, [r5, #1]
    3d14:	2b58      	cmp	r3, #88	; 0x58
    3d16:	d001      	beq.n	3d1c <_strtod_l+0x7c>
    3d18:	2b78      	cmp	r3, #120	; 0x78
    3d1a:	d14d      	bne.n	3db8 <_strtod_l+0x118>
    3d1c:	9b0e      	ldr	r3, [sp, #56]	; 0x38
    3d1e:	9702      	str	r7, [sp, #8]
    3d20:	9301      	str	r3, [sp, #4]
    3d22:	ab1a      	add	r3, sp, #104	; 0x68
    3d24:	9300      	str	r3, [sp, #0]
    3d26:	4a9e      	ldr	r2, [pc, #632]	; (3fa0 <_strtod_l+0x300>)
    3d28:	ab1b      	add	r3, sp, #108	; 0x6c
    3d2a:	a919      	add	r1, sp, #100	; 0x64
    3d2c:	4650      	mov	r0, r10
    3d2e:	f001 fec0 	bl	5ab2 <__gethex>
    3d32:	f010 0607 	ands.w	r6, r0, #7
    3d36:	4604      	mov	r4, r0
    3d38:	f000 8571 	beq.w	481e <_strtod_l+0xb7e>
    3d3c:	2e06      	cmp	r6, #6
    3d3e:	d105      	bne.n	3d4c <_strtod_l+0xac>
    3d40:	3501      	adds	r5, #1
    3d42:	2300      	movs	r3, #0
    3d44:	9519      	str	r5, [sp, #100]	; 0x64
    3d46:	930e      	str	r3, [sp, #56]	; 0x38
    3d48:	f000 bd69 	b.w	481e <_strtod_l+0xb7e>
    3d4c:	9a1a      	ldr	r2, [sp, #104]	; 0x68
    3d4e:	b13a      	cbz	r2, 3d60 <_strtod_l+0xc0>
    3d50:	2135      	movs	r1, #53	; 0x35
    3d52:	a81c      	add	r0, sp, #112	; 0x70
    3d54:	f002 fd8d 	bl	6872 <__copybits>
    3d58:	991a      	ldr	r1, [sp, #104]	; 0x68
    3d5a:	4650      	mov	r0, r10
    3d5c:	f002 fa11 	bl	6182 <_Bfree>
    3d60:	2e06      	cmp	r6, #6
    3d62:	d822      	bhi.n	3daa <_strtod_l+0x10a>
    3d64:	e8df f006 	tbb	[pc, r6]
    3d68:	18080d04 	.word	0x18080d04
    3d6c:	0d1d      	.short	0x0d1d
    3d6e:	04          	.byte	0x04
    3d6f:	00          	.byte	0x00
    3d70:	f04f 0900 	mov.w	r9, #0
    3d74:	46c8      	mov	r8, r9
    3d76:	e018      	b.n	3daa <_strtod_l+0x10a>
    3d78:	f8dd 8070 	ldr.w	r8, [sp, #112]	; 0x70
    3d7c:	f8dd 9074 	ldr.w	r9, [sp, #116]	; 0x74
    3d80:	e013      	b.n	3daa <_strtod_l+0x10a>
    3d82:	9b1d      	ldr	r3, [sp, #116]	; 0x74
    3d84:	9a1b      	ldr	r2, [sp, #108]	; 0x6c
    3d86:	f423 1380 	bic.w	r3, r3, #1048576	; 0x100000
    3d8a:	f202 4233 	addw	r2, r2, #1075	; 0x433
    3d8e:	f8dd 8070 	ldr.w	r8, [sp, #112]	; 0x70
    3d92:	ea43 5902 	orr.w	r9, r3, r2, lsl #20
    3d96:	e008      	b.n	3daa <_strtod_l+0x10a>
    3d98:	f8df 9208 	ldr.w	r9, [pc, #520]	; 3fa4 <_strtod_l+0x304>
    3d9c:	f04f 0800 	mov.w	r8, #0
    3da0:	e003      	b.n	3daa <_strtod_l+0x10a>
    3da2:	f06f 4900 	mvn.w	r9, #2147483648	; 0x80000000
    3da6:	f04f 38ff 	mov.w	r8, #4294967295
    3daa:	0721      	lsls	r1, r4, #28
    3dac:	f140 8537 	bpl.w	481e <_strtod_l+0xb7e>
    3db0:	f049 4900 	orr.w	r9, r9, #2147483648	; 0x80000000
    3db4:	f000 bd33 	b.w	481e <_strtod_l+0xb7e>
    3db8:	9b19      	ldr	r3, [sp, #100]	; 0x64
    3dba:	1c5a      	adds	r2, r3, #1
    3dbc:	9219      	str	r2, [sp, #100]	; 0x64
    3dbe:	785b      	ldrb	r3, [r3, #1]
    3dc0:	2b30      	cmp	r3, #48	; 0x30
    3dc2:	d0f9      	beq.n	3db8 <_strtod_l+0x118>
    3dc4:	2b00      	cmp	r3, #0
    3dc6:	f000 852a 	beq.w	481e <_strtod_l+0xb7e>
    3dca:	2301      	movs	r3, #1
    3dcc:	e000      	b.n	3dd0 <_strtod_l+0x130>
    3dce:	2300      	movs	r3, #0
    3dd0:	9308      	str	r3, [sp, #32]
    3dd2:	9b19      	ldr	r3, [sp, #100]	; 0x64
    3dd4:	220a      	movs	r2, #10
    3dd6:	9309      	str	r3, [sp, #36]	; 0x24
    3dd8:	2300      	movs	r3, #0
    3dda:	469b      	mov	r11, r3
    3ddc:	9305      	str	r3, [sp, #20]
    3dde:	9304      	str	r3, [sp, #16]
    3de0:	9819      	ldr	r0, [sp, #100]	; 0x64
    3de2:	7805      	ldrb	r5, [r0, #0]
    3de4:	f1a5 0330 	sub.w	r3, r5, #48	; 0x30
    3de8:	b2d9      	uxtb	r1, r3
    3dea:	2909      	cmp	r1, #9
    3dec:	d80e      	bhi.n	3e0c <_strtod_l+0x16c>
    3dee:	9904      	ldr	r1, [sp, #16]
    3df0:	3001      	adds	r0, #1
    3df2:	2908      	cmp	r1, #8
    3df4:	bfc9      	itett	gt
    3df6:	9905      	ldrgt	r1, [sp, #20]
    3df8:	fb02 3b0b 	mlale	r11, r2, r11, r3
    3dfc:	fb02 3301 	mlagt	r3, r2, r1, r3
    3e00:	9305      	strgt	r3, [sp, #20]
    3e02:	9b04      	ldr	r3, [sp, #16]
    3e04:	9019      	str	r0, [sp, #100]	; 0x64
    3e06:	3301      	adds	r3, #1
    3e08:	9304      	str	r3, [sp, #16]
    3e0a:	e7e9      	b.n	3de0 <_strtod_l+0x140>
    3e0c:	4622      	mov	r2, r4
    3e0e:	6831      	ldr	r1, [r6, #0]
    3e10:	f7ff ff0f 	bl	3c32 <strncmp>
    3e14:	b128      	cbz	r0, 3e22 <_strtod_l+0x182>
    3e16:	2000      	movs	r0, #0
    3e18:	462b      	mov	r3, r5
    3e1a:	4602      	mov	r2, r0
    3e1c:	9d04      	ldr	r5, [sp, #16]
    3e1e:	4601      	mov	r1, r0
    3e20:	e04d      	b.n	3ebe <_strtod_l+0x21e>
    3e22:	9b19      	ldr	r3, [sp, #100]	; 0x64
    3e24:	191a      	adds	r2, r3, r4
    3e26:	9219      	str	r2, [sp, #100]	; 0x64
    3e28:	9a04      	ldr	r2, [sp, #16]
    3e2a:	5d1b      	ldrb	r3, [r3, r4]
    3e2c:	2a00      	cmp	r2, #0
    3e2e:	d13f      	bne.n	3eb0 <_strtod_l+0x210>
    3e30:	4610      	mov	r0, r2
    3e32:	2b30      	cmp	r3, #48	; 0x30
    3e34:	d105      	bne.n	3e42 <_strtod_l+0x1a2>
    3e36:	9b19      	ldr	r3, [sp, #100]	; 0x64
    3e38:	3001      	adds	r0, #1
    3e3a:	1c5a      	adds	r2, r3, #1
    3e3c:	9219      	str	r2, [sp, #100]	; 0x64
    3e3e:	785b      	ldrb	r3, [r3, #1]
    3e40:	e7f7      	b.n	3e32 <_strtod_l+0x192>
    3e42:	f1a3 0231 	sub.w	r2, r3, #49	; 0x31
    3e46:	2a08      	cmp	r2, #8
    3e48:	d83f      	bhi.n	3eca <_strtod_l+0x22a>
    3e4a:	9a19      	ldr	r2, [sp, #100]	; 0x64
    3e4c:	9209      	str	r2, [sp, #36]	; 0x24
    3e4e:	4602      	mov	r2, r0
    3e50:	2000      	movs	r0, #0
    3e52:	4605      	mov	r5, r0
    3e54:	3b30      	subs	r3, #48	; 0x30
    3e56:	f100 0101 	add.w	r1, r0, #1
    3e5a:	d023      	beq.n	3ea4 <_strtod_l+0x204>
    3e5c:	440a      	add	r2, r1
    3e5e:	4629      	mov	r1, r5
    3e60:	182e      	adds	r6, r5, r0
    3e62:	240a      	movs	r4, #10
    3e64:	42b1      	cmp	r1, r6
    3e66:	d00c      	beq.n	3e82 <_strtod_l+0x1e2>
    3e68:	3101      	adds	r1, #1
    3e6a:	1e4f      	subs	r7, r1, #1
    3e6c:	2f08      	cmp	r7, #8
    3e6e:	dc02      	bgt.n	3e76 <_strtod_l+0x1d6>
    3e70:	fb04 fb0b 	mul.w	r11, r4, r11
    3e74:	e7f6      	b.n	3e64 <_strtod_l+0x1c4>
    3e76:	2910      	cmp	r1, #16
    3e78:	bfde      	ittt	le
    3e7a:	9f05      	ldrle	r7, [sp, #20]
    3e7c:	4367      	mulle	r7, r4
    3e7e:	9705      	strle	r7, [sp, #20]
    3e80:	e7f0      	b.n	3e64 <_strtod_l+0x1c4>
    3e82:	4428      	add	r0, r5
    3e84:	2808      	cmp	r0, #8
    3e86:	f100 0501 	add.w	r5, r0, #1
    3e8a:	dc03      	bgt.n	3e94 <_strtod_l+0x1f4>
    3e8c:	210a      	movs	r1, #10
    3e8e:	fb01 3b0b 	mla	r11, r1, r11, r3
    3e92:	e006      	b.n	3ea2 <_strtod_l+0x202>
    3e94:	2d10      	cmp	r5, #16
    3e96:	bfdf      	itttt	le
    3e98:	9805      	ldrle	r0, [sp, #20]
    3e9a:	210a      	movle	r1, #10
    3e9c:	fb01 3300 	mlale	r3, r1, r0, r3
    3ea0:	9305      	strle	r3, [sp, #20]
    3ea2:	2100      	movs	r1, #0
    3ea4:	9b19      	ldr	r3, [sp, #100]	; 0x64
    3ea6:	1c58      	adds	r0, r3, #1
    3ea8:	9019      	str	r0, [sp, #100]	; 0x64
    3eaa:	785b      	ldrb	r3, [r3, #1]
    3eac:	4608      	mov	r0, r1
    3eae:	e001      	b.n	3eb4 <_strtod_l+0x214>
    3eb0:	4602      	mov	r2, r0
    3eb2:	9d04      	ldr	r5, [sp, #16]
    3eb4:	f1a3 0130 	sub.w	r1, r3, #48	; 0x30
    3eb8:	2909      	cmp	r1, #9
    3eba:	d9cb      	bls.n	3e54 <_strtod_l+0x1b4>
    3ebc:	2101      	movs	r1, #1
    3ebe:	2b65      	cmp	r3, #101	; 0x65
    3ec0:	d001      	beq.n	3ec6 <_strtod_l+0x226>
    3ec2:	2b45      	cmp	r3, #69	; 0x45
    3ec4:	d154      	bne.n	3f70 <_strtod_l+0x2d0>
    3ec6:	b96d      	cbnz	r5, 3ee4 <_strtod_l+0x244>
    3ec8:	e004      	b.n	3ed4 <_strtod_l+0x234>
    3eca:	2b65      	cmp	r3, #101	; 0x65
    3ecc:	f040 84b5 	bne.w	483a <_strtod_l+0xb9a>
    3ed0:	2200      	movs	r2, #0
    3ed2:	2101      	movs	r1, #1
    3ed4:	b928      	cbnz	r0, 3ee2 <_strtod_l+0x242>
    3ed6:	9b08      	ldr	r3, [sp, #32]
    3ed8:	2b00      	cmp	r3, #0
    3eda:	f000 8097 	beq.w	400c <_strtod_l+0x36c>
    3ede:	4605      	mov	r5, r0
    3ee0:	e000      	b.n	3ee4 <_strtod_l+0x244>
    3ee2:	2500      	movs	r5, #0
    3ee4:	9b19      	ldr	r3, [sp, #100]	; 0x64
    3ee6:	9306      	str	r3, [sp, #24]
    3ee8:	3301      	adds	r3, #1
    3eea:	9319      	str	r3, [sp, #100]	; 0x64
    3eec:	9b06      	ldr	r3, [sp, #24]
    3eee:	785b      	ldrb	r3, [r3, #1]
    3ef0:	2b2b      	cmp	r3, #43	; 0x2b
    3ef2:	d006      	beq.n	3f02 <_strtod_l+0x262>
    3ef4:	2b2d      	cmp	r3, #45	; 0x2d
    3ef6:	d002      	beq.n	3efe <_strtod_l+0x25e>
    3ef8:	2400      	movs	r4, #0
    3efa:	9407      	str	r4, [sp, #28]
    3efc:	e008      	b.n	3f10 <_strtod_l+0x270>
    3efe:	2301      	movs	r3, #1
    3f00:	e000      	b.n	3f04 <_strtod_l+0x264>
    3f02:	2300      	movs	r3, #0
    3f04:	9307      	str	r3, [sp, #28]
    3f06:	9b06      	ldr	r3, [sp, #24]
    3f08:	3302      	adds	r3, #2
    3f0a:	9319      	str	r3, [sp, #100]	; 0x64
    3f0c:	9b06      	ldr	r3, [sp, #24]
    3f0e:	789b      	ldrb	r3, [r3, #2]
    3f10:	f1a3 0430 	sub.w	r4, r3, #48	; 0x30
    3f14:	2c09      	cmp	r4, #9
    3f16:	d829      	bhi.n	3f6c <_strtod_l+0x2cc>
    3f18:	2b30      	cmp	r3, #48	; 0x30
    3f1a:	d104      	bne.n	3f26 <_strtod_l+0x286>
    3f1c:	9b19      	ldr	r3, [sp, #100]	; 0x64
    3f1e:	1c5c      	adds	r4, r3, #1
    3f20:	9419      	str	r4, [sp, #100]	; 0x64
    3f22:	785b      	ldrb	r3, [r3, #1]
    3f24:	e7f8      	b.n	3f18 <_strtod_l+0x278>
    3f26:	f1a3 0431 	sub.w	r4, r3, #49	; 0x31
    3f2a:	2c08      	cmp	r4, #8
    3f2c:	d820      	bhi.n	3f70 <_strtod_l+0x2d0>
    3f2e:	f1a3 0730 	sub.w	r7, r3, #48	; 0x30
    3f32:	9b19      	ldr	r3, [sp, #100]	; 0x64
    3f34:	f04f 0e0a 	mov.w	lr, #10
    3f38:	461e      	mov	r6, r3
    3f3a:	9b19      	ldr	r3, [sp, #100]	; 0x64
    3f3c:	1c5c      	adds	r4, r3, #1
    3f3e:	9419      	str	r4, [sp, #100]	; 0x64
    3f40:	785b      	ldrb	r3, [r3, #1]
    3f42:	f1a3 0c30 	sub.w	r12, r3, #48	; 0x30
    3f46:	f1bc 0f09 	cmp.w	r12, #9
    3f4a:	d803      	bhi.n	3f54 <_strtod_l+0x2b4>
    3f4c:	fb0e 3707 	mla	r7, lr, r7, r3
    3f50:	3f30      	subs	r7, #48	; 0x30
    3f52:	e7f2      	b.n	3f3a <_strtod_l+0x29a>
    3f54:	1ba4      	subs	r4, r4, r6
    3f56:	2c08      	cmp	r4, #8
    3f58:	f644 641f 	movw	r4, #19999	; 0x4e1f
    3f5c:	dc02      	bgt.n	3f64 <_strtod_l+0x2c4>
    3f5e:	42bc      	cmp	r4, r7
    3f60:	bfa8      	it	ge
    3f62:	463c      	movge	r4, r7
    3f64:	9e07      	ldr	r6, [sp, #28]
    3f66:	b126      	cbz	r6, 3f72 <_strtod_l+0x2d2>
    3f68:	4264      	negs	r4, r4
    3f6a:	e002      	b.n	3f72 <_strtod_l+0x2d2>
    3f6c:	9c06      	ldr	r4, [sp, #24]
    3f6e:	9419      	str	r4, [sp, #100]	; 0x64
    3f70:	2400      	movs	r4, #0
    3f72:	2d00      	cmp	r5, #0
    3f74:	d154      	bne.n	4020 <_strtod_l+0x380>
    3f76:	2800      	cmp	r0, #0
    3f78:	f040 8451 	bne.w	481e <_strtod_l+0xb7e>
    3f7c:	9a08      	ldr	r2, [sp, #32]
    3f7e:	2a00      	cmp	r2, #0
    3f80:	f040 844d 	bne.w	481e <_strtod_l+0xb7e>
    3f84:	2900      	cmp	r1, #0
    3f86:	d141      	bne.n	400c <_strtod_l+0x36c>
    3f88:	2b4e      	cmp	r3, #78	; 0x4e
    3f8a:	d020      	beq.n	3fce <_strtod_l+0x32e>
    3f8c:	dc02      	bgt.n	3f94 <_strtod_l+0x2f4>
    3f8e:	2b49      	cmp	r3, #73	; 0x49
    3f90:	d00a      	beq.n	3fa8 <_strtod_l+0x308>
    3f92:	e03b      	b.n	400c <_strtod_l+0x36c>
    3f94:	2b69      	cmp	r3, #105	; 0x69
    3f96:	d007      	beq.n	3fa8 <_strtod_l+0x308>
    3f98:	2b6e      	cmp	r3, #110	; 0x6e
    3f9a:	d018      	beq.n	3fce <_strtod_l+0x32e>
    3f9c:	e036      	b.n	400c <_strtod_l+0x36c>
    3f9e:	bf00      	nop
    3fa0:	000085e8 	.word	0x000085e8
    3fa4:	7ff00000 	.word	0x7ff00000
    3fa8:	49ab      	ldr	r1, [pc, #684]	; (4258 <_strtod_l+0x5b8>)
    3faa:	a819      	add	r0, sp, #100	; 0x64
    3fac:	f001 ffb3 	bl	5f16 <__match>
    3fb0:	b360      	cbz	r0, 400c <_strtod_l+0x36c>
    3fb2:	9b19      	ldr	r3, [sp, #100]	; 0x64
    3fb4:	49a9      	ldr	r1, [pc, #676]	; (425c <_strtod_l+0x5bc>)
    3fb6:	3b01      	subs	r3, #1
    3fb8:	a819      	add	r0, sp, #100	; 0x64
    3fba:	9319      	str	r3, [sp, #100]	; 0x64
    3fbc:	f001 ffab 	bl	5f16 <__match>
    3fc0:	b910      	cbnz	r0, 3fc8 <_strtod_l+0x328>
    3fc2:	9b19      	ldr	r3, [sp, #100]	; 0x64
    3fc4:	3301      	adds	r3, #1
    3fc6:	9319      	str	r3, [sp, #100]	; 0x64
    3fc8:	f8df 92ac 	ldr.w	r9, [pc, #684]	; 4278 <_strtod_l+0x5d8>
    3fcc:	e01a      	b.n	4004 <_strtod_l+0x364>
    3fce:	49a4      	ldr	r1, [pc, #656]	; (4260 <_strtod_l+0x5c0>)
    3fd0:	a819      	add	r0, sp, #100	; 0x64
    3fd2:	f001 ffa0 	bl	5f16 <__match>
    3fd6:	b1c8      	cbz	r0, 400c <_strtod_l+0x36c>
    3fd8:	9b19      	ldr	r3, [sp, #100]	; 0x64
    3fda:	781b      	ldrb	r3, [r3, #0]
    3fdc:	2b28      	cmp	r3, #40	; 0x28
    3fde:	d10f      	bne.n	4000 <_strtod_l+0x360>
    3fe0:	aa1c      	add	r2, sp, #112	; 0x70
    3fe2:	49a0      	ldr	r1, [pc, #640]	; (4264 <_strtod_l+0x5c4>)
    3fe4:	a819      	add	r0, sp, #100	; 0x64
    3fe6:	f001 ffa9 	bl	5f3c <__hexnan>
    3fea:	2805      	cmp	r0, #5
    3fec:	d108      	bne.n	4000 <_strtod_l+0x360>
    3fee:	9b1d      	ldr	r3, [sp, #116]	; 0x74
    3ff0:	f8dd 8070 	ldr.w	r8, [sp, #112]	; 0x70
    3ff4:	f043 49ff 	orr.w	r9, r3, #2139095040	; 0x7f800000
    3ff8:	f449 09e0 	orr.w	r9, r9, #7340032	; 0x700000
    3ffc:	f000 bc0f 	b.w	481e <_strtod_l+0xb7e>
    4000:	f8df 9278 	ldr.w	r9, [pc, #632]	; 427c <_strtod_l+0x5dc>
    4004:	f04f 0800 	mov.w	r8, #0
    4008:	f000 bc09 	b.w	481e <_strtod_l+0xb7e>
    400c:	9b06      	ldr	r3, [sp, #24]
    400e:	9319      	str	r3, [sp, #100]	; 0x64
    4010:	9b15      	ldr	r3, [sp, #84]	; 0x54
    4012:	2b00      	cmp	r3, #0
    4014:	f000 840e 	beq.w	4834 <_strtod_l+0xb94>
    4018:	2300      	movs	r3, #0
    401a:	930e      	str	r3, [sp, #56]	; 0x38
    401c:	f000 bc01 	b.w	4822 <_strtod_l+0xb82>
    4020:	9b04      	ldr	r3, [sp, #16]
    4022:	1aa7      	subs	r7, r4, r2
    4024:	2b00      	cmp	r3, #0
    4026:	bf08      	it	eq
    4028:	462b      	moveq	r3, r5
    402a:	462c      	mov	r4, r5
    402c:	2d10      	cmp	r5, #16
    402e:	4658      	mov	r0, r11
    4030:	bfa8      	it	ge
    4032:	2410      	movge	r4, #16
    4034:	9304      	str	r3, [sp, #16]
    4036:	f003 f8f9 	bl	722c <__aeabi_ui2d>
    403a:	2c09      	cmp	r4, #9
    403c:	4680      	mov	r8, r0
    403e:	4689      	mov	r9, r1
    4040:	dd13      	ble.n	406a <_strtod_l+0x3ca>
    4042:	4b89      	ldr	r3, [pc, #548]	; (4268 <_strtod_l+0x5c8>)
    4044:	eb03 03c4 	add.w	r3, r3, r4, lsl #3
    4048:	e953 2312 	ldrd	r2, r3, [r3, #-72]	; 0x48
    404c:	f003 f964 	bl	7318 <__aeabi_dmul>
    4050:	4680      	mov	r8, r0
    4052:	9805      	ldr	r0, [sp, #20]
    4054:	4689      	mov	r9, r1
    4056:	f003 f8e9 	bl	722c <__aeabi_ui2d>
    405a:	4602      	mov	r2, r0
    405c:	460b      	mov	r3, r1
    405e:	4640      	mov	r0, r8
    4060:	4649      	mov	r1, r9
    4062:	f002 ffa7 	bl	6fb4 <__adddf3>
    4066:	4680      	mov	r8, r0
    4068:	4689      	mov	r9, r1
    406a:	2d0f      	cmp	r5, #15
    406c:	dc33      	bgt.n	40d6 <_strtod_l+0x436>
    406e:	2f00      	cmp	r7, #0
    4070:	f000 83d5 	beq.w	481e <_strtod_l+0xb7e>
    4074:	dd22      	ble.n	40bc <_strtod_l+0x41c>
    4076:	2f16      	cmp	r7, #22
    4078:	dc07      	bgt.n	408a <_strtod_l+0x3ea>
    407a:	4d7b      	ldr	r5, [pc, #492]	; (4268 <_strtod_l+0x5c8>)
    407c:	4642      	mov	r2, r8
    407e:	eb05 01c7 	add.w	r1, r5, r7, lsl #3
    4082:	464b      	mov	r3, r9
    4084:	e9d1 0100 	ldrd	r0, r1, [r1]
    4088:	e013      	b.n	40b2 <_strtod_l+0x412>
    408a:	f1c5 0325 	rsb	r3, r5, #37	; 0x25
    408e:	429f      	cmp	r7, r3
    4090:	dc21      	bgt.n	40d6 <_strtod_l+0x436>
    4092:	4c75      	ldr	r4, [pc, #468]	; (4268 <_strtod_l+0x5c8>)
    4094:	f1c5 050f 	rsb	r5, r5, #15
    4098:	eb04 01c5 	add.w	r1, r4, r5, lsl #3
    409c:	1b7d      	subs	r5, r7, r5
    409e:	4642      	mov	r2, r8
    40a0:	e9d1 0100 	ldrd	r0, r1, [r1]
    40a4:	464b      	mov	r3, r9
    40a6:	eb04 04c5 	add.w	r4, r4, r5, lsl #3
    40aa:	f003 f935 	bl	7318 <__aeabi_dmul>
    40ae:	e9d4 2300 	ldrd	r2, r3, [r4]
    40b2:	f003 f931 	bl	7318 <__aeabi_dmul>
    40b6:	4680      	mov	r8, r0
    40b8:	4689      	mov	r9, r1
    40ba:	e3b0      	b.n	481e <_strtod_l+0xb7e>
    40bc:	f117 0f16 	cmn.w	r7, #22
    40c0:	db09      	blt.n	40d6 <_strtod_l+0x436>
    40c2:	4d69      	ldr	r5, [pc, #420]	; (4268 <_strtod_l+0x5c8>)
    40c4:	4640      	mov	r0, r8
    40c6:	eba5 03c7 	sub.w	r3, r5, r7, lsl #3
    40ca:	e9d3 2300 	ldrd	r2, r3, [r3]
    40ce:	4649      	mov	r1, r9
    40d0:	f003 fa4c 	bl	756c <__aeabi_ddiv>
    40d4:	e7ef      	b.n	40b6 <_strtod_l+0x416>
    40d6:	1b2c      	subs	r4, r5, r4
    40d8:	443c      	add	r4, r7
    40da:	2c00      	cmp	r4, #0
    40dc:	dd5d      	ble.n	419a <_strtod_l+0x4fa>
    40de:	f014 010f 	ands.w	r1, r4, #15
    40e2:	d00a      	beq.n	40fa <_strtod_l+0x45a>
    40e4:	4b60      	ldr	r3, [pc, #384]	; (4268 <_strtod_l+0x5c8>)
    40e6:	4642      	mov	r2, r8
    40e8:	eb03 01c1 	add.w	r1, r3, r1, lsl #3
    40ec:	e9d1 0100 	ldrd	r0, r1, [r1]
    40f0:	464b      	mov	r3, r9
    40f2:	f003 f911 	bl	7318 <__aeabi_dmul>
    40f6:	4680      	mov	r8, r0
    40f8:	4689      	mov	r9, r1
    40fa:	f034 040f 	bics.w	r4, r4, #15
    40fe:	f000 80c1 	beq.w	4284 <_strtod_l+0x5e4>
    4102:	f5b4 7f9a 	cmp.w	r4, #308	; 0x134
    4106:	dd0f      	ble.n	4128 <_strtod_l+0x488>
    4108:	f04f 0b00 	mov.w	r11, #0
    410c:	f8cd b010 	str.w	r11, [sp, #16]
    4110:	f8cd b01c 	str.w	r11, [sp, #28]
    4114:	f8cd b018 	str.w	r11, [sp, #24]
    4118:	2322      	movs	r3, #34	; 0x22
    411a:	f8ca 3000 	str.w	r3, [r10]
    411e:	f8df 9158 	ldr.w	r9, [pc, #344]	; 4278 <_strtod_l+0x5d8>
    4122:	f04f 0800 	mov.w	r8, #0
    4126:	e189      	b.n	443c <_strtod_l+0x79c>
    4128:	4640      	mov	r0, r8
    412a:	4649      	mov	r1, r9
    412c:	2300      	movs	r3, #0
    412e:	4e4f      	ldr	r6, [pc, #316]	; (426c <_strtod_l+0x5cc>)
    4130:	1124      	asrs	r4, r4, #4
    4132:	9305      	str	r3, [sp, #20]
    4134:	2c01      	cmp	r4, #1
    4136:	dd0c      	ble.n	4152 <_strtod_l+0x4b2>
    4138:	07e2      	lsls	r2, r4, #31
    413a:	d504      	bpl.n	4146 <_strtod_l+0x4a6>
    413c:	e9d6 2300 	ldrd	r2, r3, [r6]
    4140:	f003 f8ea 	bl	7318 <__aeabi_dmul>
    4144:	2301      	movs	r3, #1
    4146:	9a05      	ldr	r2, [sp, #20]
    4148:	1064      	asrs	r4, r4, #1
    414a:	3201      	adds	r2, #1
    414c:	9205      	str	r2, [sp, #20]
    414e:	3608      	adds	r6, #8
    4150:	e7f0      	b.n	4134 <_strtod_l+0x494>
    4152:	b10b      	cbz	r3, 4158 <_strtod_l+0x4b8>
    4154:	4680      	mov	r8, r0
    4156:	4689      	mov	r9, r1
    4158:	4b44      	ldr	r3, [pc, #272]	; (426c <_strtod_l+0x5cc>)
    415a:	9a05      	ldr	r2, [sp, #20]
    415c:	f1a9 7954 	sub.w	r9, r9, #55574528	; 0x3500000
    4160:	eb03 01c2 	add.w	r1, r3, r2, lsl #3
    4164:	e9d1 0100 	ldrd	r0, r1, [r1]
    4168:	4642      	mov	r2, r8
    416a:	464b      	mov	r3, r9
    416c:	f003 f8d4 	bl	7318 <__aeabi_dmul>
    4170:	f021 4300 	bic.w	r3, r1, #2147483648	; 0x80000000
    4174:	4689      	mov	r9, r1
    4176:	460a      	mov	r2, r1
    4178:	0d1b      	lsrs	r3, r3, #20
    417a:	493d      	ldr	r1, [pc, #244]	; (4270 <_strtod_l+0x5d0>)
    417c:	051b      	lsls	r3, r3, #20
    417e:	428b      	cmp	r3, r1
    4180:	4680      	mov	r8, r0
    4182:	d8c1      	bhi.n	4108 <_strtod_l+0x468>
    4184:	f5a1 1180 	sub.w	r1, r1, #1048576	; 0x100000
    4188:	428b      	cmp	r3, r1
    418a:	bf86      	itte	hi
    418c:	f8df 90f0 	ldrhi.w	r9, [pc, #240]	; 4280 <_strtod_l+0x5e0>
    4190:	f04f 38ff 	movhi.w	r8, #4294967295
    4194:	f102 7954 	addls.w	r9, r2, #55574528	; 0x3500000
    4198:	e074      	b.n	4284 <_strtod_l+0x5e4>
    419a:	d073      	beq.n	4284 <_strtod_l+0x5e4>
    419c:	4264      	negs	r4, r4
    419e:	f014 020f 	ands.w	r2, r4, #15
    41a2:	d00a      	beq.n	41ba <_strtod_l+0x51a>
    41a4:	4b30      	ldr	r3, [pc, #192]	; (4268 <_strtod_l+0x5c8>)
    41a6:	4640      	mov	r0, r8
    41a8:	eb03 03c2 	add.w	r3, r3, r2, lsl #3
    41ac:	4649      	mov	r1, r9
    41ae:	e9d3 2300 	ldrd	r2, r3, [r3]
    41b2:	f003 f9db 	bl	756c <__aeabi_ddiv>
    41b6:	4680      	mov	r8, r0
    41b8:	4689      	mov	r9, r1
    41ba:	1124      	asrs	r4, r4, #4
    41bc:	d062      	beq.n	4284 <_strtod_l+0x5e4>
    41be:	2c1f      	cmp	r4, #31
    41c0:	dd08      	ble.n	41d4 <_strtod_l+0x534>
    41c2:	f04f 0b00 	mov.w	r11, #0
    41c6:	f8cd b010 	str.w	r11, [sp, #16]
    41ca:	f8cd b01c 	str.w	r11, [sp, #28]
    41ce:	f8cd b018 	str.w	r11, [sp, #24]
    41d2:	e12c      	b.n	442e <_strtod_l+0x78e>
    41d4:	4640      	mov	r0, r8
    41d6:	4649      	mov	r1, r9
    41d8:	f014 0f10 	tst.w	r4, #16
    41dc:	bf0c      	ite	eq
    41de:	2300      	moveq	r3, #0
    41e0:	236a      	movne	r3, #106	; 0x6a
    41e2:	4e24      	ldr	r6, [pc, #144]	; (4274 <_strtod_l+0x5d4>)
    41e4:	9305      	str	r3, [sp, #20]
    41e6:	2300      	movs	r3, #0
    41e8:	2c00      	cmp	r4, #0
    41ea:	dd09      	ble.n	4200 <_strtod_l+0x560>
    41ec:	07e2      	lsls	r2, r4, #31
    41ee:	d504      	bpl.n	41fa <_strtod_l+0x55a>
    41f0:	e9d6 2300 	ldrd	r2, r3, [r6]
    41f4:	f003 f890 	bl	7318 <__aeabi_dmul>
    41f8:	2301      	movs	r3, #1
    41fa:	1064      	asrs	r4, r4, #1
    41fc:	3608      	adds	r6, #8
    41fe:	e7f3      	b.n	41e8 <_strtod_l+0x548>
    4200:	b10b      	cbz	r3, 4206 <_strtod_l+0x566>
    4202:	4680      	mov	r8, r0
    4204:	4689      	mov	r9, r1
    4206:	9b05      	ldr	r3, [sp, #20]
    4208:	b1eb      	cbz	r3, 4246 <_strtod_l+0x5a6>
    420a:	f3c9 530a 	ubfx	r3, r9, #20, #11
    420e:	f1c3 036b 	rsb	r3, r3, #107	; 0x6b
    4212:	2b00      	cmp	r3, #0
    4214:	4649      	mov	r1, r9
    4216:	dd16      	ble.n	4246 <_strtod_l+0x5a6>
    4218:	2b1f      	cmp	r3, #31
    421a:	dd0e      	ble.n	423a <_strtod_l+0x59a>
    421c:	2b34      	cmp	r3, #52	; 0x34
    421e:	bfde      	ittt	le
    4220:	3b20      	suble	r3, #32
    4222:	f04f 32ff 	movle.w	r2, #4294967295
    4226:	fa02 f303 	lslle.w	r3, r2, r3
    422a:	f04f 0800 	mov.w	r8, #0
    422e:	bfcc      	ite	gt
    4230:	f04f 795c 	movgt.w	r9, #57671680	; 0x3700000
    4234:	ea03 0901 	andle.w	r9, r3, r1
    4238:	e005      	b.n	4246 <_strtod_l+0x5a6>
    423a:	f04f 32ff 	mov.w	r2, #4294967295
    423e:	fa02 f303 	lsl.w	r3, r2, r3
    4242:	ea03 0808 	and.w	r8, r3, r8
    4246:	2200      	movs	r2, #0
    4248:	2300      	movs	r3, #0
    424a:	4640      	mov	r0, r8
    424c:	4649      	mov	r1, r9
    424e:	f003 facb 	bl	77e8 <__aeabi_dcmpeq>
    4252:	2800      	cmp	r0, #0
    4254:	d1b5      	bne.n	41c2 <_strtod_l+0x522>
    4256:	e017      	b.n	4288 <_strtod_l+0x5e8>
    4258:	00008566 	.word	0x00008566
    425c:	00008613 	.word	0x00008613
    4260:	0000856e 	.word	0x0000856e
    4264:	000085fc 	.word	0x000085fc
    4268:	00008628 	.word	0x00008628
    426c:	000086f0 	.word	0x000086f0
    4270:	7ca00000 	.word	0x7ca00000
    4274:	000085c0 	.word	0x000085c0
    4278:	7ff00000 	.word	0x7ff00000
    427c:	fff80000 	.word	0xfff80000
    4280:	7fefffff 	.word	0x7fefffff
    4284:	2300      	movs	r3, #0
    4286:	9305      	str	r3, [sp, #20]
    4288:	f8cd b000 	str.w	r11, [sp]
    428c:	462b      	mov	r3, r5
    428e:	9a04      	ldr	r2, [sp, #16]
    4290:	9909      	ldr	r1, [sp, #36]	; 0x24
    4292:	4650      	mov	r0, r10
    4294:	f001 ffc7 	bl	6226 <__s2b>
    4298:	9007      	str	r0, [sp, #28]
    429a:	2800      	cmp	r0, #0
    429c:	f43f af34 	beq.w	4108 <_strtod_l+0x468>
    42a0:	2f00      	cmp	r7, #0
    42a2:	f1c7 0300 	rsb	r3, r7, #0
    42a6:	bfa8      	it	ge
    42a8:	2300      	movge	r3, #0
    42aa:	930f      	str	r3, [sp, #60]	; 0x3c
    42ac:	f04f 0b00 	mov.w	r11, #0
    42b0:	ea27 73e7 	bic.w	r3, r7, r7, asr #31
    42b4:	9314      	str	r3, [sp, #80]	; 0x50
    42b6:	f8cd b010 	str.w	r11, [sp, #16]
    42ba:	9b07      	ldr	r3, [sp, #28]
    42bc:	4650      	mov	r0, r10
    42be:	6859      	ldr	r1, [r3, #4]
    42c0:	f001 ff2a 	bl	6118 <_Balloc>
    42c4:	9006      	str	r0, [sp, #24]
    42c6:	2800      	cmp	r0, #0
    42c8:	f43f af26 	beq.w	4118 <_strtod_l+0x478>
    42cc:	9b07      	ldr	r3, [sp, #28]
    42ce:	300c      	adds	r0, #12
    42d0:	691a      	ldr	r2, [r3, #16]
    42d2:	f103 010c 	add.w	r1, r3, #12
    42d6:	3202      	adds	r2, #2
    42d8:	0092      	lsls	r2, r2, #2
    42da:	f7fe f8f3 	bl	24c4 <memcpy>
    42de:	ab1c      	add	r3, sp, #112	; 0x70
    42e0:	9301      	str	r3, [sp, #4]
    42e2:	ab1b      	add	r3, sp, #108	; 0x6c
    42e4:	9300      	str	r3, [sp, #0]
    42e6:	4642      	mov	r2, r8
    42e8:	464b      	mov	r3, r9
    42ea:	4650      	mov	r0, r10
    42ec:	e9cd 890a 	strd	r8, r9, [sp, #40]	; 0x28
    42f0:	f002 fa49 	bl	6786 <__d2b>
    42f4:	901a      	str	r0, [sp, #104]	; 0x68
    42f6:	2800      	cmp	r0, #0
    42f8:	f43f af0e 	beq.w	4118 <_strtod_l+0x478>
    42fc:	2101      	movs	r1, #1
    42fe:	4650      	mov	r0, r10
    4300:	f002 f81c 	bl	633c <__i2b>
    4304:	9004      	str	r0, [sp, #16]
    4306:	2800      	cmp	r0, #0
    4308:	f43f af06 	beq.w	4118 <_strtod_l+0x478>
    430c:	9b1b      	ldr	r3, [sp, #108]	; 0x6c
    430e:	9905      	ldr	r1, [sp, #20]
    4310:	2b00      	cmp	r3, #0
    4312:	bfac      	ite	ge
    4314:	9a0f      	ldrge	r2, [sp, #60]	; 0x3c
    4316:	9a14      	ldrlt	r2, [sp, #80]	; 0x50
    4318:	9c1c      	ldr	r4, [sp, #112]	; 0x70
    431a:	bfac      	ite	ge
    431c:	18d6      	addge	r6, r2, r3
    431e:	1ad2      	sublt	r2, r2, r3
    4320:	eba3 0301 	sub.w	r3, r3, r1
    4324:	4423      	add	r3, r4
    4326:	49b1      	ldr	r1, [pc, #708]	; (45ec <_strtod_l+0x94c>)
    4328:	f103 33ff 	add.w	r3, r3, #4294967295
    432c:	bfac      	ite	ge
    432e:	9a14      	ldrge	r2, [sp, #80]	; 0x50
    4330:	9e0f      	ldrlt	r6, [sp, #60]	; 0x3c
    4332:	428b      	cmp	r3, r1
    4334:	f1c4 0436 	rsb	r4, r4, #54	; 0x36
    4338:	f280 8085 	bge.w	4446 <_strtod_l+0x7a6>
    433c:	1ac9      	subs	r1, r1, r3
    433e:	291f      	cmp	r1, #31
    4340:	bfc8      	it	gt
    4342:	4dab      	ldrgt	r5, [pc, #684]	; (45f0 <_strtod_l+0x950>)
    4344:	f04f 0701 	mov.w	r7, #1
    4348:	bfd4      	ite	le
    434a:	fa07 f301 	lslle.w	r3, r7, r1
    434e:	1aed      	subgt	r5, r5, r3
    4350:	eba4 0401 	sub.w	r4, r4, r1
    4354:	bfd9      	ittee	le
    4356:	9309      	strle	r3, [sp, #36]	; 0x24
    4358:	2500      	movle	r5, #0
    435a:	fa07 f505 	lslgt.w	r5, r7, r5
    435e:	9709      	strgt	r7, [sp, #36]	; 0x24
    4360:	1937      	adds	r7, r6, r4
    4362:	9b05      	ldr	r3, [sp, #20]
    4364:	42be      	cmp	r6, r7
    4366:	4414      	add	r4, r2
    4368:	441c      	add	r4, r3
    436a:	4633      	mov	r3, r6
    436c:	bfa8      	it	ge
    436e:	463b      	movge	r3, r7
    4370:	42a3      	cmp	r3, r4
    4372:	bfa8      	it	ge
    4374:	4623      	movge	r3, r4
    4376:	2b00      	cmp	r3, #0
    4378:	bfc2      	ittt	gt
    437a:	1aff      	subgt	r7, r7, r3
    437c:	1ae4      	subgt	r4, r4, r3
    437e:	1af6      	subgt	r6, r6, r3
    4380:	9b0f      	ldr	r3, [sp, #60]	; 0x3c
    4382:	2b00      	cmp	r3, #0
    4384:	d163      	bne.n	444e <_strtod_l+0x7ae>
    4386:	2f00      	cmp	r7, #0
    4388:	dc7a      	bgt.n	4480 <_strtod_l+0x7e0>
    438a:	9b14      	ldr	r3, [sp, #80]	; 0x50
    438c:	2b00      	cmp	r3, #0
    438e:	f040 8081 	bne.w	4494 <_strtod_l+0x7f4>
    4392:	2c00      	cmp	r4, #0
    4394:	f300 8088 	bgt.w	44a8 <_strtod_l+0x808>
    4398:	2e00      	cmp	r6, #0
    439a:	f300 808f 	bgt.w	44bc <_strtod_l+0x81c>
    439e:	9a06      	ldr	r2, [sp, #24]
    43a0:	991a      	ldr	r1, [sp, #104]	; 0x68
    43a2:	4650      	mov	r0, r10
    43a4:	f002 f91f 	bl	65e6 <__mdiff>
    43a8:	4683      	mov	r11, r0
    43aa:	2800      	cmp	r0, #0
    43ac:	f43f aeb4 	beq.w	4118 <_strtod_l+0x478>
    43b0:	68c3      	ldr	r3, [r0, #12]
    43b2:	2400      	movs	r4, #0
    43b4:	60c4      	str	r4, [r0, #12]
    43b6:	9904      	ldr	r1, [sp, #16]
    43b8:	9308      	str	r3, [sp, #32]
    43ba:	f002 f8f8 	bl	65ae <__mcmp>
    43be:	42a0      	cmp	r0, r4
    43c0:	f280 808b 	bge.w	44da <_strtod_l+0x83a>
    43c4:	9b08      	ldr	r3, [sp, #32]
    43c6:	2b00      	cmp	r3, #0
    43c8:	f040 8202 	bne.w	47d0 <_strtod_l+0xb30>
    43cc:	f1b8 0f00 	cmp.w	r8, #0
    43d0:	f040 81fe 	bne.w	47d0 <_strtod_l+0xb30>
    43d4:	f3c9 0313 	ubfx	r3, r9, #0, #20
    43d8:	2b00      	cmp	r3, #0
    43da:	f040 81f9 	bne.w	47d0 <_strtod_l+0xb30>
    43de:	f029 4300 	bic.w	r3, r9, #2147483648	; 0x80000000
    43e2:	0d1b      	lsrs	r3, r3, #20
    43e4:	051b      	lsls	r3, r3, #20
    43e6:	f1b3 6fd6 	cmp.w	r3, #112197632	; 0x6b00000
    43ea:	f240 81f1 	bls.w	47d0 <_strtod_l+0xb30>
    43ee:	f8db 3014 	ldr.w	r3, [r11, #20]
    43f2:	2b00      	cmp	r3, #0
    43f4:	d06c      	beq.n	44d0 <_strtod_l+0x830>
    43f6:	4659      	mov	r1, r11
    43f8:	2201      	movs	r2, #1
    43fa:	4650      	mov	r0, r10
    43fc:	f002 f886 	bl	650c <__lshift>
    4400:	9904      	ldr	r1, [sp, #16]
    4402:	4683      	mov	r11, r0
    4404:	f002 f8d3 	bl	65ae <__mcmp>
    4408:	2800      	cmp	r0, #0
    440a:	f340 81e1 	ble.w	47d0 <_strtod_l+0xb30>
    440e:	f029 4300 	bic.w	r3, r9, #2147483648	; 0x80000000
    4412:	9a05      	ldr	r2, [sp, #20]
    4414:	0d1b      	lsrs	r3, r3, #20
    4416:	051b      	lsls	r3, r3, #20
    4418:	2a00      	cmp	r2, #0
    441a:	f000 808d 	beq.w	4538 <_strtod_l+0x898>
    441e:	f1b3 6fd6 	cmp.w	r3, #112197632	; 0x6b00000
    4422:	f300 8089 	bgt.w	4538 <_strtod_l+0x898>
    4426:	f1b3 7f5c 	cmp.w	r3, #57671680	; 0x3700000
    442a:	f300 81d3 	bgt.w	47d4 <_strtod_l+0xb34>
    442e:	2322      	movs	r3, #34	; 0x22
    4430:	f04f 0800 	mov.w	r8, #0
    4434:	f04f 0900 	mov.w	r9, #0
    4438:	f8ca 3000 	str.w	r3, [r10]
    443c:	9b07      	ldr	r3, [sp, #28]
    443e:	2b00      	cmp	r3, #0
    4440:	f040 81d9 	bne.w	47f6 <_strtod_l+0xb56>
    4444:	e1eb      	b.n	481e <_strtod_l+0xb7e>
    4446:	2301      	movs	r3, #1
    4448:	2500      	movs	r5, #0
    444a:	9309      	str	r3, [sp, #36]	; 0x24
    444c:	e788      	b.n	4360 <_strtod_l+0x6c0>
    444e:	461a      	mov	r2, r3
    4450:	9904      	ldr	r1, [sp, #16]
    4452:	4650      	mov	r0, r10
    4454:	f002 f80c 	bl	6470 <__pow5mult>
    4458:	9004      	str	r0, [sp, #16]
    445a:	2800      	cmp	r0, #0
    445c:	f43f ae5c 	beq.w	4118 <_strtod_l+0x478>
    4460:	4601      	mov	r1, r0
    4462:	9a1a      	ldr	r2, [sp, #104]	; 0x68
    4464:	4650      	mov	r0, r10
    4466:	f001 ff72 	bl	634e <__multiply>
    446a:	9008      	str	r0, [sp, #32]
    446c:	2800      	cmp	r0, #0
    446e:	f43f ae53 	beq.w	4118 <_strtod_l+0x478>
    4472:	991a      	ldr	r1, [sp, #104]	; 0x68
    4474:	4650      	mov	r0, r10
    4476:	f001 fe84 	bl	6182 <_Bfree>
    447a:	9b08      	ldr	r3, [sp, #32]
    447c:	931a      	str	r3, [sp, #104]	; 0x68
    447e:	e782      	b.n	4386 <_strtod_l+0x6e6>
    4480:	463a      	mov	r2, r7
    4482:	991a      	ldr	r1, [sp, #104]	; 0x68
    4484:	4650      	mov	r0, r10
    4486:	f002 f841 	bl	650c <__lshift>
    448a:	901a      	str	r0, [sp, #104]	; 0x68
    448c:	2800      	cmp	r0, #0
    448e:	f47f af7c 	bne.w	438a <_strtod_l+0x6ea>
    4492:	e641      	b.n	4118 <_strtod_l+0x478>
    4494:	9a14      	ldr	r2, [sp, #80]	; 0x50
    4496:	9906      	ldr	r1, [sp, #24]
    4498:	4650      	mov	r0, r10
    449a:	f001 ffe9 	bl	6470 <__pow5mult>
    449e:	9006      	str	r0, [sp, #24]
    44a0:	2800      	cmp	r0, #0
    44a2:	f47f af76 	bne.w	4392 <_strtod_l+0x6f2>
    44a6:	e637      	b.n	4118 <_strtod_l+0x478>
    44a8:	4622      	mov	r2, r4
    44aa:	9906      	ldr	r1, [sp, #24]
    44ac:	4650      	mov	r0, r10
    44ae:	f002 f82d 	bl	650c <__lshift>
    44b2:	9006      	str	r0, [sp, #24]
    44b4:	2800      	cmp	r0, #0
    44b6:	f47f af6f 	bne.w	4398 <_strtod_l+0x6f8>
    44ba:	e62d      	b.n	4118 <_strtod_l+0x478>
    44bc:	4632      	mov	r2, r6
    44be:	9904      	ldr	r1, [sp, #16]
    44c0:	4650      	mov	r0, r10
    44c2:	f002 f823 	bl	650c <__lshift>
    44c6:	9004      	str	r0, [sp, #16]
    44c8:	2800      	cmp	r0, #0
    44ca:	f47f af68 	bne.w	439e <_strtod_l+0x6fe>
    44ce:	e623      	b.n	4118 <_strtod_l+0x478>
    44d0:	f8db 3010 	ldr.w	r3, [r11, #16]
    44d4:	2b01      	cmp	r3, #1
    44d6:	dc8e      	bgt.n	43f6 <_strtod_l+0x756>
    44d8:	e17a      	b.n	47d0 <_strtod_l+0xb30>
    44da:	d161      	bne.n	45a0 <_strtod_l+0x900>
    44dc:	9a08      	ldr	r2, [sp, #32]
    44de:	f3c9 0313 	ubfx	r3, r9, #0, #20
    44e2:	b322      	cbz	r2, 452e <_strtod_l+0x88e>
    44e4:	4943      	ldr	r1, [pc, #268]	; (45f4 <_strtod_l+0x954>)
    44e6:	464a      	mov	r2, r9
    44e8:	428b      	cmp	r3, r1
    44ea:	d12e      	bne.n	454a <_strtod_l+0x8aa>
    44ec:	9b05      	ldr	r3, [sp, #20]
    44ee:	4641      	mov	r1, r8
    44f0:	b163      	cbz	r3, 450c <_strtod_l+0x86c>
    44f2:	4b41      	ldr	r3, [pc, #260]	; (45f8 <_strtod_l+0x958>)
    44f4:	4013      	ands	r3, r2
    44f6:	f1b3 6fd4 	cmp.w	r3, #111149056	; 0x6a00000
    44fa:	d807      	bhi.n	450c <_strtod_l+0x86c>
    44fc:	0d1b      	lsrs	r3, r3, #20
    44fe:	f1c3 036b 	rsb	r3, r3, #107	; 0x6b
    4502:	f04f 30ff 	mov.w	r0, #4294967295
    4506:	fa00 f303 	lsl.w	r3, r0, r3
    450a:	e001      	b.n	4510 <_strtod_l+0x870>
    450c:	f04f 33ff 	mov.w	r3, #4294967295
    4510:	428b      	cmp	r3, r1
    4512:	d11a      	bne.n	454a <_strtod_l+0x8aa>
    4514:	4939      	ldr	r1, [pc, #228]	; (45fc <_strtod_l+0x95c>)
    4516:	428a      	cmp	r2, r1
    4518:	d102      	bne.n	4520 <_strtod_l+0x880>
    451a:	3301      	adds	r3, #1
    451c:	f43f adfc 	beq.w	4118 <_strtod_l+0x478>
    4520:	4b35      	ldr	r3, [pc, #212]	; (45f8 <_strtod_l+0x958>)
    4522:	f04f 0800 	mov.w	r8, #0
    4526:	4013      	ands	r3, r2
    4528:	f503 1980 	add.w	r9, r3, #1048576	; 0x100000
    452c:	e150      	b.n	47d0 <_strtod_l+0xb30>
    452e:	b963      	cbnz	r3, 454a <_strtod_l+0x8aa>
    4530:	f1b8 0f00 	cmp.w	r8, #0
    4534:	d109      	bne.n	454a <_strtod_l+0x8aa>
    4536:	e76a      	b.n	440e <_strtod_l+0x76e>
    4538:	f5a3 1380 	sub.w	r3, r3, #1048576	; 0x100000
    453c:	ea6f 5913 	mvn.w	r9, r3, lsr #20
    4540:	f04f 38ff 	mov.w	r8, #4294967295
    4544:	ea6f 5909 	mvn.w	r9, r9, lsl #20
    4548:	e142      	b.n	47d0 <_strtod_l+0xb30>
    454a:	b115      	cbz	r5, 4552 <_strtod_l+0x8b2>
    454c:	ea15 0f09 	tst.w	r5, r9
    4550:	e002      	b.n	4558 <_strtod_l+0x8b8>
    4552:	9b09      	ldr	r3, [sp, #36]	; 0x24
    4554:	ea13 0f08 	tst.w	r3, r8
    4558:	f000 813a 	beq.w	47d0 <_strtod_l+0xb30>
    455c:	9b08      	ldr	r3, [sp, #32]
    455e:	9a05      	ldr	r2, [sp, #20]
    4560:	4640      	mov	r0, r8
    4562:	4649      	mov	r1, r9
    4564:	b153      	cbz	r3, 457c <_strtod_l+0x8dc>
    4566:	f7ff fb79 	bl	3c5c <sulp>
    456a:	4602      	mov	r2, r0
    456c:	460b      	mov	r3, r1
    456e:	e9dd 010a 	ldrd	r0, r1, [sp, #40]	; 0x28
    4572:	f002 fd1f 	bl	6fb4 <__adddf3>
    4576:	4680      	mov	r8, r0
    4578:	4689      	mov	r9, r1
    457a:	e129      	b.n	47d0 <_strtod_l+0xb30>
    457c:	f7ff fb6e 	bl	3c5c <sulp>
    4580:	4602      	mov	r2, r0
    4582:	460b      	mov	r3, r1
    4584:	e9dd 010a 	ldrd	r0, r1, [sp, #40]	; 0x28
    4588:	f002 fd12 	bl	6fb0 <__aeabi_dsub>
    458c:	2200      	movs	r2, #0
    458e:	2300      	movs	r3, #0
    4590:	4680      	mov	r8, r0
    4592:	4689      	mov	r9, r1
    4594:	f003 f928 	bl	77e8 <__aeabi_dcmpeq>
    4598:	2800      	cmp	r0, #0
    459a:	f47f af48 	bne.w	442e <_strtod_l+0x78e>
    459e:	e117      	b.n	47d0 <_strtod_l+0xb30>
    45a0:	9904      	ldr	r1, [sp, #16]
    45a2:	4658      	mov	r0, r11
    45a4:	f002 f93d 	bl	6822 <__ratio>
    45a8:	2200      	movs	r2, #0
    45aa:	f04f 4380 	mov.w	r3, #1073741824	; 0x40000000
    45ae:	4606      	mov	r6, r0
    45b0:	460f      	mov	r7, r1
    45b2:	f003 f92d 	bl	7810 <__aeabi_dcmple>
    45b6:	2800      	cmp	r0, #0
    45b8:	d03f      	beq.n	463a <_strtod_l+0x99a>
    45ba:	9b08      	ldr	r3, [sp, #32]
    45bc:	b113      	cbz	r3, 45c4 <_strtod_l+0x924>
    45be:	2600      	movs	r6, #0
    45c0:	4f0f      	ldr	r7, [pc, #60]	; (4600 <_strtod_l+0x960>)
    45c2:	e010      	b.n	45e6 <_strtod_l+0x946>
    45c4:	f1b8 0f00 	cmp.w	r8, #0
    45c8:	d103      	bne.n	45d2 <_strtod_l+0x932>
    45ca:	f3c9 0313 	ubfx	r3, r9, #0, #20
    45ce:	b93b      	cbnz	r3, 45e0 <_strtod_l+0x940>
    45d0:	e01a      	b.n	4608 <_strtod_l+0x968>
    45d2:	f1b8 0f01 	cmp.w	r8, #1
    45d6:	d103      	bne.n	45e0 <_strtod_l+0x940>
    45d8:	f1b9 0f00 	cmp.w	r9, #0
    45dc:	f43f af27 	beq.w	442e <_strtod_l+0x78e>
    45e0:	4f08      	ldr	r7, [pc, #32]	; (4604 <_strtod_l+0x964>)
    45e2:	2600      	movs	r6, #0
    45e4:	2400      	movs	r4, #0
    45e6:	4d06      	ldr	r5, [pc, #24]	; (4600 <_strtod_l+0x960>)
    45e8:	e03c      	b.n	4664 <_strtod_l+0x9c4>
    45ea:	bf00      	nop
    45ec:	fffffc02 	.word	0xfffffc02
    45f0:	fffffbe2 	.word	0xfffffbe2
    45f4:	000fffff 	.word	0x000fffff
    45f8:	7ff00000 	.word	0x7ff00000
    45fc:	7fefffff 	.word	0x7fefffff
    4600:	3ff00000 	.word	0x3ff00000
    4604:	bff00000 	.word	0xbff00000
    4608:	2200      	movs	r2, #0
    460a:	4b99      	ldr	r3, [pc, #612]	; (4870 <_strtod_l+0xbd0>)
    460c:	4630      	mov	r0, r6
    460e:	4639      	mov	r1, r7
    4610:	f003 f8f4 	bl	77fc <__aeabi_dcmplt>
    4614:	b940      	cbnz	r0, 4628 <_strtod_l+0x988>
    4616:	2200      	movs	r2, #0
    4618:	4b96      	ldr	r3, [pc, #600]	; (4874 <_strtod_l+0xbd4>)
    461a:	4630      	mov	r0, r6
    461c:	4639      	mov	r1, r7
    461e:	f002 fe7b 	bl	7318 <__aeabi_dmul>
    4622:	4604      	mov	r4, r0
    4624:	460d      	mov	r5, r1
    4626:	e001      	b.n	462c <_strtod_l+0x98c>
    4628:	9c08      	ldr	r4, [sp, #32]
    462a:	4d92      	ldr	r5, [pc, #584]	; (4874 <_strtod_l+0xbd4>)
    462c:	f105 4300 	add.w	r3, r5, #2147483648	; 0x80000000
    4630:	9416      	str	r4, [sp, #88]	; 0x58
    4632:	9317      	str	r3, [sp, #92]	; 0x5c
    4634:	e9dd 6716 	ldrd	r6, r7, [sp, #88]	; 0x58
    4638:	e014      	b.n	4664 <_strtod_l+0x9c4>
    463a:	4b8e      	ldr	r3, [pc, #568]	; (4874 <_strtod_l+0xbd4>)
    463c:	2200      	movs	r2, #0
    463e:	4630      	mov	r0, r6
    4640:	4639      	mov	r1, r7
    4642:	f002 fe69 	bl	7318 <__aeabi_dmul>
    4646:	9b08      	ldr	r3, [sp, #32]
    4648:	4604      	mov	r4, r0
    464a:	460d      	mov	r5, r1
    464c:	b923      	cbnz	r3, 4658 <_strtod_l+0x9b8>
    464e:	f101 4300 	add.w	r3, r1, #2147483648	; 0x80000000
    4652:	9010      	str	r0, [sp, #64]	; 0x40
    4654:	9311      	str	r3, [sp, #68]	; 0x44
    4656:	e003      	b.n	4660 <_strtod_l+0x9c0>
    4658:	4602      	mov	r2, r0
    465a:	460b      	mov	r3, r1
    465c:	e9cd 2310 	strd	r2, r3, [sp, #64]	; 0x40
    4660:	e9dd 6710 	ldrd	r6, r7, [sp, #64]	; 0x40
    4664:	f029 4300 	bic.w	r3, r9, #2147483648	; 0x80000000
    4668:	0d1b      	lsrs	r3, r3, #20
    466a:	051b      	lsls	r3, r3, #20
    466c:	9309      	str	r3, [sp, #36]	; 0x24
    466e:	9a09      	ldr	r2, [sp, #36]	; 0x24
    4670:	4b81      	ldr	r3, [pc, #516]	; (4878 <_strtod_l+0xbd8>)
    4672:	429a      	cmp	r2, r3
    4674:	d12b      	bne.n	46ce <_strtod_l+0xa2e>
    4676:	e9dd 230a 	ldrd	r2, r3, [sp, #40]	; 0x28
    467a:	f1a9 7954 	sub.w	r9, r9, #55574528	; 0x3500000
    467e:	4640      	mov	r0, r8
    4680:	4649      	mov	r1, r9
    4682:	e9cd 230c 	strd	r2, r3, [sp, #48]	; 0x30
    4686:	f002 f80d 	bl	66a4 <__ulp>
    468a:	4602      	mov	r2, r0
    468c:	460b      	mov	r3, r1
    468e:	4630      	mov	r0, r6
    4690:	4639      	mov	r1, r7
    4692:	f002 fe41 	bl	7318 <__aeabi_dmul>
    4696:	4642      	mov	r2, r8
    4698:	464b      	mov	r3, r9
    469a:	f002 fc8b 	bl	6fb4 <__adddf3>
    469e:	f021 4300 	bic.w	r3, r1, #2147483648	; 0x80000000
    46a2:	0d1b      	lsrs	r3, r3, #20
    46a4:	4a75      	ldr	r2, [pc, #468]	; (487c <_strtod_l+0xbdc>)
    46a6:	051b      	lsls	r3, r3, #20
    46a8:	4293      	cmp	r3, r2
    46aa:	4680      	mov	r8, r0
    46ac:	d90c      	bls.n	46c8 <_strtod_l+0xa28>
    46ae:	4b74      	ldr	r3, [pc, #464]	; (4880 <_strtod_l+0xbe0>)
    46b0:	9a0d      	ldr	r2, [sp, #52]	; 0x34
    46b2:	429a      	cmp	r2, r3
    46b4:	d103      	bne.n	46be <_strtod_l+0xa1e>
    46b6:	9b0c      	ldr	r3, [sp, #48]	; 0x30
    46b8:	3301      	adds	r3, #1
    46ba:	f43f ad2d 	beq.w	4118 <_strtod_l+0x478>
    46be:	f8df 91c0 	ldr.w	r9, [pc, #448]	; 4880 <_strtod_l+0xbe0>
    46c2:	f04f 38ff 	mov.w	r8, #4294967295
    46c6:	e072      	b.n	47ae <_strtod_l+0xb0e>
    46c8:	f101 7954 	add.w	r9, r1, #55574528	; 0x3500000
    46cc:	e039      	b.n	4742 <_strtod_l+0xaa2>
    46ce:	9b05      	ldr	r3, [sp, #20]
    46d0:	b33b      	cbz	r3, 4722 <_strtod_l+0xa82>
    46d2:	9b09      	ldr	r3, [sp, #36]	; 0x24
    46d4:	f1b3 6fd4 	cmp.w	r3, #111149056	; 0x6a00000
    46d8:	d823      	bhi.n	4722 <_strtod_l+0xa82>
    46da:	a35d      	add	r3, pc, #372	; (adr r3, 4850 <_strtod_l+0xbb0>)
    46dc:	e9d3 2300 	ldrd	r2, r3, [r3]
    46e0:	4620      	mov	r0, r4
    46e2:	4629      	mov	r1, r5
    46e4:	f003 f894 	bl	7810 <__aeabi_dcmple>
    46e8:	b1b8      	cbz	r0, 471a <_strtod_l+0xa7a>
    46ea:	4629      	mov	r1, r5
    46ec:	4620      	mov	r0, r4
    46ee:	f003 f8eb 	bl	78c8 <__aeabi_d2uiz>
    46f2:	2800      	cmp	r0, #0
    46f4:	bf08      	it	eq
    46f6:	2001      	moveq	r0, #1
    46f8:	f002 fd98 	bl	722c <__aeabi_ui2d>
    46fc:	9b08      	ldr	r3, [sp, #32]
    46fe:	4604      	mov	r4, r0
    4700:	460d      	mov	r5, r1
    4702:	b923      	cbnz	r3, 470e <_strtod_l+0xa6e>
    4704:	f101 4300 	add.w	r3, r1, #2147483648	; 0x80000000
    4708:	9012      	str	r0, [sp, #72]	; 0x48
    470a:	9313      	str	r3, [sp, #76]	; 0x4c
    470c:	e003      	b.n	4716 <_strtod_l+0xa76>
    470e:	4602      	mov	r2, r0
    4710:	460b      	mov	r3, r1
    4712:	e9cd 2312 	strd	r2, r3, [sp, #72]	; 0x48
    4716:	e9dd 6712 	ldrd	r6, r7, [sp, #72]	; 0x48
    471a:	9a09      	ldr	r2, [sp, #36]	; 0x24
    471c:	f107 63d6 	add.w	r3, r7, #112197632	; 0x6b00000
    4720:	1a9f      	subs	r7, r3, r2
    4722:	e9dd 010a 	ldrd	r0, r1, [sp, #40]	; 0x28
    4726:	f001 ffbd 	bl	66a4 <__ulp>
    472a:	4602      	mov	r2, r0
    472c:	460b      	mov	r3, r1
    472e:	4630      	mov	r0, r6
    4730:	4639      	mov	r1, r7
    4732:	f002 fdf1 	bl	7318 <__aeabi_dmul>
    4736:	e9dd 230a 	ldrd	r2, r3, [sp, #40]	; 0x28
    473a:	f002 fc3b 	bl	6fb4 <__adddf3>
    473e:	4680      	mov	r8, r0
    4740:	4689      	mov	r9, r1
    4742:	9b05      	ldr	r3, [sp, #20]
    4744:	bb9b      	cbnz	r3, 47ae <_strtod_l+0xb0e>
    4746:	f029 4300 	bic.w	r3, r9, #2147483648	; 0x80000000
    474a:	0d1b      	lsrs	r3, r3, #20
    474c:	9a09      	ldr	r2, [sp, #36]	; 0x24
    474e:	051b      	lsls	r3, r3, #20
    4750:	429a      	cmp	r2, r3
    4752:	464e      	mov	r6, r9
    4754:	d12b      	bne.n	47ae <_strtod_l+0xb0e>
    4756:	4629      	mov	r1, r5
    4758:	4620      	mov	r0, r4
    475a:	f003 f88d 	bl	7878 <__aeabi_d2iz>
    475e:	f002 fd75 	bl	724c <__aeabi_i2d>
    4762:	460b      	mov	r3, r1
    4764:	4602      	mov	r2, r0
    4766:	4629      	mov	r1, r5
    4768:	4620      	mov	r0, r4
    476a:	f002 fc21 	bl	6fb0 <__aeabi_dsub>
    476e:	9b08      	ldr	r3, [sp, #32]
    4770:	4604      	mov	r4, r0
    4772:	460d      	mov	r5, r1
    4774:	b92b      	cbnz	r3, 4782 <_strtod_l+0xae2>
    4776:	f1b8 0f00 	cmp.w	r8, #0
    477a:	d102      	bne.n	4782 <_strtod_l+0xae2>
    477c:	f3c9 0613 	ubfx	r6, r9, #0, #20
    4780:	b17e      	cbz	r6, 47a2 <_strtod_l+0xb02>
    4782:	a335      	add	r3, pc, #212	; (adr r3, 4858 <_strtod_l+0xbb8>)
    4784:	e9d3 2300 	ldrd	r2, r3, [r3]
    4788:	4620      	mov	r0, r4
    478a:	4629      	mov	r1, r5
    478c:	f003 f836 	bl	77fc <__aeabi_dcmplt>
    4790:	bb88      	cbnz	r0, 47f6 <_strtod_l+0xb56>
    4792:	a333      	add	r3, pc, #204	; (adr r3, 4860 <_strtod_l+0xbc0>)
    4794:	e9d3 2300 	ldrd	r2, r3, [r3]
    4798:	4620      	mov	r0, r4
    479a:	4629      	mov	r1, r5
    479c:	f003 f84c 	bl	7838 <__aeabi_dcmpgt>
    47a0:	e004      	b.n	47ac <_strtod_l+0xb0c>
    47a2:	a331      	add	r3, pc, #196	; (adr r3, 4868 <_strtod_l+0xbc8>)
    47a4:	e9d3 2300 	ldrd	r2, r3, [r3]
    47a8:	f003 f828 	bl	77fc <__aeabi_dcmplt>
    47ac:	bb18      	cbnz	r0, 47f6 <_strtod_l+0xb56>
    47ae:	991a      	ldr	r1, [sp, #104]	; 0x68
    47b0:	4650      	mov	r0, r10
    47b2:	f001 fce6 	bl	6182 <_Bfree>
    47b6:	9906      	ldr	r1, [sp, #24]
    47b8:	4650      	mov	r0, r10
    47ba:	f001 fce2 	bl	6182 <_Bfree>
    47be:	9904      	ldr	r1, [sp, #16]
    47c0:	4650      	mov	r0, r10
    47c2:	f001 fcde 	bl	6182 <_Bfree>
    47c6:	4659      	mov	r1, r11
    47c8:	4650      	mov	r0, r10
    47ca:	f001 fcda 	bl	6182 <_Bfree>
    47ce:	e574      	b.n	42ba <_strtod_l+0x61a>
    47d0:	9b05      	ldr	r3, [sp, #20]
    47d2:	b183      	cbz	r3, 47f6 <_strtod_l+0xb56>
    47d4:	4b2b      	ldr	r3, [pc, #172]	; (4884 <_strtod_l+0xbe4>)
    47d6:	4640      	mov	r0, r8
    47d8:	930d      	str	r3, [sp, #52]	; 0x34
    47da:	2300      	movs	r3, #0
    47dc:	930c      	str	r3, [sp, #48]	; 0x30
    47de:	4649      	mov	r1, r9
    47e0:	e9dd 230c 	ldrd	r2, r3, [sp, #48]	; 0x30
    47e4:	f002 fd98 	bl	7318 <__aeabi_dmul>
    47e8:	4680      	mov	r8, r0
    47ea:	4689      	mov	r9, r1
    47ec:	b919      	cbnz	r1, 47f6 <_strtod_l+0xb56>
    47ee:	b910      	cbnz	r0, 47f6 <_strtod_l+0xb56>
    47f0:	2322      	movs	r3, #34	; 0x22
    47f2:	f8ca 3000 	str.w	r3, [r10]
    47f6:	991a      	ldr	r1, [sp, #104]	; 0x68
    47f8:	4650      	mov	r0, r10
    47fa:	f001 fcc2 	bl	6182 <_Bfree>
    47fe:	9906      	ldr	r1, [sp, #24]
    4800:	4650      	mov	r0, r10
    4802:	f001 fcbe 	bl	6182 <_Bfree>
    4806:	9904      	ldr	r1, [sp, #16]
    4808:	4650      	mov	r0, r10
    480a:	f001 fcba 	bl	6182 <_Bfree>
    480e:	9907      	ldr	r1, [sp, #28]
    4810:	4650      	mov	r0, r10
    4812:	f001 fcb6 	bl	6182 <_Bfree>
    4816:	4659      	mov	r1, r11
    4818:	4650      	mov	r0, r10
    481a:	f001 fcb2 	bl	6182 <_Bfree>
    481e:	9b15      	ldr	r3, [sp, #84]	; 0x54
    4820:	b113      	cbz	r3, 4828 <_strtod_l+0xb88>
    4822:	9b19      	ldr	r3, [sp, #100]	; 0x64
    4824:	9a15      	ldr	r2, [sp, #84]	; 0x54
    4826:	6013      	str	r3, [r2, #0]
    4828:	9b0e      	ldr	r3, [sp, #56]	; 0x38
    482a:	b11b      	cbz	r3, 4834 <_strtod_l+0xb94>
    482c:	4642      	mov	r2, r8
    482e:	f109 4300 	add.w	r3, r9, #2147483648	; 0x80000000
    4832:	e007      	b.n	4844 <_strtod_l+0xba4>
    4834:	4642      	mov	r2, r8
    4836:	464b      	mov	r3, r9
    4838:	e004      	b.n	4844 <_strtod_l+0xba4>
    483a:	2500      	movs	r5, #0
    483c:	462a      	mov	r2, r5
    483e:	2101      	movs	r1, #1
    4840:	f7ff bb3f 	b.w	3ec2 <_strtod_l+0x222>
    4844:	4610      	mov	r0, r2
    4846:	4619      	mov	r1, r3
    4848:	b01f      	add	sp, #124	; 0x7c
    484a:	e8bd 8ff0 	ldmia.w	sp!, {r4, r5, r6, r7, r8, r9, r10, r11, pc}
    484e:	bf00      	nop
    4850:	ffc00000 	.word	0xffc00000
    4854:	41dfffff 	.word	0x41dfffff
    4858:	94a03595 	.word	0x94a03595
    485c:	3fdfffff 	.word	0x3fdfffff
    4860:	35afe535 	.word	0x35afe535
    4864:	3fe00000 	.word	0x3fe00000
    4868:	94a03595 	.word	0x94a03595
    486c:	3fcfffff 	.word	0x3fcfffff
    4870:	3ff00000 	.word	0x3ff00000
    4874:	3fe00000 	.word	0x3fe00000
    4878:	7fe00000 	.word	0x7fe00000
    487c:	7c9fffff 	.word	0x7c9fffff
    4880:	7fefffff 	.word	0x7fefffff
    4884:	39500000 	.word	0x39500000

00004888 <_strtod_r>:
    4888:	4b05      	ldr	r3, [pc, #20]	; (48a0 <_strtod_r+0x18>)
    488a:	b410      	push	{r4}
    488c:	681b      	ldr	r3, [r3, #0]
    488e:	4c05      	ldr	r4, [pc, #20]	; (48a4 <_strtod_r+0x1c>)
    4890:	6a1b      	ldr	r3, [r3, #32]
    4892:	2b00      	cmp	r3, #0
    4894:	bf08      	it	eq
    4896:	4623      	moveq	r3, r4
    4898:	bc10      	pop	{r4}
    489a:	f7ff ba01 	b.w	3ca0 <_strtod_l>
    489e:	bf00      	nop
    48a0:	10000138 	.word	0x10000138
    48a4:	1000013c 	.word	0x1000013c

000048a8 <_strtol_l.isra.0>:
    48a8:	e92d 47f0 	stmdb	sp!, {r4, r5, r6, r7, r8, r9, r10, lr}
    48ac:	4680      	mov	r8, r0
    48ae:	4689      	mov	r9, r1
    48b0:	4692      	mov	r10, r2
    48b2:	461e      	mov	r6, r3
    48b4:	460f      	mov	r7, r1
    48b6:	463d      	mov	r5, r7
    48b8:	9808      	ldr	r0, [sp, #32]
    48ba:	f815 4b01 	ldrb.w	r4, [r5], #1
    48be:	f001 fbe7 	bl	6090 <__locale_ctype_ptr_l>
    48c2:	4420      	add	r0, r4
    48c4:	7842      	ldrb	r2, [r0, #1]
    48c6:	f002 0208 	and.w	r2, r2, #8
    48ca:	f002 03ff 	and.w	r3, r2, #255	; 0xff
    48ce:	b10a      	cbz	r2, 48d4 <_strtol_l.isra.0+0x2c>
    48d0:	462f      	mov	r7, r5
    48d2:	e7f0      	b.n	48b6 <_strtol_l.isra.0+0xe>
    48d4:	2c2d      	cmp	r4, #45	; 0x2d
    48d6:	d103      	bne.n	48e0 <_strtol_l.isra.0+0x38>
    48d8:	1cbd      	adds	r5, r7, #2
    48da:	787c      	ldrb	r4, [r7, #1]
    48dc:	2301      	movs	r3, #1
    48de:	e003      	b.n	48e8 <_strtol_l.isra.0+0x40>
    48e0:	2c2b      	cmp	r4, #43	; 0x2b
    48e2:	bf04      	itt	eq
    48e4:	787c      	ldrbeq	r4, [r7, #1]
    48e6:	1cbd      	addeq	r5, r7, #2
    48e8:	b116      	cbz	r6, 48f0 <_strtol_l.isra.0+0x48>
    48ea:	2e10      	cmp	r6, #16
    48ec:	d10a      	bne.n	4904 <_strtol_l.isra.0+0x5c>
    48ee:	e05e      	b.n	49ae <_strtol_l.isra.0+0x106>
    48f0:	2c30      	cmp	r4, #48	; 0x30
    48f2:	d15a      	bne.n	49aa <_strtol_l.isra.0+0x102>
    48f4:	782a      	ldrb	r2, [r5, #0]
    48f6:	f002 02df 	and.w	r2, r2, #223	; 0xdf
    48fa:	2a58      	cmp	r2, #88	; 0x58
    48fc:	d150      	bne.n	49a0 <_strtol_l.isra.0+0xf8>
    48fe:	786c      	ldrb	r4, [r5, #1]
    4900:	2610      	movs	r6, #16
    4902:	3502      	adds	r5, #2
    4904:	2b00      	cmp	r3, #0
    4906:	bf14      	ite	ne
    4908:	f04f 4200 	movne.w	r2, #2147483648	; 0x80000000
    490c:	f06f 4200 	mvneq.w	r2, #2147483648	; 0x80000000
    4910:	fbb2 fef6 	udiv	lr, r2, r6
    4914:	fb06 211e 	mls	r1, r6, lr, r2
    4918:	2200      	movs	r2, #0
    491a:	4610      	mov	r0, r2
    491c:	f1a4 0730 	sub.w	r7, r4, #48	; 0x30
    4920:	2f09      	cmp	r7, #9
    4922:	d801      	bhi.n	4928 <_strtol_l.isra.0+0x80>
    4924:	463c      	mov	r4, r7
    4926:	e00a      	b.n	493e <_strtol_l.isra.0+0x96>
    4928:	f1a4 0741 	sub.w	r7, r4, #65	; 0x41
    492c:	2f19      	cmp	r7, #25
    492e:	d801      	bhi.n	4934 <_strtol_l.isra.0+0x8c>
    4930:	3c37      	subs	r4, #55	; 0x37
    4932:	e004      	b.n	493e <_strtol_l.isra.0+0x96>
    4934:	f1a4 0761 	sub.w	r7, r4, #97	; 0x61
    4938:	2f19      	cmp	r7, #25
    493a:	d813      	bhi.n	4964 <_strtol_l.isra.0+0xbc>
    493c:	3c57      	subs	r4, #87	; 0x57
    493e:	42a6      	cmp	r6, r4
    4940:	dd10      	ble.n	4964 <_strtol_l.isra.0+0xbc>
    4942:	1c57      	adds	r7, r2, #1
    4944:	d00b      	beq.n	495e <_strtol_l.isra.0+0xb6>
    4946:	4586      	cmp	lr, r0
    4948:	d307      	bcc.n	495a <_strtol_l.isra.0+0xb2>
    494a:	d101      	bne.n	4950 <_strtol_l.isra.0+0xa8>
    494c:	42a1      	cmp	r1, r4
    494e:	db03      	blt.n	4958 <_strtol_l.isra.0+0xb0>
    4950:	fb00 4006 	mla	r0, r0, r6, r4
    4954:	2201      	movs	r2, #1
    4956:	e002      	b.n	495e <_strtol_l.isra.0+0xb6>
    4958:	4670      	mov	r0, lr
    495a:	f04f 32ff 	mov.w	r2, #4294967295
    495e:	f815 4b01 	ldrb.w	r4, [r5], #1
    4962:	e7db      	b.n	491c <_strtol_l.isra.0+0x74>
    4964:	1c51      	adds	r1, r2, #1
    4966:	d10e      	bne.n	4986 <_strtol_l.isra.0+0xde>
    4968:	2b00      	cmp	r3, #0
    496a:	f04f 0322 	mov.w	r3, #34	; 0x22
    496e:	bf14      	ite	ne
    4970:	f04f 4000 	movne.w	r0, #2147483648	; 0x80000000
    4974:	f06f 4000 	mvneq.w	r0, #2147483648	; 0x80000000
    4978:	f8c8 3000 	str.w	r3, [r8]
    497c:	f1ba 0f00 	cmp.w	r10, #0
    4980:	d107      	bne.n	4992 <_strtol_l.isra.0+0xea>
    4982:	e8bd 87f0 	ldmia.w	sp!, {r4, r5, r6, r7, r8, r9, r10, pc}
    4986:	b103      	cbz	r3, 498a <_strtol_l.isra.0+0xe2>
    4988:	4240      	negs	r0, r0
    498a:	f1ba 0f00 	cmp.w	r10, #0
    498e:	d011      	beq.n	49b4 <_strtol_l.isra.0+0x10c>
    4990:	b10a      	cbz	r2, 4996 <_strtol_l.isra.0+0xee>
    4992:	3d01      	subs	r5, #1
    4994:	e000      	b.n	4998 <_strtol_l.isra.0+0xf0>
    4996:	464d      	mov	r5, r9
    4998:	f8ca 5000 	str.w	r5, [r10]
    499c:	e8bd 87f0 	ldmia.w	sp!, {r4, r5, r6, r7, r8, r9, r10, pc}
    49a0:	2430      	movs	r4, #48	; 0x30
    49a2:	2e00      	cmp	r6, #0
    49a4:	d1ae      	bne.n	4904 <_strtol_l.isra.0+0x5c>
    49a6:	2608      	movs	r6, #8
    49a8:	e7ac      	b.n	4904 <_strtol_l.isra.0+0x5c>
    49aa:	260a      	movs	r6, #10
    49ac:	e7aa      	b.n	4904 <_strtol_l.isra.0+0x5c>
    49ae:	2c30      	cmp	r4, #48	; 0x30
    49b0:	d0a0      	beq.n	48f4 <_strtol_l.isra.0+0x4c>
    49b2:	e7a7      	b.n	4904 <_strtol_l.isra.0+0x5c>
    49b4:	e8bd 87f0 	ldmia.w	sp!, {r4, r5, r6, r7, r8, r9, r10, pc}

000049b8 <_strtol_r>:
    49b8:	b537      	push	{r0, r1, r2, r4, r5, lr}
    49ba:	4c06      	ldr	r4, [pc, #24]	; (49d4 <_strtol_r+0x1c>)
    49bc:	4d06      	ldr	r5, [pc, #24]	; (49d8 <_strtol_r+0x20>)
    49be:	6824      	ldr	r4, [r4, #0]
    49c0:	6a24      	ldr	r4, [r4, #32]
    49c2:	2c00      	cmp	r4, #0
    49c4:	bf08      	it	eq
    49c6:	462c      	moveq	r4, r5
    49c8:	9400      	str	r4, [sp, #0]
    49ca:	f7ff ff6d 	bl	48a8 <_strtol_l.isra.0>
    49ce:	b003      	add	sp, #12
    49d0:	bd30      	pop	{r4, r5, pc}
    49d2:	bf00      	nop
    49d4:	10000138 	.word	0x10000138
    49d8:	1000013c 	.word	0x1000013c

000049dc <_strtoul_l.isra.0>:
    49dc:	e92d 47f0 	stmdb	sp!, {r4, r5, r6, r7, r8, r9, r10, lr}
    49e0:	4680      	mov	r8, r0
    49e2:	4689      	mov	r9, r1
    49e4:	4692      	mov	r10, r2
    49e6:	461e      	mov	r6, r3
    49e8:	460f      	mov	r7, r1
    49ea:	463d      	mov	r5, r7
    49ec:	9808      	ldr	r0, [sp, #32]
    49ee:	f815 4b01 	ldrb.w	r4, [r5], #1
    49f2:	f001 fb4d 	bl	6090 <__locale_ctype_ptr_l>
    49f6:	4420      	add	r0, r4
    49f8:	7843      	ldrb	r3, [r0, #1]
    49fa:	f003 0308 	and.w	r3, r3, #8
    49fe:	f003 02ff 	and.w	r2, r3, #255	; 0xff
    4a02:	b10b      	cbz	r3, 4a08 <_strtoul_l.isra.0+0x2c>
    4a04:	462f      	mov	r7, r5
    4a06:	e7f0      	b.n	49ea <_strtoul_l.isra.0+0xe>
    4a08:	2c2d      	cmp	r4, #45	; 0x2d
    4a0a:	d103      	bne.n	4a14 <_strtoul_l.isra.0+0x38>
    4a0c:	1cbd      	adds	r5, r7, #2
    4a0e:	787c      	ldrb	r4, [r7, #1]
    4a10:	2201      	movs	r2, #1
    4a12:	e003      	b.n	4a1c <_strtoul_l.isra.0+0x40>
    4a14:	2c2b      	cmp	r4, #43	; 0x2b
    4a16:	bf04      	itt	eq
    4a18:	787c      	ldrbeq	r4, [r7, #1]
    4a1a:	1cbd      	addeq	r5, r7, #2
    4a1c:	b116      	cbz	r6, 4a24 <_strtoul_l.isra.0+0x48>
    4a1e:	2e10      	cmp	r6, #16
    4a20:	d10a      	bne.n	4a38 <_strtoul_l.isra.0+0x5c>
    4a22:	e057      	b.n	4ad4 <_strtoul_l.isra.0+0xf8>
    4a24:	2c30      	cmp	r4, #48	; 0x30
    4a26:	d153      	bne.n	4ad0 <_strtoul_l.isra.0+0xf4>
    4a28:	782b      	ldrb	r3, [r5, #0]
    4a2a:	f003 03df 	and.w	r3, r3, #223	; 0xdf
    4a2e:	2b58      	cmp	r3, #88	; 0x58
    4a30:	d149      	bne.n	4ac6 <_strtoul_l.isra.0+0xea>
    4a32:	786c      	ldrb	r4, [r5, #1]
    4a34:	2610      	movs	r6, #16
    4a36:	3502      	adds	r5, #2
    4a38:	f04f 31ff 	mov.w	r1, #4294967295
    4a3c:	fbb1 f1f6 	udiv	r1, r1, r6
    4a40:	fb06 fe01 	mul.w	lr, r6, r1
    4a44:	2300      	movs	r3, #0
    4a46:	ea6f 0e0e 	mvn.w	lr, lr
    4a4a:	4618      	mov	r0, r3
    4a4c:	f1a4 0730 	sub.w	r7, r4, #48	; 0x30
    4a50:	2f09      	cmp	r7, #9
    4a52:	d801      	bhi.n	4a58 <_strtoul_l.isra.0+0x7c>
    4a54:	463c      	mov	r4, r7
    4a56:	e00a      	b.n	4a6e <_strtoul_l.isra.0+0x92>
    4a58:	f1a4 0741 	sub.w	r7, r4, #65	; 0x41
    4a5c:	2f19      	cmp	r7, #25
    4a5e:	d801      	bhi.n	4a64 <_strtoul_l.isra.0+0x88>
    4a60:	3c37      	subs	r4, #55	; 0x37
    4a62:	e004      	b.n	4a6e <_strtoul_l.isra.0+0x92>
    4a64:	f1a4 0761 	sub.w	r7, r4, #97	; 0x61
    4a68:	2f19      	cmp	r7, #25
    4a6a:	d813      	bhi.n	4a94 <_strtoul_l.isra.0+0xb8>
    4a6c:	3c57      	subs	r4, #87	; 0x57
    4a6e:	42a6      	cmp	r6, r4
    4a70:	dd10      	ble.n	4a94 <_strtoul_l.isra.0+0xb8>
    4a72:	2b00      	cmp	r3, #0
    4a74:	db09      	blt.n	4a8a <_strtoul_l.isra.0+0xae>
    4a76:	4281      	cmp	r1, r0
    4a78:	d307      	bcc.n	4a8a <_strtoul_l.isra.0+0xae>
    4a7a:	d101      	bne.n	4a80 <_strtoul_l.isra.0+0xa4>
    4a7c:	45a6      	cmp	lr, r4
    4a7e:	db03      	blt.n	4a88 <_strtoul_l.isra.0+0xac>
    4a80:	fb00 4006 	mla	r0, r0, r6, r4
    4a84:	2301      	movs	r3, #1
    4a86:	e002      	b.n	4a8e <_strtoul_l.isra.0+0xb2>
    4a88:	4608      	mov	r0, r1
    4a8a:	f04f 33ff 	mov.w	r3, #4294967295
    4a8e:	f815 4b01 	ldrb.w	r4, [r5], #1
    4a92:	e7db      	b.n	4a4c <_strtoul_l.isra.0+0x70>
    4a94:	2b00      	cmp	r3, #0
    4a96:	da09      	bge.n	4aac <_strtoul_l.isra.0+0xd0>
    4a98:	2322      	movs	r3, #34	; 0x22
    4a9a:	f8c8 3000 	str.w	r3, [r8]
    4a9e:	f04f 30ff 	mov.w	r0, #4294967295
    4aa2:	f1ba 0f00 	cmp.w	r10, #0
    4aa6:	d107      	bne.n	4ab8 <_strtoul_l.isra.0+0xdc>
    4aa8:	e8bd 87f0 	ldmia.w	sp!, {r4, r5, r6, r7, r8, r9, r10, pc}
    4aac:	b102      	cbz	r2, 4ab0 <_strtoul_l.isra.0+0xd4>
    4aae:	4240      	negs	r0, r0
    4ab0:	f1ba 0f00 	cmp.w	r10, #0
    4ab4:	d011      	beq.n	4ada <_strtoul_l.isra.0+0xfe>
    4ab6:	b10b      	cbz	r3, 4abc <_strtoul_l.isra.0+0xe0>
    4ab8:	3d01      	subs	r5, #1
    4aba:	e000      	b.n	4abe <_strtoul_l.isra.0+0xe2>
    4abc:	464d      	mov	r5, r9
    4abe:	f8ca 5000 	str.w	r5, [r10]
    4ac2:	e8bd 87f0 	ldmia.w	sp!, {r4, r5, r6, r7, r8, r9, r10, pc}
    4ac6:	2430      	movs	r4, #48	; 0x30
    4ac8:	2e00      	cmp	r6, #0
    4aca:	d1b5      	bne.n	4a38 <_strtoul_l.isra.0+0x5c>
    4acc:	2608      	movs	r6, #8
    4ace:	e7b3      	b.n	4a38 <_strtoul_l.isra.0+0x5c>
    4ad0:	260a      	movs	r6, #10
    4ad2:	e7b1      	b.n	4a38 <_strtoul_l.isra.0+0x5c>
    4ad4:	2c30      	cmp	r4, #48	; 0x30
    4ad6:	d0a7      	beq.n	4a28 <_strtoul_l.isra.0+0x4c>
    4ad8:	e7ae      	b.n	4a38 <_strtoul_l.isra.0+0x5c>
    4ada:	e8bd 87f0 	ldmia.w	sp!, {r4, r5, r6, r7, r8, r9, r10, pc}
	...

00004ae0 <_strtoul_r>:
    4ae0:	b537      	push	{r0, r1, r2, r4, r5, lr}
    4ae2:	4c06      	ldr	r4, [pc, #24]	; (4afc <_strtoul_r+0x1c>)
    4ae4:	4d06      	ldr	r5, [pc, #24]	; (4b00 <_strtoul_r+0x20>)
    4ae6:	6824      	ldr	r4, [r4, #0]
    4ae8:	6a24      	ldr	r4, [r4, #32]
    4aea:	2c00      	cmp	r4, #0
    4aec:	bf08      	it	eq
    4aee:	462c      	moveq	r4, r5
    4af0:	9400      	str	r4, [sp, #0]
    4af2:	f7ff ff73 	bl	49dc <_strtoul_l.isra.0>
    4af6:	b003      	add	sp, #12
    4af8:	bd30      	pop	{r4, r5, pc}
    4afa:	bf00      	nop
    4afc:	10000138 	.word	0x10000138
    4b00:	1000013c 	.word	0x1000013c

00004b04 <__submore>:
    4b04:	e92d 41f0 	stmdb	sp!, {r4, r5, r6, r7, r8, lr}
    4b08:	460c      	mov	r4, r1
    4b0a:	6b49      	ldr	r1, [r1, #52]	; 0x34
    4b0c:	f104 0344 	add.w	r3, r4, #68	; 0x44
    4b10:	4299      	cmp	r1, r3
    4b12:	d11a      	bne.n	4b4a <__submore+0x46>
    4b14:	f44f 6180 	mov.w	r1, #1024	; 0x400
    4b18:	f7fd fd4e 	bl	25b8 <_malloc_r>
    4b1c:	b918      	cbnz	r0, 4b26 <__submore+0x22>
    4b1e:	f04f 30ff 	mov.w	r0, #4294967295
    4b22:	e8bd 81f0 	ldmia.w	sp!, {r4, r5, r6, r7, r8, pc}
    4b26:	f44f 6380 	mov.w	r3, #1024	; 0x400
    4b2a:	63a3      	str	r3, [r4, #56]	; 0x38
    4b2c:	f894 3046 	ldrb.w	r3, [r4, #70]	; 0x46
    4b30:	6360      	str	r0, [r4, #52]	; 0x34
    4b32:	f880 33ff 	strb.w	r3, [r0, #1023]	; 0x3ff
    4b36:	f894 3045 	ldrb.w	r3, [r4, #69]	; 0x45
    4b3a:	f200 30fd 	addw	r0, r0, #1021	; 0x3fd
    4b3e:	7043      	strb	r3, [r0, #1]
    4b40:	f894 3044 	ldrb.w	r3, [r4, #68]	; 0x44
    4b44:	7003      	strb	r3, [r0, #0]
    4b46:	6020      	str	r0, [r4, #0]
    4b48:	e012      	b.n	4b70 <__submore+0x6c>
    4b4a:	6ba6      	ldr	r6, [r4, #56]	; 0x38
    4b4c:	0077      	lsls	r7, r6, #1
    4b4e:	463a      	mov	r2, r7
    4b50:	f001 fed9 	bl	6906 <_realloc_r>
    4b54:	4605      	mov	r5, r0
    4b56:	2800      	cmp	r0, #0
    4b58:	d0e1      	beq.n	4b1e <__submore+0x1a>
    4b5a:	eb00 0806 	add.w	r8, r0, r6
    4b5e:	4601      	mov	r1, r0
    4b60:	4632      	mov	r2, r6
    4b62:	4640      	mov	r0, r8
    4b64:	f7fd fcae 	bl	24c4 <memcpy>
    4b68:	f8c4 8000 	str.w	r8, [r4]
    4b6c:	6365      	str	r5, [r4, #52]	; 0x34
    4b6e:	63a7      	str	r7, [r4, #56]	; 0x38
    4b70:	2000      	movs	r0, #0
    4b72:	e8bd 81f0 	ldmia.w	sp!, {r4, r5, r6, r7, r8, pc}
	...

00004b78 <__swbuf_r>:
    4b78:	b5f8      	push	{r3, r4, r5, r6, r7, lr}
    4b7a:	460f      	mov	r7, r1
    4b7c:	4614      	mov	r4, r2
    4b7e:	4605      	mov	r5, r0
    4b80:	b118      	cbz	r0, 4b8a <__swbuf_r+0x12>
    4b82:	6983      	ldr	r3, [r0, #24]
    4b84:	b90b      	cbnz	r3, 4b8a <__swbuf_r+0x12>
    4b86:	f7fd fa85 	bl	2094 <__sinit>
    4b8a:	4b22      	ldr	r3, [pc, #136]	; (4c14 <__swbuf_r+0x9c>)
    4b8c:	429c      	cmp	r4, r3
    4b8e:	d101      	bne.n	4b94 <__swbuf_r+0x1c>
    4b90:	686c      	ldr	r4, [r5, #4]
    4b92:	e008      	b.n	4ba6 <__swbuf_r+0x2e>
    4b94:	4b20      	ldr	r3, [pc, #128]	; (4c18 <__swbuf_r+0xa0>)
    4b96:	429c      	cmp	r4, r3
    4b98:	d101      	bne.n	4b9e <__swbuf_r+0x26>
    4b9a:	68ac      	ldr	r4, [r5, #8]
    4b9c:	e003      	b.n	4ba6 <__swbuf_r+0x2e>
    4b9e:	4b1f      	ldr	r3, [pc, #124]	; (4c1c <__swbuf_r+0xa4>)
    4ba0:	429c      	cmp	r4, r3
    4ba2:	bf08      	it	eq
    4ba4:	68ec      	ldreq	r4, [r5, #12]
    4ba6:	69a3      	ldr	r3, [r4, #24]
    4ba8:	60a3      	str	r3, [r4, #8]
    4baa:	89a3      	ldrh	r3, [r4, #12]
    4bac:	071a      	lsls	r2, r3, #28
    4bae:	d509      	bpl.n	4bc4 <__swbuf_r+0x4c>
    4bb0:	6923      	ldr	r3, [r4, #16]
    4bb2:	b13b      	cbz	r3, 4bc4 <__swbuf_r+0x4c>
    4bb4:	6823      	ldr	r3, [r4, #0]
    4bb6:	6920      	ldr	r0, [r4, #16]
    4bb8:	b2fe      	uxtb	r6, r7
    4bba:	1a18      	subs	r0, r3, r0
    4bbc:	6963      	ldr	r3, [r4, #20]
    4bbe:	4298      	cmp	r0, r3
    4bc0:	db0f      	blt.n	4be2 <__swbuf_r+0x6a>
    4bc2:	e008      	b.n	4bd6 <__swbuf_r+0x5e>
    4bc4:	4621      	mov	r1, r4
    4bc6:	4628      	mov	r0, r5
    4bc8:	f000 f83c 	bl	4c44 <__swsetup_r>
    4bcc:	2800      	cmp	r0, #0
    4bce:	d0f1      	beq.n	4bb4 <__swbuf_r+0x3c>
    4bd0:	f04f 36ff 	mov.w	r6, #4294967295
    4bd4:	e01b      	b.n	4c0e <__swbuf_r+0x96>
    4bd6:	4621      	mov	r1, r4
    4bd8:	4628      	mov	r0, r5
    4bda:	f7fd f9f1 	bl	1fc0 <_fflush_r>
    4bde:	2800      	cmp	r0, #0
    4be0:	d1f6      	bne.n	4bd0 <__swbuf_r+0x58>
    4be2:	68a3      	ldr	r3, [r4, #8]
    4be4:	3001      	adds	r0, #1
    4be6:	3b01      	subs	r3, #1
    4be8:	60a3      	str	r3, [r4, #8]
    4bea:	6823      	ldr	r3, [r4, #0]
    4bec:	1c5a      	adds	r2, r3, #1
    4bee:	6022      	str	r2, [r4, #0]
    4bf0:	701f      	strb	r7, [r3, #0]
    4bf2:	6963      	ldr	r3, [r4, #20]
    4bf4:	4298      	cmp	r0, r3
    4bf6:	d004      	beq.n	4c02 <__swbuf_r+0x8a>
    4bf8:	89a3      	ldrh	r3, [r4, #12]
    4bfa:	07db      	lsls	r3, r3, #31
    4bfc:	d507      	bpl.n	4c0e <__swbuf_r+0x96>
    4bfe:	2e0a      	cmp	r6, #10
    4c00:	d105      	bne.n	4c0e <__swbuf_r+0x96>
    4c02:	4621      	mov	r1, r4
    4c04:	4628      	mov	r0, r5
    4c06:	f7fd f9db 	bl	1fc0 <_fflush_r>
    4c0a:	2800      	cmp	r0, #0
    4c0c:	d1e0      	bne.n	4bd0 <__swbuf_r+0x58>
    4c0e:	4630      	mov	r0, r6
    4c10:	bdf8      	pop	{r3, r4, r5, r6, r7, pc}
    4c12:	bf00      	nop
    4c14:	000084ec 	.word	0x000084ec
    4c18:	0000850c 	.word	0x0000850c
    4c1c:	0000852c 	.word	0x0000852c

00004c20 <_write_r>:
    4c20:	b538      	push	{r3, r4, r5, lr}
    4c22:	4c07      	ldr	r4, [pc, #28]	; (4c40 <_write_r+0x20>)
    4c24:	4605      	mov	r5, r0
    4c26:	4608      	mov	r0, r1
    4c28:	4611      	mov	r1, r2
    4c2a:	2200      	movs	r2, #0
    4c2c:	6022      	str	r2, [r4, #0]
    4c2e:	461a      	mov	r2, r3
    4c30:	f7fb fd52 	bl	6d8 <_write>
    4c34:	1c43      	adds	r3, r0, #1
    4c36:	d102      	bne.n	4c3e <_write_r+0x1e>
    4c38:	6823      	ldr	r3, [r4, #0]
    4c3a:	b103      	cbz	r3, 4c3e <_write_r+0x1e>
    4c3c:	602b      	str	r3, [r5, #0]
    4c3e:	bd38      	pop	{r3, r4, r5, pc}
    4c40:	100004b0 	.word	0x100004b0

00004c44 <__swsetup_r>:
    4c44:	4b32      	ldr	r3, [pc, #200]	; (4d10 <__swsetup_r+0xcc>)
    4c46:	b570      	push	{r4, r5, r6, lr}
    4c48:	681d      	ldr	r5, [r3, #0]
    4c4a:	4606      	mov	r6, r0
    4c4c:	460c      	mov	r4, r1
    4c4e:	b125      	cbz	r5, 4c5a <__swsetup_r+0x16>
    4c50:	69ab      	ldr	r3, [r5, #24]
    4c52:	b913      	cbnz	r3, 4c5a <__swsetup_r+0x16>
    4c54:	4628      	mov	r0, r5
    4c56:	f7fd fa1d 	bl	2094 <__sinit>
    4c5a:	4b2e      	ldr	r3, [pc, #184]	; (4d14 <__swsetup_r+0xd0>)
    4c5c:	429c      	cmp	r4, r3
    4c5e:	d101      	bne.n	4c64 <__swsetup_r+0x20>
    4c60:	686c      	ldr	r4, [r5, #4]
    4c62:	e008      	b.n	4c76 <__swsetup_r+0x32>
    4c64:	4b2c      	ldr	r3, [pc, #176]	; (4d18 <__swsetup_r+0xd4>)
    4c66:	429c      	cmp	r4, r3
    4c68:	d101      	bne.n	4c6e <__swsetup_r+0x2a>
    4c6a:	68ac      	ldr	r4, [r5, #8]
    4c6c:	e003      	b.n	4c76 <__swsetup_r+0x32>
    4c6e:	4b2b      	ldr	r3, [pc, #172]	; (4d1c <__swsetup_r+0xd8>)
    4c70:	429c      	cmp	r4, r3
    4c72:	bf08      	it	eq
    4c74:	68ec      	ldreq	r4, [r5, #12]
    4c76:	f9b4 300c 	ldrsh.w	r3, [r4, #12]
    4c7a:	b29a      	uxth	r2, r3
    4c7c:	0715      	lsls	r5, r2, #28
    4c7e:	d41d      	bmi.n	4cbc <__swsetup_r+0x78>
    4c80:	06d0      	lsls	r0, r2, #27
    4c82:	d402      	bmi.n	4c8a <__swsetup_r+0x46>
    4c84:	2209      	movs	r2, #9
    4c86:	6032      	str	r2, [r6, #0]
    4c88:	e03a      	b.n	4d00 <__swsetup_r+0xbc>
    4c8a:	0751      	lsls	r1, r2, #29
    4c8c:	d512      	bpl.n	4cb4 <__swsetup_r+0x70>
    4c8e:	6b61      	ldr	r1, [r4, #52]	; 0x34
    4c90:	b141      	cbz	r1, 4ca4 <__swsetup_r+0x60>
    4c92:	f104 0344 	add.w	r3, r4, #68	; 0x44
    4c96:	4299      	cmp	r1, r3
    4c98:	d002      	beq.n	4ca0 <__swsetup_r+0x5c>
    4c9a:	4630      	mov	r0, r6
    4c9c:	f7fd fc40 	bl	2520 <_free_r>
    4ca0:	2300      	movs	r3, #0
    4ca2:	6363      	str	r3, [r4, #52]	; 0x34
    4ca4:	89a3      	ldrh	r3, [r4, #12]
    4ca6:	f023 0324 	bic.w	r3, r3, #36	; 0x24
    4caa:	81a3      	strh	r3, [r4, #12]
    4cac:	2300      	movs	r3, #0
    4cae:	6063      	str	r3, [r4, #4]
    4cb0:	6923      	ldr	r3, [r4, #16]
    4cb2:	6023      	str	r3, [r4, #0]
    4cb4:	89a3      	ldrh	r3, [r4, #12]
    4cb6:	f043 0308 	orr.w	r3, r3, #8
    4cba:	81a3      	strh	r3, [r4, #12]
    4cbc:	6923      	ldr	r3, [r4, #16]
    4cbe:	b94b      	cbnz	r3, 4cd4 <__swsetup_r+0x90>
    4cc0:	89a3      	ldrh	r3, [r4, #12]
    4cc2:	f403 7320 	and.w	r3, r3, #640	; 0x280
    4cc6:	f5b3 7f00 	cmp.w	r3, #512	; 0x200
    4cca:	d003      	beq.n	4cd4 <__swsetup_r+0x90>
    4ccc:	4621      	mov	r1, r4
    4cce:	4630      	mov	r0, r6
    4cd0:	f7fd fb9e 	bl	2410 <__smakebuf_r>
    4cd4:	89a2      	ldrh	r2, [r4, #12]
    4cd6:	f012 0301 	ands.w	r3, r2, #1
    4cda:	d005      	beq.n	4ce8 <__swsetup_r+0xa4>
    4cdc:	2300      	movs	r3, #0
    4cde:	60a3      	str	r3, [r4, #8]
    4ce0:	6963      	ldr	r3, [r4, #20]
    4ce2:	425b      	negs	r3, r3
    4ce4:	61a3      	str	r3, [r4, #24]
    4ce6:	e003      	b.n	4cf0 <__swsetup_r+0xac>
    4ce8:	0792      	lsls	r2, r2, #30
    4cea:	bf58      	it	pl
    4cec:	6963      	ldrpl	r3, [r4, #20]
    4cee:	60a3      	str	r3, [r4, #8]
    4cf0:	6923      	ldr	r3, [r4, #16]
    4cf2:	b95b      	cbnz	r3, 4d0c <__swsetup_r+0xc8>
    4cf4:	f9b4 300c 	ldrsh.w	r3, [r4, #12]
    4cf8:	f003 0080 	and.w	r0, r3, #128	; 0x80
    4cfc:	b280      	uxth	r0, r0
    4cfe:	b130      	cbz	r0, 4d0e <__swsetup_r+0xca>
    4d00:	f043 0340 	orr.w	r3, r3, #64	; 0x40
    4d04:	81a3      	strh	r3, [r4, #12]
    4d06:	f04f 30ff 	mov.w	r0, #4294967295
    4d0a:	bd70      	pop	{r4, r5, r6, pc}
    4d0c:	2000      	movs	r0, #0
    4d0e:	bd70      	pop	{r4, r5, r6, pc}
    4d10:	10000138 	.word	0x10000138
    4d14:	000084ec 	.word	0x000084ec
    4d18:	0000850c 	.word	0x0000850c
    4d1c:	0000852c 	.word	0x0000852c

00004d20 <_close_r>:
    4d20:	b538      	push	{r3, r4, r5, lr}
    4d22:	4c06      	ldr	r4, [pc, #24]	; (4d3c <_close_r+0x1c>)
    4d24:	2300      	movs	r3, #0
    4d26:	4605      	mov	r5, r0
    4d28:	4608      	mov	r0, r1
    4d2a:	6023      	str	r3, [r4, #0]
    4d2c:	f7fb fcbe 	bl	6ac <_close>
    4d30:	1c43      	adds	r3, r0, #1
    4d32:	d102      	bne.n	4d3a <_close_r+0x1a>
    4d34:	6823      	ldr	r3, [r4, #0]
    4d36:	b103      	cbz	r3, 4d3a <_close_r+0x1a>
    4d38:	602b      	str	r3, [r5, #0]
    4d3a:	bd38      	pop	{r3, r4, r5, pc}
    4d3c:	100004b0 	.word	0x100004b0

00004d40 <quorem>:
    4d40:	e92d 4ff7 	stmdb	sp!, {r0, r1, r2, r4, r5, r6, r7, r8, r9, r10, r11, lr}
    4d44:	6903      	ldr	r3, [r0, #16]
    4d46:	690c      	ldr	r4, [r1, #16]
    4d48:	4680      	mov	r8, r0
    4d4a:	429c      	cmp	r4, r3
    4d4c:	dc7f      	bgt.n	4e4e <quorem+0x10e>
    4d4e:	3c01      	subs	r4, #1
    4d50:	f101 0714 	add.w	r7, r1, #20
    4d54:	ea4f 0e84 	mov.w	lr, r4, lsl #2
    4d58:	f100 0614 	add.w	r6, r0, #20
    4d5c:	eb06 030e 	add.w	r3, r6, lr
    4d60:	f857 5024 	ldr.w	r5, [r7, r4, lsl #2]
    4d64:	9301      	str	r3, [sp, #4]
    4d66:	f856 3024 	ldr.w	r3, [r6, r4, lsl #2]
    4d6a:	3501      	adds	r5, #1
    4d6c:	fbb3 f5f5 	udiv	r5, r3, r5
    4d70:	eb07 090e 	add.w	r9, r7, lr
    4d74:	b3c5      	cbz	r5, 4de8 <quorem+0xa8>
    4d76:	f04f 0a00 	mov.w	r10, #0
    4d7a:	4638      	mov	r0, r7
    4d7c:	46b4      	mov	r12, r6
    4d7e:	46d3      	mov	r11, r10
    4d80:	f850 3b04 	ldr.w	r3, [r0], #4
    4d84:	b29a      	uxth	r2, r3
    4d86:	fb05 a202 	mla	r2, r5, r2, r10
    4d8a:	0c1b      	lsrs	r3, r3, #16
    4d8c:	ea4f 4a12 	mov.w	r10, r2, lsr #16
    4d90:	fb05 a303 	mla	r3, r5, r3, r10
    4d94:	b292      	uxth	r2, r2
    4d96:	ebc2 0b0b 	rsb	r11, r2, r11
    4d9a:	f8bc 2000 	ldrh.w	r2, [r12]
    4d9e:	ea4f 4a13 	mov.w	r10, r3, lsr #16
    4da2:	445a      	add	r2, r11
    4da4:	fa1f fb83 	uxth.w	r11, r3
    4da8:	f8dc 3000 	ldr.w	r3, [r12]
    4dac:	4581      	cmp	r9, r0
    4dae:	ebcb 4313 	rsb	r3, r11, r3, lsr #16
    4db2:	eb03 4322 	add.w	r3, r3, r2, asr #16
    4db6:	b292      	uxth	r2, r2
    4db8:	ea42 4203 	orr.w	r2, r2, r3, lsl #16
    4dbc:	ea4f 4b23 	mov.w	r11, r3, asr #16
    4dc0:	f84c 2b04 	str.w	r2, [r12], #4
    4dc4:	d2dc      	bcs.n	4d80 <quorem+0x40>
    4dc6:	f856 300e 	ldr.w	r3, [r6, lr]
    4dca:	b96b      	cbnz	r3, 4de8 <quorem+0xa8>
    4dcc:	9b01      	ldr	r3, [sp, #4]
    4dce:	3b04      	subs	r3, #4
    4dd0:	429e      	cmp	r6, r3
    4dd2:	461a      	mov	r2, r3
    4dd4:	d302      	bcc.n	4ddc <quorem+0x9c>
    4dd6:	f8c8 4010 	str.w	r4, [r8, #16]
    4dda:	e005      	b.n	4de8 <quorem+0xa8>
    4ddc:	6812      	ldr	r2, [r2, #0]
    4dde:	3b04      	subs	r3, #4
    4de0:	2a00      	cmp	r2, #0
    4de2:	d1f8      	bne.n	4dd6 <quorem+0x96>
    4de4:	3c01      	subs	r4, #1
    4de6:	e7f3      	b.n	4dd0 <quorem+0x90>
    4de8:	4640      	mov	r0, r8
    4dea:	f001 fbe0 	bl	65ae <__mcmp>
    4dee:	2800      	cmp	r0, #0
    4df0:	db2b      	blt.n	4e4a <quorem+0x10a>
    4df2:	4630      	mov	r0, r6
    4df4:	3501      	adds	r5, #1
    4df6:	f04f 0e00 	mov.w	lr, #0
    4dfa:	f857 2b04 	ldr.w	r2, [r7], #4
    4dfe:	6803      	ldr	r3, [r0, #0]
    4e00:	b291      	uxth	r1, r2
    4e02:	ebc1 0e0e 	rsb	lr, r1, lr
    4e06:	0c12      	lsrs	r2, r2, #16
    4e08:	b299      	uxth	r1, r3
    4e0a:	4471      	add	r1, lr
    4e0c:	ebc2 4313 	rsb	r3, r2, r3, lsr #16
    4e10:	eb03 4321 	add.w	r3, r3, r1, asr #16
    4e14:	b289      	uxth	r1, r1
    4e16:	ea4f 4e23 	mov.w	lr, r3, asr #16
    4e1a:	45b9      	cmp	r9, r7
    4e1c:	ea41 4303 	orr.w	r3, r1, r3, lsl #16
    4e20:	f840 3b04 	str.w	r3, [r0], #4
    4e24:	d2e9      	bcs.n	4dfa <quorem+0xba>
    4e26:	f856 2024 	ldr.w	r2, [r6, r4, lsl #2]
    4e2a:	eb06 0384 	add.w	r3, r6, r4, lsl #2
    4e2e:	b962      	cbnz	r2, 4e4a <quorem+0x10a>
    4e30:	3b04      	subs	r3, #4
    4e32:	429e      	cmp	r6, r3
    4e34:	461a      	mov	r2, r3
    4e36:	d302      	bcc.n	4e3e <quorem+0xfe>
    4e38:	f8c8 4010 	str.w	r4, [r8, #16]
    4e3c:	e005      	b.n	4e4a <quorem+0x10a>
    4e3e:	6812      	ldr	r2, [r2, #0]
    4e40:	3b04      	subs	r3, #4
    4e42:	2a00      	cmp	r2, #0
    4e44:	d1f8      	bne.n	4e38 <quorem+0xf8>
    4e46:	3c01      	subs	r4, #1
    4e48:	e7f3      	b.n	4e32 <quorem+0xf2>
    4e4a:	4628      	mov	r0, r5
    4e4c:	e000      	b.n	4e50 <quorem+0x110>
    4e4e:	2000      	movs	r0, #0
    4e50:	b003      	add	sp, #12
    4e52:	e8bd 8ff0 	ldmia.w	sp!, {r4, r5, r6, r7, r8, r9, r10, r11, pc}
	...

00004e58 <_dtoa_r>:
    4e58:	e92d 4ff0 	stmdb	sp!, {r4, r5, r6, r7, r8, r9, r10, r11, lr}
    4e5c:	6a45      	ldr	r5, [r0, #36]	; 0x24
    4e5e:	b095      	sub	sp, #84	; 0x54
    4e60:	4682      	mov	r10, r0
    4e62:	9c21      	ldr	r4, [sp, #132]	; 0x84
    4e64:	e9cd 2302 	strd	r2, r3, [sp, #8]
    4e68:	b945      	cbnz	r5, 4e7c <_dtoa_r+0x24>
    4e6a:	2010      	movs	r0, #16
    4e6c:	f7fd fb0c 	bl	2488 <malloc>
    4e70:	f8ca 0024 	str.w	r0, [r10, #36]	; 0x24
    4e74:	6045      	str	r5, [r0, #4]
    4e76:	6085      	str	r5, [r0, #8]
    4e78:	6005      	str	r5, [r0, #0]
    4e7a:	60c5      	str	r5, [r0, #12]
    4e7c:	f8da 3024 	ldr.w	r3, [r10, #36]	; 0x24
    4e80:	6819      	ldr	r1, [r3, #0]
    4e82:	b159      	cbz	r1, 4e9c <_dtoa_r+0x44>
    4e84:	685a      	ldr	r2, [r3, #4]
    4e86:	2301      	movs	r3, #1
    4e88:	4093      	lsls	r3, r2
    4e8a:	604a      	str	r2, [r1, #4]
    4e8c:	608b      	str	r3, [r1, #8]
    4e8e:	4650      	mov	r0, r10
    4e90:	f001 f977 	bl	6182 <_Bfree>
    4e94:	f8da 3024 	ldr.w	r3, [r10, #36]	; 0x24
    4e98:	2200      	movs	r2, #0
    4e9a:	601a      	str	r2, [r3, #0]
    4e9c:	9b03      	ldr	r3, [sp, #12]
    4e9e:	4aa0      	ldr	r2, [pc, #640]	; (5120 <_dtoa_r+0x2c8>)
    4ea0:	2b00      	cmp	r3, #0
    4ea2:	bfbd      	ittte	lt
    4ea4:	2301      	movlt	r3, #1
    4ea6:	6023      	strlt	r3, [r4, #0]
    4ea8:	9b03      	ldrlt	r3, [sp, #12]
    4eaa:	2300      	movge	r3, #0
    4eac:	bfbc      	itt	lt
    4eae:	f023 4300 	biclt.w	r3, r3, #2147483648	; 0x80000000
    4eb2:	9303      	strlt	r3, [sp, #12]
    4eb4:	f8dd 800c 	ldr.w	r8, [sp, #12]
    4eb8:	bfa8      	it	ge
    4eba:	6023      	strge	r3, [r4, #0]
    4ebc:	f028 4300 	bic.w	r3, r8, #2147483648	; 0x80000000
    4ec0:	0d1b      	lsrs	r3, r3, #20
    4ec2:	051b      	lsls	r3, r3, #20
    4ec4:	4293      	cmp	r3, r2
    4ec6:	d11d      	bne.n	4f04 <_dtoa_r+0xac>
    4ec8:	f242 730f 	movw	r3, #9999	; 0x270f
    4ecc:	9a20      	ldr	r2, [sp, #128]	; 0x80
    4ece:	6013      	str	r3, [r2, #0]
    4ed0:	9b02      	ldr	r3, [sp, #8]
    4ed2:	b943      	cbnz	r3, 4ee6 <_dtoa_r+0x8e>
    4ed4:	4a93      	ldr	r2, [pc, #588]	; (5124 <_dtoa_r+0x2cc>)
    4ed6:	4b94      	ldr	r3, [pc, #592]	; (5128 <_dtoa_r+0x2d0>)
    4ed8:	f3c8 0013 	ubfx	r0, r8, #0, #20
    4edc:	2800      	cmp	r0, #0
    4ede:	bf14      	ite	ne
    4ee0:	4618      	movne	r0, r3
    4ee2:	4610      	moveq	r0, r2
    4ee4:	e000      	b.n	4ee8 <_dtoa_r+0x90>
    4ee6:	4890      	ldr	r0, [pc, #576]	; (5128 <_dtoa_r+0x2d0>)
    4ee8:	9b22      	ldr	r3, [sp, #136]	; 0x88
    4eea:	2b00      	cmp	r3, #0
    4eec:	f000 8546 	beq.w	597c <_dtoa_r+0xb24>
    4ef0:	78c3      	ldrb	r3, [r0, #3]
    4ef2:	b113      	cbz	r3, 4efa <_dtoa_r+0xa2>
    4ef4:	f100 0308 	add.w	r3, r0, #8
    4ef8:	e000      	b.n	4efc <_dtoa_r+0xa4>
    4efa:	1cc3      	adds	r3, r0, #3
    4efc:	9a22      	ldr	r2, [sp, #136]	; 0x88
    4efe:	6013      	str	r3, [r2, #0]
    4f00:	f000 bd3c 	b.w	597c <_dtoa_r+0xb24>
    4f04:	e9dd 4502 	ldrd	r4, r5, [sp, #8]
    4f08:	2200      	movs	r2, #0
    4f0a:	2300      	movs	r3, #0
    4f0c:	4620      	mov	r0, r4
    4f0e:	4629      	mov	r1, r5
    4f10:	f002 fc6a 	bl	77e8 <__aeabi_dcmpeq>
    4f14:	4607      	mov	r7, r0
    4f16:	b158      	cbz	r0, 4f30 <_dtoa_r+0xd8>
    4f18:	9a20      	ldr	r2, [sp, #128]	; 0x80
    4f1a:	2301      	movs	r3, #1
    4f1c:	6013      	str	r3, [r2, #0]
    4f1e:	9b22      	ldr	r3, [sp, #136]	; 0x88
    4f20:	2b00      	cmp	r3, #0
    4f22:	f000 851e 	beq.w	5962 <_dtoa_r+0xb0a>
    4f26:	4881      	ldr	r0, [pc, #516]	; (512c <_dtoa_r+0x2d4>)
    4f28:	6018      	str	r0, [r3, #0]
    4f2a:	3801      	subs	r0, #1
    4f2c:	f000 bd26 	b.w	597c <_dtoa_r+0xb24>
    4f30:	ab12      	add	r3, sp, #72	; 0x48
    4f32:	9301      	str	r3, [sp, #4]
    4f34:	ab13      	add	r3, sp, #76	; 0x4c
    4f36:	9300      	str	r3, [sp, #0]
    4f38:	4622      	mov	r2, r4
    4f3a:	462b      	mov	r3, r5
    4f3c:	4650      	mov	r0, r10
    4f3e:	f001 fc22 	bl	6786 <__d2b>
    4f42:	f3c8 560a 	ubfx	r6, r8, #20, #11
    4f46:	9004      	str	r0, [sp, #16]
    4f48:	b156      	cbz	r6, 4f60 <_dtoa_r+0x108>
    4f4a:	f3c5 0313 	ubfx	r3, r5, #0, #20
    4f4e:	f043 517f 	orr.w	r1, r3, #1069547520	; 0x3fc00000
    4f52:	4620      	mov	r0, r4
    4f54:	f441 1140 	orr.w	r1, r1, #3145728	; 0x300000
    4f58:	f2a6 36ff 	subw	r6, r6, #1023	; 0x3ff
    4f5c:	9711      	str	r7, [sp, #68]	; 0x44
    4f5e:	e01d      	b.n	4f9c <_dtoa_r+0x144>
    4f60:	9b13      	ldr	r3, [sp, #76]	; 0x4c
    4f62:	9e12      	ldr	r6, [sp, #72]	; 0x48
    4f64:	441e      	add	r6, r3
    4f66:	f206 4332 	addw	r3, r6, #1074	; 0x432
    4f6a:	2b20      	cmp	r3, #32
    4f6c:	dd0a      	ble.n	4f84 <_dtoa_r+0x12c>
    4f6e:	9a02      	ldr	r2, [sp, #8]
    4f70:	f206 4012 	addw	r0, r6, #1042	; 0x412
    4f74:	f1c3 0340 	rsb	r3, r3, #64	; 0x40
    4f78:	fa22 f000 	lsr.w	r0, r2, r0
    4f7c:	fa08 f303 	lsl.w	r3, r8, r3
    4f80:	4318      	orrs	r0, r3
    4f82:	e004      	b.n	4f8e <_dtoa_r+0x136>
    4f84:	f1c3 0020 	rsb	r0, r3, #32
    4f88:	9b02      	ldr	r3, [sp, #8]
    4f8a:	fa03 f000 	lsl.w	r0, r3, r0
    4f8e:	f002 f94d 	bl	722c <__aeabi_ui2d>
    4f92:	2301      	movs	r3, #1
    4f94:	f1a1 71f8 	sub.w	r1, r1, #32505856	; 0x1f00000
    4f98:	3e01      	subs	r6, #1
    4f9a:	9311      	str	r3, [sp, #68]	; 0x44
    4f9c:	2200      	movs	r2, #0
    4f9e:	4b64      	ldr	r3, [pc, #400]	; (5130 <_dtoa_r+0x2d8>)
    4fa0:	f002 f806 	bl	6fb0 <__aeabi_dsub>
    4fa4:	a358      	add	r3, pc, #352	; (adr r3, 5108 <_dtoa_r+0x2b0>)
    4fa6:	e9d3 2300 	ldrd	r2, r3, [r3]
    4faa:	f002 f9b5 	bl	7318 <__aeabi_dmul>
    4fae:	a358      	add	r3, pc, #352	; (adr r3, 5110 <_dtoa_r+0x2b8>)
    4fb0:	e9d3 2300 	ldrd	r2, r3, [r3]
    4fb4:	f001 fffe 	bl	6fb4 <__adddf3>
    4fb8:	4604      	mov	r4, r0
    4fba:	4630      	mov	r0, r6
    4fbc:	460d      	mov	r5, r1
    4fbe:	f002 f945 	bl	724c <__aeabi_i2d>
    4fc2:	a355      	add	r3, pc, #340	; (adr r3, 5118 <_dtoa_r+0x2c0>)
    4fc4:	e9d3 2300 	ldrd	r2, r3, [r3]
    4fc8:	f002 f9a6 	bl	7318 <__aeabi_dmul>
    4fcc:	4602      	mov	r2, r0
    4fce:	460b      	mov	r3, r1
    4fd0:	4620      	mov	r0, r4
    4fd2:	4629      	mov	r1, r5
    4fd4:	f001 ffee 	bl	6fb4 <__adddf3>
    4fd8:	4604      	mov	r4, r0
    4fda:	460d      	mov	r5, r1
    4fdc:	f002 fc4c 	bl	7878 <__aeabi_d2iz>
    4fe0:	2200      	movs	r2, #0
    4fe2:	4683      	mov	r11, r0
    4fe4:	2300      	movs	r3, #0
    4fe6:	4620      	mov	r0, r4
    4fe8:	4629      	mov	r1, r5
    4fea:	f002 fc07 	bl	77fc <__aeabi_dcmplt>
    4fee:	b158      	cbz	r0, 5008 <_dtoa_r+0x1b0>
    4ff0:	4658      	mov	r0, r11
    4ff2:	f002 f92b 	bl	724c <__aeabi_i2d>
    4ff6:	4602      	mov	r2, r0
    4ff8:	460b      	mov	r3, r1
    4ffa:	4620      	mov	r0, r4
    4ffc:	4629      	mov	r1, r5
    4ffe:	f002 fbf3 	bl	77e8 <__aeabi_dcmpeq>
    5002:	b908      	cbnz	r0, 5008 <_dtoa_r+0x1b0>
    5004:	f10b 3bff 	add.w	r11, r11, #4294967295
    5008:	f1bb 0f16 	cmp.w	r11, #22
    500c:	d80d      	bhi.n	502a <_dtoa_r+0x1d2>
    500e:	e9dd 2302 	ldrd	r2, r3, [sp, #8]
    5012:	4948      	ldr	r1, [pc, #288]	; (5134 <_dtoa_r+0x2dc>)
    5014:	eb01 01cb 	add.w	r1, r1, r11, lsl #3
    5018:	e9d1 0100 	ldrd	r0, r1, [r1]
    501c:	f002 fc0c 	bl	7838 <__aeabi_dcmpgt>
    5020:	b130      	cbz	r0, 5030 <_dtoa_r+0x1d8>
    5022:	f10b 3bff 	add.w	r11, r11, #4294967295
    5026:	2300      	movs	r3, #0
    5028:	e000      	b.n	502c <_dtoa_r+0x1d4>
    502a:	2301      	movs	r3, #1
    502c:	9310      	str	r3, [sp, #64]	; 0x40
    502e:	e000      	b.n	5032 <_dtoa_r+0x1da>
    5030:	9010      	str	r0, [sp, #64]	; 0x40
    5032:	9b12      	ldr	r3, [sp, #72]	; 0x48
    5034:	1b9e      	subs	r6, r3, r6
    5036:	1e73      	subs	r3, r6, #1
    5038:	9307      	str	r3, [sp, #28]
    503a:	bf43      	ittte	mi
    503c:	f1c3 0800 	rsbmi	r8, r3, #0
    5040:	2300      	movmi	r3, #0
    5042:	9307      	strmi	r3, [sp, #28]
    5044:	f04f 0800 	movpl.w	r8, #0
    5048:	f1bb 0f00 	cmp.w	r11, #0
    504c:	db06      	blt.n	505c <_dtoa_r+0x204>
    504e:	9b07      	ldr	r3, [sp, #28]
    5050:	f8cd b02c 	str.w	r11, [sp, #44]	; 0x2c
    5054:	445b      	add	r3, r11
    5056:	9307      	str	r3, [sp, #28]
    5058:	2700      	movs	r7, #0
    505a:	e005      	b.n	5068 <_dtoa_r+0x210>
    505c:	2300      	movs	r3, #0
    505e:	ebcb 0808 	rsb	r8, r11, r8
    5062:	f1cb 0700 	rsb	r7, r11, #0
    5066:	930b      	str	r3, [sp, #44]	; 0x2c
    5068:	9b1e      	ldr	r3, [sp, #120]	; 0x78
    506a:	2b09      	cmp	r3, #9
    506c:	d828      	bhi.n	50c0 <_dtoa_r+0x268>
    506e:	2b05      	cmp	r3, #5
    5070:	bfc4      	itt	gt
    5072:	3b04      	subgt	r3, #4
    5074:	931e      	strgt	r3, [sp, #120]	; 0x78
    5076:	9b1e      	ldr	r3, [sp, #120]	; 0x78
    5078:	bfc8      	it	gt
    507a:	2500      	movgt	r5, #0
    507c:	f1a3 0302 	sub.w	r3, r3, #2
    5080:	bfd8      	it	le
    5082:	2501      	movle	r5, #1
    5084:	2b03      	cmp	r3, #3
    5086:	d820      	bhi.n	50ca <_dtoa_r+0x272>
    5088:	e8df f003 	tbb	[pc, r3]
    508c:	04020e06 	.word	0x04020e06
    5090:	2301      	movs	r3, #1
    5092:	e002      	b.n	509a <_dtoa_r+0x242>
    5094:	2301      	movs	r3, #1
    5096:	e008      	b.n	50aa <_dtoa_r+0x252>
    5098:	2300      	movs	r3, #0
    509a:	930a      	str	r3, [sp, #40]	; 0x28
    509c:	9b1f      	ldr	r3, [sp, #124]	; 0x7c
    509e:	2b00      	cmp	r3, #0
    50a0:	dd1d      	ble.n	50de <_dtoa_r+0x286>
    50a2:	4699      	mov	r9, r3
    50a4:	9305      	str	r3, [sp, #20]
    50a6:	e021      	b.n	50ec <_dtoa_r+0x294>
    50a8:	2300      	movs	r3, #0
    50aa:	930a      	str	r3, [sp, #40]	; 0x28
    50ac:	9b1f      	ldr	r3, [sp, #124]	; 0x7c
    50ae:	eb0b 0903 	add.w	r9, r11, r3
    50b2:	f109 0301 	add.w	r3, r9, #1
    50b6:	2b01      	cmp	r3, #1
    50b8:	9305      	str	r3, [sp, #20]
    50ba:	bfb8      	it	lt
    50bc:	2301      	movlt	r3, #1
    50be:	e015      	b.n	50ec <_dtoa_r+0x294>
    50c0:	2501      	movs	r5, #1
    50c2:	2300      	movs	r3, #0
    50c4:	931e      	str	r3, [sp, #120]	; 0x78
    50c6:	950a      	str	r5, [sp, #40]	; 0x28
    50c8:	e001      	b.n	50ce <_dtoa_r+0x276>
    50ca:	2301      	movs	r3, #1
    50cc:	930a      	str	r3, [sp, #40]	; 0x28
    50ce:	f04f 39ff 	mov.w	r9, #4294967295
    50d2:	2200      	movs	r2, #0
    50d4:	f8cd 9014 	str.w	r9, [sp, #20]
    50d8:	2312      	movs	r3, #18
    50da:	921f      	str	r2, [sp, #124]	; 0x7c
    50dc:	e006      	b.n	50ec <_dtoa_r+0x294>
    50de:	f04f 0901 	mov.w	r9, #1
    50e2:	464b      	mov	r3, r9
    50e4:	f8cd 9014 	str.w	r9, [sp, #20]
    50e8:	f8cd 907c 	str.w	r9, [sp, #124]	; 0x7c
    50ec:	f8da 4024 	ldr.w	r4, [r10, #36]	; 0x24
    50f0:	2200      	movs	r2, #0
    50f2:	6062      	str	r2, [r4, #4]
    50f4:	2104      	movs	r1, #4
    50f6:	f101 0214 	add.w	r2, r1, #20
    50fa:	429a      	cmp	r2, r3
    50fc:	d81c      	bhi.n	5138 <_dtoa_r+0x2e0>
    50fe:	6862      	ldr	r2, [r4, #4]
    5100:	0049      	lsls	r1, r1, #1
    5102:	3201      	adds	r2, #1
    5104:	6062      	str	r2, [r4, #4]
    5106:	e7f6      	b.n	50f6 <_dtoa_r+0x29e>
    5108:	636f4361 	.word	0x636f4361
    510c:	3fd287a7 	.word	0x3fd287a7
    5110:	8b60c8b3 	.word	0x8b60c8b3
    5114:	3fc68a28 	.word	0x3fc68a28
    5118:	509f79fb 	.word	0x509f79fb
    511c:	3fd34413 	.word	0x3fd34413
    5120:	7ff00000 	.word	0x7ff00000
    5124:	00008610 	.word	0x00008610
    5128:	00008619 	.word	0x00008619
    512c:	000085bb 	.word	0x000085bb
    5130:	3ff80000 	.word	0x3ff80000
    5134:	00008628 	.word	0x00008628
    5138:	6861      	ldr	r1, [r4, #4]
    513a:	4650      	mov	r0, r10
    513c:	f000 ffec 	bl	6118 <_Balloc>
    5140:	f8da 3024 	ldr.w	r3, [r10, #36]	; 0x24
    5144:	6020      	str	r0, [r4, #0]
    5146:	681b      	ldr	r3, [r3, #0]
    5148:	9306      	str	r3, [sp, #24]
    514a:	9b05      	ldr	r3, [sp, #20]
    514c:	2b0e      	cmp	r3, #14
    514e:	f200 815b 	bhi.w	5408 <_dtoa_r+0x5b0>
    5152:	2d00      	cmp	r5, #0
    5154:	f000 8158 	beq.w	5408 <_dtoa_r+0x5b0>
    5158:	e9dd 3402 	ldrd	r3, r4, [sp, #8]
    515c:	f1bb 0f00 	cmp.w	r11, #0
    5160:	e9cd 340e 	strd	r3, r4, [sp, #56]	; 0x38
    5164:	dd30      	ble.n	51c8 <_dtoa_r+0x370>
    5166:	4a9f      	ldr	r2, [pc, #636]	; (53e4 <_dtoa_r+0x58c>)
    5168:	f00b 030f 	and.w	r3, r11, #15
    516c:	ea4f 152b 	mov.w	r5, r11, asr #4
    5170:	eb02 03c3 	add.w	r3, r2, r3, lsl #3
    5174:	06e8      	lsls	r0, r5, #27
    5176:	cb18      	ldmia	r3, {r3, r4}
    5178:	e9cd 3408 	strd	r3, r4, [sp, #32]
    517c:	d50c      	bpl.n	5198 <_dtoa_r+0x340>
    517e:	e9dd 010e 	ldrd	r0, r1, [sp, #56]	; 0x38
    5182:	4b99      	ldr	r3, [pc, #612]	; (53e8 <_dtoa_r+0x590>)
    5184:	f005 050f 	and.w	r5, r5, #15
    5188:	e9d3 2308 	ldrd	r2, r3, [r3, #32]
    518c:	f002 f9ee 	bl	756c <__aeabi_ddiv>
    5190:	2403      	movs	r4, #3
    5192:	e9cd 0102 	strd	r0, r1, [sp, #8]
    5196:	e000      	b.n	519a <_dtoa_r+0x342>
    5198:	2402      	movs	r4, #2
    519a:	4e93      	ldr	r6, [pc, #588]	; (53e8 <_dtoa_r+0x590>)
    519c:	b16d      	cbz	r5, 51ba <_dtoa_r+0x362>
    519e:	07e9      	lsls	r1, r5, #31
    51a0:	d508      	bpl.n	51b4 <_dtoa_r+0x35c>
    51a2:	e9dd 0108 	ldrd	r0, r1, [sp, #32]
    51a6:	e9d6 2300 	ldrd	r2, r3, [r6]
    51aa:	f002 f8b5 	bl	7318 <__aeabi_dmul>
    51ae:	e9cd 0108 	strd	r0, r1, [sp, #32]
    51b2:	3401      	adds	r4, #1
    51b4:	106d      	asrs	r5, r5, #1
    51b6:	3608      	adds	r6, #8
    51b8:	e7f0      	b.n	519c <_dtoa_r+0x344>
    51ba:	e9dd 2308 	ldrd	r2, r3, [sp, #32]
    51be:	e9dd 0102 	ldrd	r0, r1, [sp, #8]
    51c2:	f002 f9d3 	bl	756c <__aeabi_ddiv>
    51c6:	e020      	b.n	520a <_dtoa_r+0x3b2>
    51c8:	f1cb 0500 	rsb	r5, r11, #0
    51cc:	b305      	cbz	r5, 5210 <_dtoa_r+0x3b8>
    51ce:	e9dd 010e 	ldrd	r0, r1, [sp, #56]	; 0x38
    51d2:	4b84      	ldr	r3, [pc, #528]	; (53e4 <_dtoa_r+0x58c>)
    51d4:	f005 020f 	and.w	r2, r5, #15
    51d8:	eb03 03c2 	add.w	r3, r3, r2, lsl #3
    51dc:	e9d3 2300 	ldrd	r2, r3, [r3]
    51e0:	f002 f89a 	bl	7318 <__aeabi_dmul>
    51e4:	e9cd 0102 	strd	r0, r1, [sp, #8]
    51e8:	4e7f      	ldr	r6, [pc, #508]	; (53e8 <_dtoa_r+0x590>)
    51ea:	112d      	asrs	r5, r5, #4
    51ec:	2300      	movs	r3, #0
    51ee:	2402      	movs	r4, #2
    51f0:	b155      	cbz	r5, 5208 <_dtoa_r+0x3b0>
    51f2:	07ea      	lsls	r2, r5, #31
    51f4:	d505      	bpl.n	5202 <_dtoa_r+0x3aa>
    51f6:	e9d6 2300 	ldrd	r2, r3, [r6]
    51fa:	f002 f88d 	bl	7318 <__aeabi_dmul>
    51fe:	3401      	adds	r4, #1
    5200:	2301      	movs	r3, #1
    5202:	106d      	asrs	r5, r5, #1
    5204:	3608      	adds	r6, #8
    5206:	e7f3      	b.n	51f0 <_dtoa_r+0x398>
    5208:	b11b      	cbz	r3, 5212 <_dtoa_r+0x3ba>
    520a:	e9cd 0102 	strd	r0, r1, [sp, #8]
    520e:	e000      	b.n	5212 <_dtoa_r+0x3ba>
    5210:	2402      	movs	r4, #2
    5212:	9b10      	ldr	r3, [sp, #64]	; 0x40
    5214:	b1e3      	cbz	r3, 5250 <_dtoa_r+0x3f8>
    5216:	e9dd 5602 	ldrd	r5, r6, [sp, #8]
    521a:	2200      	movs	r2, #0
    521c:	4b73      	ldr	r3, [pc, #460]	; (53ec <_dtoa_r+0x594>)
    521e:	4628      	mov	r0, r5
    5220:	4631      	mov	r1, r6
    5222:	f002 faeb 	bl	77fc <__aeabi_dcmplt>
    5226:	b198      	cbz	r0, 5250 <_dtoa_r+0x3f8>
    5228:	9b05      	ldr	r3, [sp, #20]
    522a:	b18b      	cbz	r3, 5250 <_dtoa_r+0x3f8>
    522c:	f1b9 0f00 	cmp.w	r9, #0
    5230:	f340 80e6 	ble.w	5400 <_dtoa_r+0x5a8>
    5234:	f10b 33ff 	add.w	r3, r11, #4294967295
    5238:	9308      	str	r3, [sp, #32]
    523a:	4631      	mov	r1, r6
    523c:	2200      	movs	r2, #0
    523e:	4b6c      	ldr	r3, [pc, #432]	; (53f0 <_dtoa_r+0x598>)
    5240:	4628      	mov	r0, r5
    5242:	f002 f869 	bl	7318 <__aeabi_dmul>
    5246:	3401      	adds	r4, #1
    5248:	e9cd 0102 	strd	r0, r1, [sp, #8]
    524c:	464e      	mov	r6, r9
    524e:	e002      	b.n	5256 <_dtoa_r+0x3fe>
    5250:	9e05      	ldr	r6, [sp, #20]
    5252:	f8cd b020 	str.w	r11, [sp, #32]
    5256:	4620      	mov	r0, r4
    5258:	f001 fff8 	bl	724c <__aeabi_i2d>
    525c:	e9dd 2302 	ldrd	r2, r3, [sp, #8]
    5260:	f002 f85a 	bl	7318 <__aeabi_dmul>
    5264:	4b63      	ldr	r3, [pc, #396]	; (53f4 <_dtoa_r+0x59c>)
    5266:	2200      	movs	r2, #0
    5268:	f001 fea4 	bl	6fb4 <__adddf3>
    526c:	f1a1 7350 	sub.w	r3, r1, #54525952	; 0x3400000
    5270:	4604      	mov	r4, r0
    5272:	930c      	str	r3, [sp, #48]	; 0x30
    5274:	461d      	mov	r5, r3
    5276:	b9d6      	cbnz	r6, 52ae <_dtoa_r+0x456>
    5278:	e9dd 0102 	ldrd	r0, r1, [sp, #8]
    527c:	2200      	movs	r2, #0
    527e:	4b5e      	ldr	r3, [pc, #376]	; (53f8 <_dtoa_r+0x5a0>)
    5280:	f001 fe96 	bl	6fb0 <__aeabi_dsub>
    5284:	4622      	mov	r2, r4
    5286:	9b0c      	ldr	r3, [sp, #48]	; 0x30
    5288:	e9cd 0102 	strd	r0, r1, [sp, #8]
    528c:	f002 fad4 	bl	7838 <__aeabi_dcmpgt>
    5290:	2800      	cmp	r0, #0
    5292:	f040 823f 	bne.w	5714 <_dtoa_r+0x8bc>
    5296:	990c      	ldr	r1, [sp, #48]	; 0x30
    5298:	4622      	mov	r2, r4
    529a:	f101 4300 	add.w	r3, r1, #2147483648	; 0x80000000
    529e:	e9dd 0102 	ldrd	r0, r1, [sp, #8]
    52a2:	f002 faab 	bl	77fc <__aeabi_dcmplt>
    52a6:	2800      	cmp	r0, #0
    52a8:	f040 822b 	bne.w	5702 <_dtoa_r+0x8aa>
    52ac:	e0a8      	b.n	5400 <_dtoa_r+0x5a8>
    52ae:	9a0a      	ldr	r2, [sp, #40]	; 0x28
    52b0:	4b4c      	ldr	r3, [pc, #304]	; (53e4 <_dtoa_r+0x58c>)
    52b2:	1e71      	subs	r1, r6, #1
    52b4:	2a00      	cmp	r2, #0
    52b6:	d049      	beq.n	534c <_dtoa_r+0x4f4>
    52b8:	eb03 03c1 	add.w	r3, r3, r1, lsl #3
    52bc:	e9d3 2300 	ldrd	r2, r3, [r3]
    52c0:	2000      	movs	r0, #0
    52c2:	494e      	ldr	r1, [pc, #312]	; (53fc <_dtoa_r+0x5a4>)
    52c4:	f002 f952 	bl	756c <__aeabi_ddiv>
    52c8:	4622      	mov	r2, r4
    52ca:	462b      	mov	r3, r5
    52cc:	f001 fe70 	bl	6fb0 <__aeabi_dsub>
    52d0:	e9cd 010c 	strd	r0, r1, [sp, #48]	; 0x30
    52d4:	9c06      	ldr	r4, [sp, #24]
    52d6:	e9dd 0102 	ldrd	r0, r1, [sp, #8]
    52da:	f002 facd 	bl	7878 <__aeabi_d2iz>
    52de:	4605      	mov	r5, r0
    52e0:	f001 ffb4 	bl	724c <__aeabi_i2d>
    52e4:	4602      	mov	r2, r0
    52e6:	460b      	mov	r3, r1
    52e8:	e9dd 0102 	ldrd	r0, r1, [sp, #8]
    52ec:	f001 fe60 	bl	6fb0 <__aeabi_dsub>
    52f0:	e9dd 230c 	ldrd	r2, r3, [sp, #48]	; 0x30
    52f4:	3530      	adds	r5, #48	; 0x30
    52f6:	f804 5b01 	strb.w	r5, [r4], #1
    52fa:	e9cd 0102 	strd	r0, r1, [sp, #8]
    52fe:	f002 fa7d 	bl	77fc <__aeabi_dcmplt>
    5302:	2800      	cmp	r0, #0
    5304:	f040 831d 	bne.w	5942 <_dtoa_r+0xaea>
    5308:	e9dd 2302 	ldrd	r2, r3, [sp, #8]
    530c:	2000      	movs	r0, #0
    530e:	4937      	ldr	r1, [pc, #220]	; (53ec <_dtoa_r+0x594>)
    5310:	f001 fe4e 	bl	6fb0 <__aeabi_dsub>
    5314:	e9dd 230c 	ldrd	r2, r3, [sp, #48]	; 0x30
    5318:	f002 fa70 	bl	77fc <__aeabi_dcmplt>
    531c:	2800      	cmp	r0, #0
    531e:	f040 80d1 	bne.w	54c4 <_dtoa_r+0x66c>
    5322:	9b06      	ldr	r3, [sp, #24]
    5324:	1ae3      	subs	r3, r4, r3
    5326:	42b3      	cmp	r3, r6
    5328:	da6a      	bge.n	5400 <_dtoa_r+0x5a8>
    532a:	e9dd 010c 	ldrd	r0, r1, [sp, #48]	; 0x30
    532e:	2200      	movs	r2, #0
    5330:	4b2f      	ldr	r3, [pc, #188]	; (53f0 <_dtoa_r+0x598>)
    5332:	f001 fff1 	bl	7318 <__aeabi_dmul>
    5336:	2200      	movs	r2, #0
    5338:	e9cd 010c 	strd	r0, r1, [sp, #48]	; 0x30
    533c:	e9dd 0102 	ldrd	r0, r1, [sp, #8]
    5340:	4b2b      	ldr	r3, [pc, #172]	; (53f0 <_dtoa_r+0x598>)
    5342:	f001 ffe9 	bl	7318 <__aeabi_dmul>
    5346:	e9cd 0102 	strd	r0, r1, [sp, #8]
    534a:	e7c4      	b.n	52d6 <_dtoa_r+0x47e>
    534c:	eb03 01c1 	add.w	r1, r3, r1, lsl #3
    5350:	4622      	mov	r2, r4
    5352:	e9d1 0100 	ldrd	r0, r1, [r1]
    5356:	462b      	mov	r3, r5
    5358:	f001 ffde 	bl	7318 <__aeabi_dmul>
    535c:	9b06      	ldr	r3, [sp, #24]
    535e:	e9cd 010c 	strd	r0, r1, [sp, #48]	; 0x30
    5362:	461d      	mov	r5, r3
    5364:	199c      	adds	r4, r3, r6
    5366:	e9dd 0102 	ldrd	r0, r1, [sp, #8]
    536a:	f002 fa85 	bl	7878 <__aeabi_d2iz>
    536e:	4606      	mov	r6, r0
    5370:	f001 ff6c 	bl	724c <__aeabi_i2d>
    5374:	4602      	mov	r2, r0
    5376:	460b      	mov	r3, r1
    5378:	e9dd 0102 	ldrd	r0, r1, [sp, #8]
    537c:	f001 fe18 	bl	6fb0 <__aeabi_dsub>
    5380:	3630      	adds	r6, #48	; 0x30
    5382:	f805 6b01 	strb.w	r6, [r5], #1
    5386:	42ac      	cmp	r4, r5
    5388:	e9cd 0102 	strd	r0, r1, [sp, #8]
    538c:	f04f 0200 	mov.w	r2, #0
    5390:	d122      	bne.n	53d8 <_dtoa_r+0x580>
    5392:	4b1a      	ldr	r3, [pc, #104]	; (53fc <_dtoa_r+0x5a4>)
    5394:	e9dd 010c 	ldrd	r0, r1, [sp, #48]	; 0x30
    5398:	f001 fe0c 	bl	6fb4 <__adddf3>
    539c:	4602      	mov	r2, r0
    539e:	460b      	mov	r3, r1
    53a0:	e9dd 0102 	ldrd	r0, r1, [sp, #8]
    53a4:	f002 fa48 	bl	7838 <__aeabi_dcmpgt>
    53a8:	2800      	cmp	r0, #0
    53aa:	f040 808b 	bne.w	54c4 <_dtoa_r+0x66c>
    53ae:	e9dd 230c 	ldrd	r2, r3, [sp, #48]	; 0x30
    53b2:	2000      	movs	r0, #0
    53b4:	4911      	ldr	r1, [pc, #68]	; (53fc <_dtoa_r+0x5a4>)
    53b6:	f001 fdfb 	bl	6fb0 <__aeabi_dsub>
    53ba:	4602      	mov	r2, r0
    53bc:	460b      	mov	r3, r1
    53be:	e9dd 0102 	ldrd	r0, r1, [sp, #8]
    53c2:	f002 fa1b 	bl	77fc <__aeabi_dcmplt>
    53c6:	b1d8      	cbz	r0, 5400 <_dtoa_r+0x5a8>
    53c8:	f814 3c01 	ldrb.w	r3, [r4, #-1]
    53cc:	1e62      	subs	r2, r4, #1
    53ce:	2b30      	cmp	r3, #48	; 0x30
    53d0:	f040 82b7 	bne.w	5942 <_dtoa_r+0xaea>
    53d4:	4614      	mov	r4, r2
    53d6:	e7f7      	b.n	53c8 <_dtoa_r+0x570>
    53d8:	4b05      	ldr	r3, [pc, #20]	; (53f0 <_dtoa_r+0x598>)
    53da:	f001 ff9d 	bl	7318 <__aeabi_dmul>
    53de:	e9cd 0102 	strd	r0, r1, [sp, #8]
    53e2:	e7c0      	b.n	5366 <_dtoa_r+0x50e>
    53e4:	00008628 	.word	0x00008628
    53e8:	000086f0 	.word	0x000086f0
    53ec:	3ff00000 	.word	0x3ff00000
    53f0:	40240000 	.word	0x40240000
    53f4:	401c0000 	.word	0x401c0000
    53f8:	40140000 	.word	0x40140000
    53fc:	3fe00000 	.word	0x3fe00000
    5400:	e9dd 340e 	ldrd	r3, r4, [sp, #56]	; 0x38
    5404:	e9cd 3402 	strd	r3, r4, [sp, #8]
    5408:	9b13      	ldr	r3, [sp, #76]	; 0x4c
    540a:	2b00      	cmp	r3, #0
    540c:	db7c      	blt.n	5508 <_dtoa_r+0x6b0>
    540e:	f1bb 0f0e 	cmp.w	r11, #14
    5412:	dc79      	bgt.n	5508 <_dtoa_r+0x6b0>
    5414:	4bab      	ldr	r3, [pc, #684]	; (56c4 <_dtoa_r+0x86c>)
    5416:	eb03 03cb 	add.w	r3, r3, r11, lsl #3
    541a:	e9d3 6700 	ldrd	r6, r7, [r3]
    541e:	9b1f      	ldr	r3, [sp, #124]	; 0x7c
    5420:	2b00      	cmp	r3, #0
    5422:	da14      	bge.n	544e <_dtoa_r+0x5f6>
    5424:	9b05      	ldr	r3, [sp, #20]
    5426:	2b00      	cmp	r3, #0
    5428:	dc11      	bgt.n	544e <_dtoa_r+0x5f6>
    542a:	f040 816c 	bne.w	5706 <_dtoa_r+0x8ae>
    542e:	2200      	movs	r2, #0
    5430:	4ba5      	ldr	r3, [pc, #660]	; (56c8 <_dtoa_r+0x870>)
    5432:	4630      	mov	r0, r6
    5434:	4639      	mov	r1, r7
    5436:	f001 ff6f 	bl	7318 <__aeabi_dmul>
    543a:	e9dd 2302 	ldrd	r2, r3, [sp, #8]
    543e:	f002 f9f1 	bl	7824 <__aeabi_dcmpge>
    5442:	9d05      	ldr	r5, [sp, #20]
    5444:	462e      	mov	r6, r5
    5446:	2800      	cmp	r0, #0
    5448:	f040 815f 	bne.w	570a <_dtoa_r+0x8b2>
    544c:	e165      	b.n	571a <_dtoa_r+0x8c2>
    544e:	9c06      	ldr	r4, [sp, #24]
    5450:	e9dd 8902 	ldrd	r8, r9, [sp, #8]
    5454:	4632      	mov	r2, r6
    5456:	463b      	mov	r3, r7
    5458:	4640      	mov	r0, r8
    545a:	4649      	mov	r1, r9
    545c:	f002 f886 	bl	756c <__aeabi_ddiv>
    5460:	f002 fa0a 	bl	7878 <__aeabi_d2iz>
    5464:	4605      	mov	r5, r0
    5466:	f001 fef1 	bl	724c <__aeabi_i2d>
    546a:	4632      	mov	r2, r6
    546c:	463b      	mov	r3, r7
    546e:	f001 ff53 	bl	7318 <__aeabi_dmul>
    5472:	460b      	mov	r3, r1
    5474:	4602      	mov	r2, r0
    5476:	4649      	mov	r1, r9
    5478:	4640      	mov	r0, r8
    547a:	f001 fd99 	bl	6fb0 <__aeabi_dsub>
    547e:	f105 0e30 	add.w	lr, r5, #48	; 0x30
    5482:	9b06      	ldr	r3, [sp, #24]
    5484:	f804 eb01 	strb.w	lr, [r4], #1
    5488:	ebc3 0e04 	rsb	lr, r3, r4
    548c:	9b05      	ldr	r3, [sp, #20]
    548e:	4573      	cmp	r3, lr
    5490:	d12d      	bne.n	54ee <_dtoa_r+0x696>
    5492:	4602      	mov	r2, r0
    5494:	460b      	mov	r3, r1
    5496:	f001 fd8d 	bl	6fb4 <__adddf3>
    549a:	4680      	mov	r8, r0
    549c:	4689      	mov	r9, r1
    549e:	4602      	mov	r2, r0
    54a0:	460b      	mov	r3, r1
    54a2:	4630      	mov	r0, r6
    54a4:	4639      	mov	r1, r7
    54a6:	f002 f9a9 	bl	77fc <__aeabi_dcmplt>
    54aa:	b978      	cbnz	r0, 54cc <_dtoa_r+0x674>
    54ac:	4642      	mov	r2, r8
    54ae:	464b      	mov	r3, r9
    54b0:	4630      	mov	r0, r6
    54b2:	4639      	mov	r1, r7
    54b4:	f002 f998 	bl	77e8 <__aeabi_dcmpeq>
    54b8:	2800      	cmp	r0, #0
    54ba:	f000 8244 	beq.w	5946 <_dtoa_r+0xaee>
    54be:	07eb      	lsls	r3, r5, #31
    54c0:	d404      	bmi.n	54cc <_dtoa_r+0x674>
    54c2:	e240      	b.n	5946 <_dtoa_r+0xaee>
    54c4:	f8dd b020 	ldr.w	r11, [sp, #32]
    54c8:	e000      	b.n	54cc <_dtoa_r+0x674>
    54ca:	461c      	mov	r4, r3
    54cc:	f814 2c01 	ldrb.w	r2, [r4, #-1]
    54d0:	1e63      	subs	r3, r4, #1
    54d2:	2a39      	cmp	r2, #57	; 0x39
    54d4:	d107      	bne.n	54e6 <_dtoa_r+0x68e>
    54d6:	9a06      	ldr	r2, [sp, #24]
    54d8:	429a      	cmp	r2, r3
    54da:	d1f6      	bne.n	54ca <_dtoa_r+0x672>
    54dc:	9906      	ldr	r1, [sp, #24]
    54de:	2230      	movs	r2, #48	; 0x30
    54e0:	f10b 0b01 	add.w	r11, r11, #1
    54e4:	700a      	strb	r2, [r1, #0]
    54e6:	781a      	ldrb	r2, [r3, #0]
    54e8:	3201      	adds	r2, #1
    54ea:	701a      	strb	r2, [r3, #0]
    54ec:	e22b      	b.n	5946 <_dtoa_r+0xaee>
    54ee:	2200      	movs	r2, #0
    54f0:	4b76      	ldr	r3, [pc, #472]	; (56cc <_dtoa_r+0x874>)
    54f2:	f001 ff11 	bl	7318 <__aeabi_dmul>
    54f6:	2200      	movs	r2, #0
    54f8:	2300      	movs	r3, #0
    54fa:	4680      	mov	r8, r0
    54fc:	4689      	mov	r9, r1
    54fe:	f002 f973 	bl	77e8 <__aeabi_dcmpeq>
    5502:	2800      	cmp	r0, #0
    5504:	d0a6      	beq.n	5454 <_dtoa_r+0x5fc>
    5506:	e21e      	b.n	5946 <_dtoa_r+0xaee>
    5508:	9a0a      	ldr	r2, [sp, #40]	; 0x28
    550a:	2a00      	cmp	r2, #0
    550c:	d02b      	beq.n	5566 <_dtoa_r+0x70e>
    550e:	9a1e      	ldr	r2, [sp, #120]	; 0x78
    5510:	2a01      	cmp	r2, #1
    5512:	dc0a      	bgt.n	552a <_dtoa_r+0x6d2>
    5514:	9a11      	ldr	r2, [sp, #68]	; 0x44
    5516:	b112      	cbz	r2, 551e <_dtoa_r+0x6c6>
    5518:	f203 4333 	addw	r3, r3, #1075	; 0x433
    551c:	e002      	b.n	5524 <_dtoa_r+0x6cc>
    551e:	9b12      	ldr	r3, [sp, #72]	; 0x48
    5520:	f1c3 0336 	rsb	r3, r3, #54	; 0x36
    5524:	463d      	mov	r5, r7
    5526:	4644      	mov	r4, r8
    5528:	e013      	b.n	5552 <_dtoa_r+0x6fa>
    552a:	9b05      	ldr	r3, [sp, #20]
    552c:	1e5d      	subs	r5, r3, #1
    552e:	42af      	cmp	r7, r5
    5530:	bfbf      	itttt	lt
    5532:	9b0b      	ldrlt	r3, [sp, #44]	; 0x2c
    5534:	1bea      	sublt	r2, r5, r7
    5536:	189b      	addlt	r3, r3, r2
    5538:	930b      	strlt	r3, [sp, #44]	; 0x2c
    553a:	9b05      	ldr	r3, [sp, #20]
    553c:	bfb6      	itet	lt
    553e:	462f      	movlt	r7, r5
    5540:	1b7d      	subge	r5, r7, r5
    5542:	2500      	movlt	r5, #0
    5544:	2b00      	cmp	r3, #0
    5546:	bfa7      	ittee	ge
    5548:	4644      	movge	r4, r8
    554a:	9b05      	ldrge	r3, [sp, #20]
    554c:	ebc3 0408 	rsblt	r4, r3, r8
    5550:	2300      	movlt	r3, #0
    5552:	9a07      	ldr	r2, [sp, #28]
    5554:	2101      	movs	r1, #1
    5556:	441a      	add	r2, r3
    5558:	4650      	mov	r0, r10
    555a:	4498      	add	r8, r3
    555c:	9207      	str	r2, [sp, #28]
    555e:	f000 feed 	bl	633c <__i2b>
    5562:	4606      	mov	r6, r0
    5564:	e002      	b.n	556c <_dtoa_r+0x714>
    5566:	463d      	mov	r5, r7
    5568:	4644      	mov	r4, r8
    556a:	9e0a      	ldr	r6, [sp, #40]	; 0x28
    556c:	b15c      	cbz	r4, 5586 <_dtoa_r+0x72e>
    556e:	9b07      	ldr	r3, [sp, #28]
    5570:	2b00      	cmp	r3, #0
    5572:	dd08      	ble.n	5586 <_dtoa_r+0x72e>
    5574:	42a3      	cmp	r3, r4
    5576:	bfa8      	it	ge
    5578:	4623      	movge	r3, r4
    557a:	9a07      	ldr	r2, [sp, #28]
    557c:	ebc3 0808 	rsb	r8, r3, r8
    5580:	1ae4      	subs	r4, r4, r3
    5582:	1ad3      	subs	r3, r2, r3
    5584:	9307      	str	r3, [sp, #28]
    5586:	2f00      	cmp	r7, #0
    5588:	dd1d      	ble.n	55c6 <_dtoa_r+0x76e>
    558a:	9b0a      	ldr	r3, [sp, #40]	; 0x28
    558c:	b1ab      	cbz	r3, 55ba <_dtoa_r+0x762>
    558e:	b18d      	cbz	r5, 55b4 <_dtoa_r+0x75c>
    5590:	4631      	mov	r1, r6
    5592:	462a      	mov	r2, r5
    5594:	4650      	mov	r0, r10
    5596:	f000 ff6b 	bl	6470 <__pow5mult>
    559a:	9a04      	ldr	r2, [sp, #16]
    559c:	4601      	mov	r1, r0
    559e:	4606      	mov	r6, r0
    55a0:	4650      	mov	r0, r10
    55a2:	f000 fed4 	bl	634e <__multiply>
    55a6:	9904      	ldr	r1, [sp, #16]
    55a8:	9008      	str	r0, [sp, #32]
    55aa:	4650      	mov	r0, r10
    55ac:	f000 fde9 	bl	6182 <_Bfree>
    55b0:	9b08      	ldr	r3, [sp, #32]
    55b2:	9304      	str	r3, [sp, #16]
    55b4:	1b7a      	subs	r2, r7, r5
    55b6:	d006      	beq.n	55c6 <_dtoa_r+0x76e>
    55b8:	e000      	b.n	55bc <_dtoa_r+0x764>
    55ba:	463a      	mov	r2, r7
    55bc:	9904      	ldr	r1, [sp, #16]
    55be:	4650      	mov	r0, r10
    55c0:	f000 ff56 	bl	6470 <__pow5mult>
    55c4:	9004      	str	r0, [sp, #16]
    55c6:	2101      	movs	r1, #1
    55c8:	4650      	mov	r0, r10
    55ca:	f000 feb7 	bl	633c <__i2b>
    55ce:	9b0b      	ldr	r3, [sp, #44]	; 0x2c
    55d0:	4605      	mov	r5, r0
    55d2:	b35b      	cbz	r3, 562c <_dtoa_r+0x7d4>
    55d4:	461a      	mov	r2, r3
    55d6:	4601      	mov	r1, r0
    55d8:	4650      	mov	r0, r10
    55da:	f000 ff49 	bl	6470 <__pow5mult>
    55de:	9b1e      	ldr	r3, [sp, #120]	; 0x78
    55e0:	4605      	mov	r5, r0
    55e2:	2b01      	cmp	r3, #1
    55e4:	dc18      	bgt.n	5618 <_dtoa_r+0x7c0>
    55e6:	9b02      	ldr	r3, [sp, #8]
    55e8:	b983      	cbnz	r3, 560c <_dtoa_r+0x7b4>
    55ea:	9b03      	ldr	r3, [sp, #12]
    55ec:	f3c3 0313 	ubfx	r3, r3, #0, #20
    55f0:	b973      	cbnz	r3, 5610 <_dtoa_r+0x7b8>
    55f2:	9b03      	ldr	r3, [sp, #12]
    55f4:	f023 4700 	bic.w	r7, r3, #2147483648	; 0x80000000
    55f8:	0d3f      	lsrs	r7, r7, #20
    55fa:	053f      	lsls	r7, r7, #20
    55fc:	b14f      	cbz	r7, 5612 <_dtoa_r+0x7ba>
    55fe:	9b07      	ldr	r3, [sp, #28]
    5600:	f108 0801 	add.w	r8, r8, #1
    5604:	3301      	adds	r3, #1
    5606:	9307      	str	r3, [sp, #28]
    5608:	2701      	movs	r7, #1
    560a:	e002      	b.n	5612 <_dtoa_r+0x7ba>
    560c:	2700      	movs	r7, #0
    560e:	e000      	b.n	5612 <_dtoa_r+0x7ba>
    5610:	9f02      	ldr	r7, [sp, #8]
    5612:	9b0b      	ldr	r3, [sp, #44]	; 0x2c
    5614:	b173      	cbz	r3, 5634 <_dtoa_r+0x7dc>
    5616:	e000      	b.n	561a <_dtoa_r+0x7c2>
    5618:	2700      	movs	r7, #0
    561a:	692b      	ldr	r3, [r5, #16]
    561c:	eb05 0383 	add.w	r3, r5, r3, lsl #2
    5620:	6918      	ldr	r0, [r3, #16]
    5622:	f000 fe3e 	bl	62a2 <__hi0bits>
    5626:	f1c0 0020 	rsb	r0, r0, #32
    562a:	e004      	b.n	5636 <_dtoa_r+0x7de>
    562c:	9b1e      	ldr	r3, [sp, #120]	; 0x78
    562e:	2b01      	cmp	r3, #1
    5630:	ddd9      	ble.n	55e6 <_dtoa_r+0x78e>
    5632:	9f0b      	ldr	r7, [sp, #44]	; 0x2c
    5634:	2001      	movs	r0, #1
    5636:	9b07      	ldr	r3, [sp, #28]
    5638:	4418      	add	r0, r3
    563a:	f010 001f 	ands.w	r0, r0, #31
    563e:	d008      	beq.n	5652 <_dtoa_r+0x7fa>
    5640:	f1c0 0320 	rsb	r3, r0, #32
    5644:	2b04      	cmp	r3, #4
    5646:	dd02      	ble.n	564e <_dtoa_r+0x7f6>
    5648:	f1c0 001c 	rsb	r0, r0, #28
    564c:	e002      	b.n	5654 <_dtoa_r+0x7fc>
    564e:	d006      	beq.n	565e <_dtoa_r+0x806>
    5650:	4618      	mov	r0, r3
    5652:	301c      	adds	r0, #28
    5654:	9b07      	ldr	r3, [sp, #28]
    5656:	4480      	add	r8, r0
    5658:	4403      	add	r3, r0
    565a:	4404      	add	r4, r0
    565c:	9307      	str	r3, [sp, #28]
    565e:	f1b8 0f00 	cmp.w	r8, #0
    5662:	dd05      	ble.n	5670 <_dtoa_r+0x818>
    5664:	4642      	mov	r2, r8
    5666:	9904      	ldr	r1, [sp, #16]
    5668:	4650      	mov	r0, r10
    566a:	f000 ff4f 	bl	650c <__lshift>
    566e:	9004      	str	r0, [sp, #16]
    5670:	9b07      	ldr	r3, [sp, #28]
    5672:	2b00      	cmp	r3, #0
    5674:	dd05      	ble.n	5682 <_dtoa_r+0x82a>
    5676:	4629      	mov	r1, r5
    5678:	461a      	mov	r2, r3
    567a:	4650      	mov	r0, r10
    567c:	f000 ff46 	bl	650c <__lshift>
    5680:	4605      	mov	r5, r0
    5682:	9b10      	ldr	r3, [sp, #64]	; 0x40
    5684:	b323      	cbz	r3, 56d0 <_dtoa_r+0x878>
    5686:	4629      	mov	r1, r5
    5688:	9804      	ldr	r0, [sp, #16]
    568a:	f000 ff90 	bl	65ae <__mcmp>
    568e:	2800      	cmp	r0, #0
    5690:	da1e      	bge.n	56d0 <_dtoa_r+0x878>
    5692:	2300      	movs	r3, #0
    5694:	220a      	movs	r2, #10
    5696:	9904      	ldr	r1, [sp, #16]
    5698:	4650      	mov	r0, r10
    569a:	f000 fd89 	bl	61b0 <__multadd>
    569e:	9b0a      	ldr	r3, [sp, #40]	; 0x28
    56a0:	f10b 3bff 	add.w	r11, r11, #4294967295
    56a4:	9004      	str	r0, [sp, #16]
    56a6:	2b00      	cmp	r3, #0
    56a8:	f000 815f 	beq.w	596a <_dtoa_r+0xb12>
    56ac:	4631      	mov	r1, r6
    56ae:	2300      	movs	r3, #0
    56b0:	220a      	movs	r2, #10
    56b2:	4650      	mov	r0, r10
    56b4:	f000 fd7c 	bl	61b0 <__multadd>
    56b8:	f1b9 0f00 	cmp.w	r9, #0
    56bc:	4606      	mov	r6, r0
    56be:	dc3f      	bgt.n	5740 <_dtoa_r+0x8e8>
    56c0:	e03b      	b.n	573a <_dtoa_r+0x8e2>
    56c2:	bf00      	nop
    56c4:	00008628 	.word	0x00008628
    56c8:	40140000 	.word	0x40140000
    56cc:	40240000 	.word	0x40240000
    56d0:	9b05      	ldr	r3, [sp, #20]
    56d2:	2b00      	cmp	r3, #0
    56d4:	dc2b      	bgt.n	572e <_dtoa_r+0x8d6>
    56d6:	9b1e      	ldr	r3, [sp, #120]	; 0x78
    56d8:	2b02      	cmp	r3, #2
    56da:	dd28      	ble.n	572e <_dtoa_r+0x8d6>
    56dc:	f8dd 9014 	ldr.w	r9, [sp, #20]
    56e0:	f1b9 0f00 	cmp.w	r9, #0
    56e4:	d111      	bne.n	570a <_dtoa_r+0x8b2>
    56e6:	4629      	mov	r1, r5
    56e8:	464b      	mov	r3, r9
    56ea:	2205      	movs	r2, #5
    56ec:	4650      	mov	r0, r10
    56ee:	f000 fd5f 	bl	61b0 <__multadd>
    56f2:	4601      	mov	r1, r0
    56f4:	4605      	mov	r5, r0
    56f6:	9804      	ldr	r0, [sp, #16]
    56f8:	f000 ff59 	bl	65ae <__mcmp>
    56fc:	2800      	cmp	r0, #0
    56fe:	dc0c      	bgt.n	571a <_dtoa_r+0x8c2>
    5700:	e003      	b.n	570a <_dtoa_r+0x8b2>
    5702:	4635      	mov	r5, r6
    5704:	e000      	b.n	5708 <_dtoa_r+0x8b0>
    5706:	2500      	movs	r5, #0
    5708:	462e      	mov	r6, r5
    570a:	9b1f      	ldr	r3, [sp, #124]	; 0x7c
    570c:	9c06      	ldr	r4, [sp, #24]
    570e:	ea6f 0b03 	mvn.w	r11, r3
    5712:	e009      	b.n	5728 <_dtoa_r+0x8d0>
    5714:	4635      	mov	r5, r6
    5716:	f8dd b020 	ldr.w	r11, [sp, #32]
    571a:	9b06      	ldr	r3, [sp, #24]
    571c:	9a06      	ldr	r2, [sp, #24]
    571e:	1c5c      	adds	r4, r3, #1
    5720:	2331      	movs	r3, #49	; 0x31
    5722:	7013      	strb	r3, [r2, #0]
    5724:	f10b 0b01 	add.w	r11, r11, #1
    5728:	9605      	str	r6, [sp, #20]
    572a:	2600      	movs	r6, #0
    572c:	e0f7      	b.n	591e <_dtoa_r+0xac6>
    572e:	9b0a      	ldr	r3, [sp, #40]	; 0x28
    5730:	f8dd 9014 	ldr.w	r9, [sp, #20]
    5734:	b923      	cbnz	r3, 5740 <_dtoa_r+0x8e8>
    5736:	9c06      	ldr	r4, [sp, #24]
    5738:	e0b2      	b.n	58a0 <_dtoa_r+0xa48>
    573a:	9b1e      	ldr	r3, [sp, #120]	; 0x78
    573c:	2b02      	cmp	r3, #2
    573e:	dccf      	bgt.n	56e0 <_dtoa_r+0x888>
    5740:	2c00      	cmp	r4, #0
    5742:	dd05      	ble.n	5750 <_dtoa_r+0x8f8>
    5744:	4631      	mov	r1, r6
    5746:	4622      	mov	r2, r4
    5748:	4650      	mov	r0, r10
    574a:	f000 fedf 	bl	650c <__lshift>
    574e:	4606      	mov	r6, r0
    5750:	b19f      	cbz	r7, 577a <_dtoa_r+0x922>
    5752:	6871      	ldr	r1, [r6, #4]
    5754:	4650      	mov	r0, r10
    5756:	f000 fcdf 	bl	6118 <_Balloc>
    575a:	4604      	mov	r4, r0
    575c:	6932      	ldr	r2, [r6, #16]
    575e:	f106 010c 	add.w	r1, r6, #12
    5762:	3202      	adds	r2, #2
    5764:	0092      	lsls	r2, r2, #2
    5766:	300c      	adds	r0, #12
    5768:	f7fc feac 	bl	24c4 <memcpy>
    576c:	2201      	movs	r2, #1
    576e:	4621      	mov	r1, r4
    5770:	4650      	mov	r0, r10
    5772:	f000 fecb 	bl	650c <__lshift>
    5776:	9005      	str	r0, [sp, #20]
    5778:	e000      	b.n	577c <_dtoa_r+0x924>
    577a:	9605      	str	r6, [sp, #20]
    577c:	9b02      	ldr	r3, [sp, #8]
    577e:	9f06      	ldr	r7, [sp, #24]
    5780:	f003 0301 	and.w	r3, r3, #1
    5784:	9307      	str	r3, [sp, #28]
    5786:	4629      	mov	r1, r5
    5788:	9804      	ldr	r0, [sp, #16]
    578a:	f7ff fad9 	bl	4d40 <quorem>
    578e:	4631      	mov	r1, r6
    5790:	4604      	mov	r4, r0
    5792:	f100 0830 	add.w	r8, r0, #48	; 0x30
    5796:	9804      	ldr	r0, [sp, #16]
    5798:	f000 ff09 	bl	65ae <__mcmp>
    579c:	9a05      	ldr	r2, [sp, #20]
    579e:	9002      	str	r0, [sp, #8]
    57a0:	4629      	mov	r1, r5
    57a2:	4650      	mov	r0, r10
    57a4:	f000 ff1f 	bl	65e6 <__mdiff>
    57a8:	68c3      	ldr	r3, [r0, #12]
    57aa:	4602      	mov	r2, r0
    57ac:	b93b      	cbnz	r3, 57be <_dtoa_r+0x966>
    57ae:	4601      	mov	r1, r0
    57b0:	900a      	str	r0, [sp, #40]	; 0x28
    57b2:	9804      	ldr	r0, [sp, #16]
    57b4:	f000 fefb 	bl	65ae <__mcmp>
    57b8:	9a0a      	ldr	r2, [sp, #40]	; 0x28
    57ba:	4603      	mov	r3, r0
    57bc:	e000      	b.n	57c0 <_dtoa_r+0x968>
    57be:	2301      	movs	r3, #1
    57c0:	4611      	mov	r1, r2
    57c2:	4650      	mov	r0, r10
    57c4:	930a      	str	r3, [sp, #40]	; 0x28
    57c6:	f000 fcdc 	bl	6182 <_Bfree>
    57ca:	9b0a      	ldr	r3, [sp, #40]	; 0x28
    57cc:	b953      	cbnz	r3, 57e4 <_dtoa_r+0x98c>
    57ce:	9a1e      	ldr	r2, [sp, #120]	; 0x78
    57d0:	b942      	cbnz	r2, 57e4 <_dtoa_r+0x98c>
    57d2:	9a07      	ldr	r2, [sp, #28]
    57d4:	b932      	cbnz	r2, 57e4 <_dtoa_r+0x98c>
    57d6:	f1b8 0f39 	cmp.w	r8, #57	; 0x39
    57da:	d02a      	beq.n	5832 <_dtoa_r+0x9da>
    57dc:	9b02      	ldr	r3, [sp, #8]
    57de:	2b00      	cmp	r3, #0
    57e0:	dc1c      	bgt.n	581c <_dtoa_r+0x9c4>
    57e2:	e01d      	b.n	5820 <_dtoa_r+0x9c8>
    57e4:	9a02      	ldr	r2, [sp, #8]
    57e6:	2a00      	cmp	r2, #0
    57e8:	db04      	blt.n	57f4 <_dtoa_r+0x99c>
    57ea:	d11b      	bne.n	5824 <_dtoa_r+0x9cc>
    57ec:	9a1e      	ldr	r2, [sp, #120]	; 0x78
    57ee:	b9ca      	cbnz	r2, 5824 <_dtoa_r+0x9cc>
    57f0:	9a07      	ldr	r2, [sp, #28]
    57f2:	b9ba      	cbnz	r2, 5824 <_dtoa_r+0x9cc>
    57f4:	2b00      	cmp	r3, #0
    57f6:	dd13      	ble.n	5820 <_dtoa_r+0x9c8>
    57f8:	2201      	movs	r2, #1
    57fa:	9904      	ldr	r1, [sp, #16]
    57fc:	4650      	mov	r0, r10
    57fe:	f000 fe85 	bl	650c <__lshift>
    5802:	4629      	mov	r1, r5
    5804:	9004      	str	r0, [sp, #16]
    5806:	f000 fed2 	bl	65ae <__mcmp>
    580a:	2800      	cmp	r0, #0
    580c:	dc03      	bgt.n	5816 <_dtoa_r+0x9be>
    580e:	d107      	bne.n	5820 <_dtoa_r+0x9c8>
    5810:	f018 0f01 	tst.w	r8, #1
    5814:	d004      	beq.n	5820 <_dtoa_r+0x9c8>
    5816:	f1b8 0f39 	cmp.w	r8, #57	; 0x39
    581a:	d00a      	beq.n	5832 <_dtoa_r+0x9da>
    581c:	f104 0831 	add.w	r8, r4, #49	; 0x31
    5820:	1c7c      	adds	r4, r7, #1
    5822:	e00c      	b.n	583e <_dtoa_r+0x9e6>
    5824:	2b00      	cmp	r3, #0
    5826:	f107 0401 	add.w	r4, r7, #1
    582a:	dd0b      	ble.n	5844 <_dtoa_r+0x9ec>
    582c:	f1b8 0f39 	cmp.w	r8, #57	; 0x39
    5830:	d103      	bne.n	583a <_dtoa_r+0x9e2>
    5832:	2339      	movs	r3, #57	; 0x39
    5834:	703b      	strb	r3, [r7, #0]
    5836:	3701      	adds	r7, #1
    5838:	e056      	b.n	58e8 <_dtoa_r+0xa90>
    583a:	f108 0801 	add.w	r8, r8, #1
    583e:	f887 8000 	strb.w	r8, [r7]
    5842:	e06c      	b.n	591e <_dtoa_r+0xac6>
    5844:	9b06      	ldr	r3, [sp, #24]
    5846:	4627      	mov	r7, r4
    5848:	1ae3      	subs	r3, r4, r3
    584a:	454b      	cmp	r3, r9
    584c:	f804 8c01 	strb.w	r8, [r4, #-1]
    5850:	d03b      	beq.n	58ca <_dtoa_r+0xa72>
    5852:	2300      	movs	r3, #0
    5854:	220a      	movs	r2, #10
    5856:	9904      	ldr	r1, [sp, #16]
    5858:	4650      	mov	r0, r10
    585a:	f000 fca9 	bl	61b0 <__multadd>
    585e:	9b05      	ldr	r3, [sp, #20]
    5860:	9004      	str	r0, [sp, #16]
    5862:	429e      	cmp	r6, r3
    5864:	f04f 020a 	mov.w	r2, #10
    5868:	f04f 0300 	mov.w	r3, #0
    586c:	4631      	mov	r1, r6
    586e:	4650      	mov	r0, r10
    5870:	d104      	bne.n	587c <_dtoa_r+0xa24>
    5872:	f000 fc9d 	bl	61b0 <__multadd>
    5876:	4606      	mov	r6, r0
    5878:	9005      	str	r0, [sp, #20]
    587a:	e784      	b.n	5786 <_dtoa_r+0x92e>
    587c:	f000 fc98 	bl	61b0 <__multadd>
    5880:	2300      	movs	r3, #0
    5882:	4606      	mov	r6, r0
    5884:	220a      	movs	r2, #10
    5886:	9905      	ldr	r1, [sp, #20]
    5888:	4650      	mov	r0, r10
    588a:	f000 fc91 	bl	61b0 <__multadd>
    588e:	9005      	str	r0, [sp, #20]
    5890:	e779      	b.n	5786 <_dtoa_r+0x92e>
    5892:	2300      	movs	r3, #0
    5894:	220a      	movs	r2, #10
    5896:	9904      	ldr	r1, [sp, #16]
    5898:	4650      	mov	r0, r10
    589a:	f000 fc89 	bl	61b0 <__multadd>
    589e:	9004      	str	r0, [sp, #16]
    58a0:	4629      	mov	r1, r5
    58a2:	9804      	ldr	r0, [sp, #16]
    58a4:	f7ff fa4c 	bl	4d40 <quorem>
    58a8:	9b06      	ldr	r3, [sp, #24]
    58aa:	f100 0830 	add.w	r8, r0, #48	; 0x30
    58ae:	f804 8b01 	strb.w	r8, [r4], #1
    58b2:	1ae3      	subs	r3, r4, r3
    58b4:	454b      	cmp	r3, r9
    58b6:	dbec      	blt.n	5892 <_dtoa_r+0xa3a>
    58b8:	9b06      	ldr	r3, [sp, #24]
    58ba:	9605      	str	r6, [sp, #20]
    58bc:	f1b9 0f01 	cmp.w	r9, #1
    58c0:	bfac      	ite	ge
    58c2:	444b      	addge	r3, r9
    58c4:	3301      	addlt	r3, #1
    58c6:	461f      	mov	r7, r3
    58c8:	2600      	movs	r6, #0
    58ca:	2201      	movs	r2, #1
    58cc:	9904      	ldr	r1, [sp, #16]
    58ce:	4650      	mov	r0, r10
    58d0:	f000 fe1c 	bl	650c <__lshift>
    58d4:	4629      	mov	r1, r5
    58d6:	9004      	str	r0, [sp, #16]
    58d8:	f000 fe69 	bl	65ae <__mcmp>
    58dc:	2800      	cmp	r0, #0
    58de:	dc03      	bgt.n	58e8 <_dtoa_r+0xa90>
    58e0:	d115      	bne.n	590e <_dtoa_r+0xab6>
    58e2:	f018 0f01 	tst.w	r8, #1
    58e6:	d012      	beq.n	590e <_dtoa_r+0xab6>
    58e8:	463c      	mov	r4, r7
    58ea:	f814 3c01 	ldrb.w	r3, [r4, #-1]
    58ee:	1e62      	subs	r2, r4, #1
    58f0:	2b39      	cmp	r3, #57	; 0x39
    58f2:	d109      	bne.n	5908 <_dtoa_r+0xab0>
    58f4:	9b06      	ldr	r3, [sp, #24]
    58f6:	4293      	cmp	r3, r2
    58f8:	d104      	bne.n	5904 <_dtoa_r+0xaac>
    58fa:	f10b 0b01 	add.w	r11, r11, #1
    58fe:	2331      	movs	r3, #49	; 0x31
    5900:	9a06      	ldr	r2, [sp, #24]
    5902:	e002      	b.n	590a <_dtoa_r+0xab2>
    5904:	4614      	mov	r4, r2
    5906:	e7f0      	b.n	58ea <_dtoa_r+0xa92>
    5908:	3301      	adds	r3, #1
    590a:	7013      	strb	r3, [r2, #0]
    590c:	e007      	b.n	591e <_dtoa_r+0xac6>
    590e:	463c      	mov	r4, r7
    5910:	f814 3c01 	ldrb.w	r3, [r4, #-1]
    5914:	1e62      	subs	r2, r4, #1
    5916:	2b30      	cmp	r3, #48	; 0x30
    5918:	d101      	bne.n	591e <_dtoa_r+0xac6>
    591a:	4614      	mov	r4, r2
    591c:	e7f8      	b.n	5910 <_dtoa_r+0xab8>
    591e:	4629      	mov	r1, r5
    5920:	4650      	mov	r0, r10
    5922:	f000 fc2e 	bl	6182 <_Bfree>
    5926:	9b05      	ldr	r3, [sp, #20]
    5928:	b16b      	cbz	r3, 5946 <_dtoa_r+0xaee>
    592a:	b12e      	cbz	r6, 5938 <_dtoa_r+0xae0>
    592c:	429e      	cmp	r6, r3
    592e:	d003      	beq.n	5938 <_dtoa_r+0xae0>
    5930:	4631      	mov	r1, r6
    5932:	4650      	mov	r0, r10
    5934:	f000 fc25 	bl	6182 <_Bfree>
    5938:	9905      	ldr	r1, [sp, #20]
    593a:	4650      	mov	r0, r10
    593c:	f000 fc21 	bl	6182 <_Bfree>
    5940:	e001      	b.n	5946 <_dtoa_r+0xaee>
    5942:	f8dd b020 	ldr.w	r11, [sp, #32]
    5946:	9904      	ldr	r1, [sp, #16]
    5948:	4650      	mov	r0, r10
    594a:	f000 fc1a 	bl	6182 <_Bfree>
    594e:	2300      	movs	r3, #0
    5950:	9a20      	ldr	r2, [sp, #128]	; 0x80
    5952:	7023      	strb	r3, [r4, #0]
    5954:	f10b 0301 	add.w	r3, r11, #1
    5958:	6013      	str	r3, [r2, #0]
    595a:	9b22      	ldr	r3, [sp, #136]	; 0x88
    595c:	b11b      	cbz	r3, 5966 <_dtoa_r+0xb0e>
    595e:	601c      	str	r4, [r3, #0]
    5960:	e001      	b.n	5966 <_dtoa_r+0xb0e>
    5962:	4808      	ldr	r0, [pc, #32]	; (5984 <_dtoa_r+0xb2c>)
    5964:	e00a      	b.n	597c <_dtoa_r+0xb24>
    5966:	9806      	ldr	r0, [sp, #24]
    5968:	e008      	b.n	597c <_dtoa_r+0xb24>
    596a:	f1b9 0f00 	cmp.w	r9, #0
    596e:	f73f aee2 	bgt.w	5736 <_dtoa_r+0x8de>
    5972:	9b1e      	ldr	r3, [sp, #120]	; 0x78
    5974:	2b02      	cmp	r3, #2
    5976:	f77f aede 	ble.w	5736 <_dtoa_r+0x8de>
    597a:	e6b1      	b.n	56e0 <_dtoa_r+0x888>
    597c:	b015      	add	sp, #84	; 0x54
    597e:	e8bd 8ff0 	ldmia.w	sp!, {r4, r5, r6, r7, r8, r9, r10, r11, pc}
    5982:	bf00      	nop
    5984:	000085ba 	.word	0x000085ba

00005988 <__sflags>:
    5988:	780b      	ldrb	r3, [r1, #0]
    598a:	b530      	push	{r4, r5, lr}
    598c:	2b72      	cmp	r3, #114	; 0x72
    598e:	d00e      	beq.n	59ae <__sflags+0x26>
    5990:	2b77      	cmp	r3, #119	; 0x77
    5992:	d007      	beq.n	59a4 <__sflags+0x1c>
    5994:	2b61      	cmp	r3, #97	; 0x61
    5996:	d10e      	bne.n	59b6 <__sflags+0x2e>
    5998:	f44f 7402 	mov.w	r4, #520	; 0x208
    599c:	2301      	movs	r3, #1
    599e:	f44f 7084 	mov.w	r0, #264	; 0x108
    59a2:	e01a      	b.n	59da <__sflags+0x52>
    59a4:	f44f 64c0 	mov.w	r4, #1536	; 0x600
    59a8:	2301      	movs	r3, #1
    59aa:	2008      	movs	r0, #8
    59ac:	e015      	b.n	59da <__sflags+0x52>
    59ae:	2400      	movs	r4, #0
    59b0:	4623      	mov	r3, r4
    59b2:	2004      	movs	r0, #4
    59b4:	e011      	b.n	59da <__sflags+0x52>
    59b6:	2316      	movs	r3, #22
    59b8:	6003      	str	r3, [r0, #0]
    59ba:	2000      	movs	r0, #0
    59bc:	bd30      	pop	{r4, r5, pc}
    59be:	2d62      	cmp	r5, #98	; 0x62
    59c0:	d010      	beq.n	59e4 <__sflags+0x5c>
    59c2:	2d78      	cmp	r5, #120	; 0x78
    59c4:	d011      	beq.n	59ea <__sflags+0x62>
    59c6:	2d2b      	cmp	r5, #43	; 0x2b
    59c8:	d107      	bne.n	59da <__sflags+0x52>
    59ca:	f020 001c 	bic.w	r0, r0, #28
    59ce:	f023 0303 	bic.w	r3, r3, #3
    59d2:	f040 0010 	orr.w	r0, r0, #16
    59d6:	f043 0302 	orr.w	r3, r3, #2
    59da:	f811 5f01 	ldrb.w	r5, [r1, #1]!
    59de:	2d00      	cmp	r5, #0
    59e0:	d1ed      	bne.n	59be <__sflags+0x36>
    59e2:	e005      	b.n	59f0 <__sflags+0x68>
    59e4:	f443 3380 	orr.w	r3, r3, #65536	; 0x10000
    59e8:	e7f7      	b.n	59da <__sflags+0x52>
    59ea:	f443 6300 	orr.w	r3, r3, #2048	; 0x800
    59ee:	e7f4      	b.n	59da <__sflags+0x52>
    59f0:	4323      	orrs	r3, r4
    59f2:	6013      	str	r3, [r2, #0]
    59f4:	bd30      	pop	{r4, r5, pc}
	...

000059f8 <_fstat_r>:
    59f8:	b538      	push	{r3, r4, r5, lr}
    59fa:	4c07      	ldr	r4, [pc, #28]	; (5a18 <_fstat_r+0x20>)
    59fc:	2300      	movs	r3, #0
    59fe:	4605      	mov	r5, r0
    5a00:	4608      	mov	r0, r1
    5a02:	4611      	mov	r1, r2
    5a04:	6023      	str	r3, [r4, #0]
    5a06:	f7fa fef3 	bl	7f0 <_fstat>
    5a0a:	1c43      	adds	r3, r0, #1
    5a0c:	d102      	bne.n	5a14 <_fstat_r+0x1c>
    5a0e:	6823      	ldr	r3, [r4, #0]
    5a10:	b103      	cbz	r3, 5a14 <_fstat_r+0x1c>
    5a12:	602b      	str	r3, [r5, #0]
    5a14:	bd38      	pop	{r3, r4, r5, pc}
    5a16:	bf00      	nop
    5a18:	100004b0 	.word	0x100004b0

00005a1c <rshift>:
    5a1c:	b5f0      	push	{r4, r5, r6, r7, lr}
    5a1e:	6906      	ldr	r6, [r0, #16]
    5a20:	114b      	asrs	r3, r1, #5
    5a22:	42b3      	cmp	r3, r6
    5a24:	f100 0514 	add.w	r5, r0, #20
    5a28:	da27      	bge.n	5a7a <rshift+0x5e>
    5a2a:	f011 011f 	ands.w	r1, r1, #31
    5a2e:	eb05 0686 	add.w	r6, r5, r6, lsl #2
    5a32:	eb05 0283 	add.w	r2, r5, r3, lsl #2
    5a36:	d101      	bne.n	5a3c <rshift+0x20>
    5a38:	4629      	mov	r1, r5
    5a3a:	e016      	b.n	5a6a <rshift+0x4e>
    5a3c:	1d14      	adds	r4, r2, #4
    5a3e:	f855 2023 	ldr.w	r2, [r5, r3, lsl #2]
    5a42:	462b      	mov	r3, r5
    5a44:	f1c1 0e20 	rsb	lr, r1, #32
    5a48:	40ca      	lsrs	r2, r1
    5a4a:	42b4      	cmp	r4, r6
    5a4c:	d209      	bcs.n	5a62 <rshift+0x46>
    5a4e:	6827      	ldr	r7, [r4, #0]
    5a50:	fa07 f70e 	lsl.w	r7, r7, lr
    5a54:	433a      	orrs	r2, r7
    5a56:	f843 2b04 	str.w	r2, [r3], #4
    5a5a:	f854 2b04 	ldr.w	r2, [r4], #4
    5a5e:	40ca      	lsrs	r2, r1
    5a60:	e7f3      	b.n	5a4a <rshift+0x2e>
    5a62:	601a      	str	r2, [r3, #0]
    5a64:	b152      	cbz	r2, 5a7c <rshift+0x60>
    5a66:	3304      	adds	r3, #4
    5a68:	e008      	b.n	5a7c <rshift+0x60>
    5a6a:	42b2      	cmp	r2, r6
    5a6c:	460b      	mov	r3, r1
    5a6e:	d205      	bcs.n	5a7c <rshift+0x60>
    5a70:	f852 3b04 	ldr.w	r3, [r2], #4
    5a74:	f841 3b04 	str.w	r3, [r1], #4
    5a78:	e7f7      	b.n	5a6a <rshift+0x4e>
    5a7a:	462b      	mov	r3, r5
    5a7c:	1b5b      	subs	r3, r3, r5
    5a7e:	109b      	asrs	r3, r3, #2
    5a80:	6103      	str	r3, [r0, #16]
    5a82:	b903      	cbnz	r3, 5a86 <rshift+0x6a>
    5a84:	6143      	str	r3, [r0, #20]
    5a86:	bdf0      	pop	{r4, r5, r6, r7, pc}

00005a88 <__hexdig_fun>:
    5a88:	f1a0 0330 	sub.w	r3, r0, #48	; 0x30
    5a8c:	2b09      	cmp	r3, #9
    5a8e:	d801      	bhi.n	5a94 <__hexdig_fun+0xc>
    5a90:	3820      	subs	r0, #32
    5a92:	e00a      	b.n	5aaa <__hexdig_fun+0x22>
    5a94:	f1a0 0361 	sub.w	r3, r0, #97	; 0x61
    5a98:	2b05      	cmp	r3, #5
    5a9a:	d801      	bhi.n	5aa0 <__hexdig_fun+0x18>
    5a9c:	3847      	subs	r0, #71	; 0x47
    5a9e:	e004      	b.n	5aaa <__hexdig_fun+0x22>
    5aa0:	f1a0 0341 	sub.w	r3, r0, #65	; 0x41
    5aa4:	2b05      	cmp	r3, #5
    5aa6:	d802      	bhi.n	5aae <__hexdig_fun+0x26>
    5aa8:	3827      	subs	r0, #39	; 0x27
    5aaa:	b2c0      	uxtb	r0, r0
    5aac:	4770      	bx	lr
    5aae:	2000      	movs	r0, #0
    5ab0:	4770      	bx	lr

00005ab2 <__gethex>:
    5ab2:	e92d 4ff0 	stmdb	sp!, {r4, r5, r6, r7, r8, r9, r10, r11, lr}
    5ab6:	b08b      	sub	sp, #44	; 0x2c
    5ab8:	9002      	str	r0, [sp, #8]
    5aba:	9816      	ldr	r0, [sp, #88]	; 0x58
    5abc:	468a      	mov	r10, r1
    5abe:	4690      	mov	r8, r2
    5ac0:	9306      	str	r3, [sp, #24]
    5ac2:	f000 faf3 	bl	60ac <__localeconv_l>
    5ac6:	6803      	ldr	r3, [r0, #0]
    5ac8:	f04f 0b00 	mov.w	r11, #0
    5acc:	4618      	mov	r0, r3
    5ace:	9303      	str	r3, [sp, #12]
    5ad0:	f7fe f8a7 	bl	3c22 <strlen>
    5ad4:	9b03      	ldr	r3, [sp, #12]
    5ad6:	9001      	str	r0, [sp, #4]
    5ad8:	4403      	add	r3, r0
    5ada:	f813 3c01 	ldrb.w	r3, [r3, #-1]
    5ade:	9307      	str	r3, [sp, #28]
    5ae0:	f8da 3000 	ldr.w	r3, [r10]
    5ae4:	3302      	adds	r3, #2
    5ae6:	461f      	mov	r7, r3
    5ae8:	f813 0b01 	ldrb.w	r0, [r3], #1
    5aec:	2830      	cmp	r0, #48	; 0x30
    5aee:	d102      	bne.n	5af6 <__gethex+0x44>
    5af0:	f10b 0b01 	add.w	r11, r11, #1
    5af4:	e7f7      	b.n	5ae6 <__gethex+0x34>
    5af6:	f7ff ffc7 	bl	5a88 <__hexdig_fun>
    5afa:	4604      	mov	r4, r0
    5afc:	b9e0      	cbnz	r0, 5b38 <__gethex+0x86>
    5afe:	9a01      	ldr	r2, [sp, #4]
    5b00:	9903      	ldr	r1, [sp, #12]
    5b02:	4638      	mov	r0, r7
    5b04:	f7fe f895 	bl	3c32 <strncmp>
    5b08:	2800      	cmp	r0, #0
    5b0a:	d134      	bne.n	5b76 <__gethex+0xc4>
    5b0c:	9b01      	ldr	r3, [sp, #4]
    5b0e:	5cf8      	ldrb	r0, [r7, r3]
    5b10:	18fe      	adds	r6, r7, r3
    5b12:	f7ff ffb9 	bl	5a88 <__hexdig_fun>
    5b16:	b380      	cbz	r0, 5b7a <__gethex+0xc8>
    5b18:	4633      	mov	r3, r6
    5b1a:	7818      	ldrb	r0, [r3, #0]
    5b1c:	461f      	mov	r7, r3
    5b1e:	2830      	cmp	r0, #48	; 0x30
    5b20:	f103 0301 	add.w	r3, r3, #1
    5b24:	d0f9      	beq.n	5b1a <__gethex+0x68>
    5b26:	f7ff ffaf 	bl	5a88 <__hexdig_fun>
    5b2a:	fab0 f580 	clz	r5, r0
    5b2e:	4634      	mov	r4, r6
    5b30:	096d      	lsrs	r5, r5, #5
    5b32:	f04f 0b01 	mov.w	r11, #1
    5b36:	e001      	b.n	5b3c <__gethex+0x8a>
    5b38:	2500      	movs	r5, #0
    5b3a:	462c      	mov	r4, r5
    5b3c:	463a      	mov	r2, r7
    5b3e:	4616      	mov	r6, r2
    5b40:	7830      	ldrb	r0, [r6, #0]
    5b42:	3201      	adds	r2, #1
    5b44:	f7ff ffa0 	bl	5a88 <__hexdig_fun>
    5b48:	2800      	cmp	r0, #0
    5b4a:	d1f8      	bne.n	5b3e <__gethex+0x8c>
    5b4c:	9a01      	ldr	r2, [sp, #4]
    5b4e:	9903      	ldr	r1, [sp, #12]
    5b50:	4630      	mov	r0, r6
    5b52:	f7fe f86e 	bl	3c32 <strncmp>
    5b56:	b950      	cbnz	r0, 5b6e <__gethex+0xbc>
    5b58:	b954      	cbnz	r4, 5b70 <__gethex+0xbe>
    5b5a:	9b01      	ldr	r3, [sp, #4]
    5b5c:	18f4      	adds	r4, r6, r3
    5b5e:	4622      	mov	r2, r4
    5b60:	4616      	mov	r6, r2
    5b62:	7830      	ldrb	r0, [r6, #0]
    5b64:	3201      	adds	r2, #1
    5b66:	f7ff ff8f 	bl	5a88 <__hexdig_fun>
    5b6a:	2800      	cmp	r0, #0
    5b6c:	d1f8      	bne.n	5b60 <__gethex+0xae>
    5b6e:	b134      	cbz	r4, 5b7e <__gethex+0xcc>
    5b70:	1ba4      	subs	r4, r4, r6
    5b72:	00a4      	lsls	r4, r4, #2
    5b74:	e003      	b.n	5b7e <__gethex+0xcc>
    5b76:	463e      	mov	r6, r7
    5b78:	e000      	b.n	5b7c <__gethex+0xca>
    5b7a:	4604      	mov	r4, r0
    5b7c:	2501      	movs	r5, #1
    5b7e:	7833      	ldrb	r3, [r6, #0]
    5b80:	2b50      	cmp	r3, #80	; 0x50
    5b82:	d001      	beq.n	5b88 <__gethex+0xd6>
    5b84:	2b70      	cmp	r3, #112	; 0x70
    5b86:	d12a      	bne.n	5bde <__gethex+0x12c>
    5b88:	7873      	ldrb	r3, [r6, #1]
    5b8a:	2b2b      	cmp	r3, #43	; 0x2b
    5b8c:	d008      	beq.n	5ba0 <__gethex+0xee>
    5b8e:	2b2d      	cmp	r3, #45	; 0x2d
    5b90:	d003      	beq.n	5b9a <__gethex+0xe8>
    5b92:	1c71      	adds	r1, r6, #1
    5b94:	f04f 0900 	mov.w	r9, #0
    5b98:	e005      	b.n	5ba6 <__gethex+0xf4>
    5b9a:	f04f 0901 	mov.w	r9, #1
    5b9e:	e001      	b.n	5ba4 <__gethex+0xf2>
    5ba0:	f04f 0900 	mov.w	r9, #0
    5ba4:	1cb1      	adds	r1, r6, #2
    5ba6:	7808      	ldrb	r0, [r1, #0]
    5ba8:	f7ff ff6e 	bl	5a88 <__hexdig_fun>
    5bac:	1e43      	subs	r3, r0, #1
    5bae:	b2db      	uxtb	r3, r3
    5bb0:	2b18      	cmp	r3, #24
    5bb2:	d814      	bhi.n	5bde <__gethex+0x12c>
    5bb4:	f1a0 0210 	sub.w	r2, r0, #16
    5bb8:	f811 0f01 	ldrb.w	r0, [r1, #1]!
    5bbc:	f7ff ff64 	bl	5a88 <__hexdig_fun>
    5bc0:	1e43      	subs	r3, r0, #1
    5bc2:	b2db      	uxtb	r3, r3
    5bc4:	2b18      	cmp	r3, #24
    5bc6:	d804      	bhi.n	5bd2 <__gethex+0x120>
    5bc8:	230a      	movs	r3, #10
    5bca:	fb03 0202 	mla	r2, r3, r2, r0
    5bce:	3a10      	subs	r2, #16
    5bd0:	e7f2      	b.n	5bb8 <__gethex+0x106>
    5bd2:	f1b9 0f00 	cmp.w	r9, #0
    5bd6:	d000      	beq.n	5bda <__gethex+0x128>
    5bd8:	4252      	negs	r2, r2
    5bda:	4414      	add	r4, r2
    5bdc:	e000      	b.n	5be0 <__gethex+0x12e>
    5bde:	4631      	mov	r1, r6
    5be0:	f8ca 1000 	str.w	r1, [r10]
    5be4:	b12d      	cbz	r5, 5bf2 <__gethex+0x140>
    5be6:	f1bb 0f00 	cmp.w	r11, #0
    5bea:	bf14      	ite	ne
    5bec:	2000      	movne	r0, #0
    5bee:	2006      	moveq	r0, #6
    5bf0:	e17c      	b.n	5eec <__gethex+0x43a>
    5bf2:	4629      	mov	r1, r5
    5bf4:	1bf3      	subs	r3, r6, r7
    5bf6:	3b01      	subs	r3, #1
    5bf8:	2b07      	cmp	r3, #7
    5bfa:	dd02      	ble.n	5c02 <__gethex+0x150>
    5bfc:	3101      	adds	r1, #1
    5bfe:	105b      	asrs	r3, r3, #1
    5c00:	e7fa      	b.n	5bf8 <__gethex+0x146>
    5c02:	9802      	ldr	r0, [sp, #8]
    5c04:	f000 fa88 	bl	6118 <_Balloc>
    5c08:	f04f 0900 	mov.w	r9, #0
    5c0c:	4605      	mov	r5, r0
    5c0e:	46cb      	mov	r11, r9
    5c10:	9b01      	ldr	r3, [sp, #4]
    5c12:	f100 0a14 	add.w	r10, r0, #20
    5c16:	f1c3 0301 	rsb	r3, r3, #1
    5c1a:	f8cd a010 	str.w	r10, [sp, #16]
    5c1e:	9308      	str	r3, [sp, #32]
    5c20:	42b7      	cmp	r7, r6
    5c22:	d22f      	bcs.n	5c84 <__gethex+0x1d2>
    5c24:	1e73      	subs	r3, r6, #1
    5c26:	9305      	str	r3, [sp, #20]
    5c28:	9a07      	ldr	r2, [sp, #28]
    5c2a:	f816 3c01 	ldrb.w	r3, [r6, #-1]
    5c2e:	4293      	cmp	r3, r2
    5c30:	d00b      	beq.n	5c4a <__gethex+0x198>
    5c32:	f1bb 0f20 	cmp.w	r11, #32
    5c36:	d116      	bne.n	5c66 <__gethex+0x1b4>
    5c38:	9b04      	ldr	r3, [sp, #16]
    5c3a:	f8c3 9000 	str.w	r9, [r3]
    5c3e:	3304      	adds	r3, #4
    5c40:	f04f 0900 	mov.w	r9, #0
    5c44:	9304      	str	r3, [sp, #16]
    5c46:	46cb      	mov	r11, r9
    5c48:	e00d      	b.n	5c66 <__gethex+0x1b4>
    5c4a:	9b05      	ldr	r3, [sp, #20]
    5c4c:	9a08      	ldr	r2, [sp, #32]
    5c4e:	4413      	add	r3, r2
    5c50:	429f      	cmp	r7, r3
    5c52:	d8ee      	bhi.n	5c32 <__gethex+0x180>
    5c54:	4618      	mov	r0, r3
    5c56:	9a01      	ldr	r2, [sp, #4]
    5c58:	9903      	ldr	r1, [sp, #12]
    5c5a:	9309      	str	r3, [sp, #36]	; 0x24
    5c5c:	f7fd ffe9 	bl	3c32 <strncmp>
    5c60:	9b09      	ldr	r3, [sp, #36]	; 0x24
    5c62:	b168      	cbz	r0, 5c80 <__gethex+0x1ce>
    5c64:	e7e5      	b.n	5c32 <__gethex+0x180>
    5c66:	f816 0c01 	ldrb.w	r0, [r6, #-1]
    5c6a:	f7ff ff0d 	bl	5a88 <__hexdig_fun>
    5c6e:	f000 000f 	and.w	r0, r0, #15
    5c72:	fa00 f00b 	lsl.w	r0, r0, r11
    5c76:	9b05      	ldr	r3, [sp, #20]
    5c78:	ea49 0900 	orr.w	r9, r9, r0
    5c7c:	f10b 0b04 	add.w	r11, r11, #4
    5c80:	461e      	mov	r6, r3
    5c82:	e7cd      	b.n	5c20 <__gethex+0x16e>
    5c84:	9804      	ldr	r0, [sp, #16]
    5c86:	f840 9b04 	str.w	r9, [r0], #4
    5c8a:	ebca 0000 	rsb	r0, r10, r0
    5c8e:	1080      	asrs	r0, r0, #2
    5c90:	6128      	str	r0, [r5, #16]
    5c92:	0147      	lsls	r7, r0, #5
    5c94:	4648      	mov	r0, r9
    5c96:	f000 fb04 	bl	62a2 <__hi0bits>
    5c9a:	f8d8 6000 	ldr.w	r6, [r8]
    5c9e:	1a38      	subs	r0, r7, r0
    5ca0:	42b0      	cmp	r0, r6
    5ca2:	dd26      	ble.n	5cf2 <__gethex+0x240>
    5ca4:	1b87      	subs	r7, r0, r6
    5ca6:	4639      	mov	r1, r7
    5ca8:	4628      	mov	r0, r5
    5caa:	f000 fdfc 	bl	68a6 <__any_on>
    5cae:	b1c8      	cbz	r0, 5ce4 <__gethex+0x232>
    5cb0:	1e7b      	subs	r3, r7, #1
    5cb2:	1159      	asrs	r1, r3, #5
    5cb4:	f003 021f 	and.w	r2, r3, #31
    5cb8:	f04f 0901 	mov.w	r9, #1
    5cbc:	f85a 1021 	ldr.w	r1, [r10, r1, lsl #2]
    5cc0:	fa09 f202 	lsl.w	r2, r9, r2
    5cc4:	420a      	tst	r2, r1
    5cc6:	d00e      	beq.n	5ce6 <__gethex+0x234>
    5cc8:	454b      	cmp	r3, r9
    5cca:	dc02      	bgt.n	5cd2 <__gethex+0x220>
    5ccc:	f04f 0902 	mov.w	r9, #2
    5cd0:	e009      	b.n	5ce6 <__gethex+0x234>
    5cd2:	1eb9      	subs	r1, r7, #2
    5cd4:	4628      	mov	r0, r5
    5cd6:	f000 fde6 	bl	68a6 <__any_on>
    5cda:	2800      	cmp	r0, #0
    5cdc:	d0f6      	beq.n	5ccc <__gethex+0x21a>
    5cde:	f04f 0903 	mov.w	r9, #3
    5ce2:	e000      	b.n	5ce6 <__gethex+0x234>
    5ce4:	4681      	mov	r9, r0
    5ce6:	4639      	mov	r1, r7
    5ce8:	4628      	mov	r0, r5
    5cea:	f7ff fe97 	bl	5a1c <rshift>
    5cee:	443c      	add	r4, r7
    5cf0:	e00c      	b.n	5d0c <__gethex+0x25a>
    5cf2:	da09      	bge.n	5d08 <__gethex+0x256>
    5cf4:	1a37      	subs	r7, r6, r0
    5cf6:	4629      	mov	r1, r5
    5cf8:	463a      	mov	r2, r7
    5cfa:	9802      	ldr	r0, [sp, #8]
    5cfc:	f000 fc06 	bl	650c <__lshift>
    5d00:	4605      	mov	r5, r0
    5d02:	1be4      	subs	r4, r4, r7
    5d04:	f100 0a14 	add.w	r10, r0, #20
    5d08:	f04f 0900 	mov.w	r9, #0
    5d0c:	f8d8 3008 	ldr.w	r3, [r8, #8]
    5d10:	429c      	cmp	r4, r3
    5d12:	dd08      	ble.n	5d26 <__gethex+0x274>
    5d14:	9802      	ldr	r0, [sp, #8]
    5d16:	4629      	mov	r1, r5
    5d18:	f000 fa33 	bl	6182 <_Bfree>
    5d1c:	9a14      	ldr	r2, [sp, #80]	; 0x50
    5d1e:	2300      	movs	r3, #0
    5d20:	6013      	str	r3, [r2, #0]
    5d22:	20a3      	movs	r0, #163	; 0xa3
    5d24:	e0e2      	b.n	5eec <__gethex+0x43a>
    5d26:	f8d8 0004 	ldr.w	r0, [r8, #4]
    5d2a:	4284      	cmp	r4, r0
    5d2c:	da53      	bge.n	5dd6 <__gethex+0x324>
    5d2e:	1b04      	subs	r4, r0, r4
    5d30:	42a6      	cmp	r6, r4
    5d32:	dc2e      	bgt.n	5d92 <__gethex+0x2e0>
    5d34:	f8d8 300c 	ldr.w	r3, [r8, #12]
    5d38:	2b02      	cmp	r3, #2
    5d3a:	d01a      	beq.n	5d72 <__gethex+0x2c0>
    5d3c:	2b03      	cmp	r3, #3
    5d3e:	d01c      	beq.n	5d7a <__gethex+0x2c8>
    5d40:	2b01      	cmp	r3, #1
    5d42:	d11d      	bne.n	5d80 <__gethex+0x2ce>
    5d44:	42a6      	cmp	r6, r4
    5d46:	d11b      	bne.n	5d80 <__gethex+0x2ce>
    5d48:	2e01      	cmp	r6, #1
    5d4a:	dc0b      	bgt.n	5d64 <__gethex+0x2b2>
    5d4c:	f8d8 3004 	ldr.w	r3, [r8, #4]
    5d50:	9a06      	ldr	r2, [sp, #24]
    5d52:	2062      	movs	r0, #98	; 0x62
    5d54:	6013      	str	r3, [r2, #0]
    5d56:	2301      	movs	r3, #1
    5d58:	612b      	str	r3, [r5, #16]
    5d5a:	f8ca 3000 	str.w	r3, [r10]
    5d5e:	9b14      	ldr	r3, [sp, #80]	; 0x50
    5d60:	601d      	str	r5, [r3, #0]
    5d62:	e0c3      	b.n	5eec <__gethex+0x43a>
    5d64:	1e71      	subs	r1, r6, #1
    5d66:	4628      	mov	r0, r5
    5d68:	f000 fd9d 	bl	68a6 <__any_on>
    5d6c:	2800      	cmp	r0, #0
    5d6e:	d1ed      	bne.n	5d4c <__gethex+0x29a>
    5d70:	e006      	b.n	5d80 <__gethex+0x2ce>
    5d72:	9b15      	ldr	r3, [sp, #84]	; 0x54
    5d74:	2b00      	cmp	r3, #0
    5d76:	d0e9      	beq.n	5d4c <__gethex+0x29a>
    5d78:	e002      	b.n	5d80 <__gethex+0x2ce>
    5d7a:	9b15      	ldr	r3, [sp, #84]	; 0x54
    5d7c:	2b00      	cmp	r3, #0
    5d7e:	d1e5      	bne.n	5d4c <__gethex+0x29a>
    5d80:	9802      	ldr	r0, [sp, #8]
    5d82:	4629      	mov	r1, r5
    5d84:	f000 f9fd 	bl	6182 <_Bfree>
    5d88:	9a14      	ldr	r2, [sp, #80]	; 0x50
    5d8a:	2300      	movs	r3, #0
    5d8c:	6013      	str	r3, [r2, #0]
    5d8e:	2050      	movs	r0, #80	; 0x50
    5d90:	e0ac      	b.n	5eec <__gethex+0x43a>
    5d92:	1e67      	subs	r7, r4, #1
    5d94:	f1b9 0f00 	cmp.w	r9, #0
    5d98:	d106      	bne.n	5da8 <__gethex+0x2f6>
    5d9a:	b13f      	cbz	r7, 5dac <__gethex+0x2fa>
    5d9c:	4639      	mov	r1, r7
    5d9e:	4628      	mov	r0, r5
    5da0:	f000 fd81 	bl	68a6 <__any_on>
    5da4:	4681      	mov	r9, r0
    5da6:	e001      	b.n	5dac <__gethex+0x2fa>
    5da8:	f04f 0901 	mov.w	r9, #1
    5dac:	117a      	asrs	r2, r7, #5
    5dae:	2301      	movs	r3, #1
    5db0:	f007 071f 	and.w	r7, r7, #31
    5db4:	fa03 f707 	lsl.w	r7, r3, r7
    5db8:	f85a 3022 	ldr.w	r3, [r10, r2, lsl #2]
    5dbc:	4621      	mov	r1, r4
    5dbe:	421f      	tst	r7, r3
    5dc0:	4628      	mov	r0, r5
    5dc2:	bf18      	it	ne
    5dc4:	f049 0902 	orrne.w	r9, r9, #2
    5dc8:	1b36      	subs	r6, r6, r4
    5dca:	f7ff fe27 	bl	5a1c <rshift>
    5dce:	2702      	movs	r7, #2
    5dd0:	f8d8 4004 	ldr.w	r4, [r8, #4]
    5dd4:	e000      	b.n	5dd8 <__gethex+0x326>
    5dd6:	2701      	movs	r7, #1
    5dd8:	f1b9 0f00 	cmp.w	r9, #0
    5ddc:	f000 8081 	beq.w	5ee2 <__gethex+0x430>
    5de0:	f8d8 300c 	ldr.w	r3, [r8, #12]
    5de4:	2b02      	cmp	r3, #2
    5de6:	d00e      	beq.n	5e06 <__gethex+0x354>
    5de8:	2b03      	cmp	r3, #3
    5dea:	d010      	beq.n	5e0e <__gethex+0x35c>
    5dec:	2b01      	cmp	r3, #1
    5dee:	d176      	bne.n	5ede <__gethex+0x42c>
    5df0:	f019 0f02 	tst.w	r9, #2
    5df4:	d073      	beq.n	5ede <__gethex+0x42c>
    5df6:	f8da 0000 	ldr.w	r0, [r10]
    5dfa:	ea49 0900 	orr.w	r9, r9, r0
    5dfe:	f019 0f01 	tst.w	r9, #1
    5e02:	d107      	bne.n	5e14 <__gethex+0x362>
    5e04:	e06b      	b.n	5ede <__gethex+0x42c>
    5e06:	9b15      	ldr	r3, [sp, #84]	; 0x54
    5e08:	f1c3 0301 	rsb	r3, r3, #1
    5e0c:	9315      	str	r3, [sp, #84]	; 0x54
    5e0e:	9b15      	ldr	r3, [sp, #84]	; 0x54
    5e10:	2b00      	cmp	r3, #0
    5e12:	d064      	beq.n	5ede <__gethex+0x42c>
    5e14:	f8d5 a010 	ldr.w	r10, [r5, #16]
    5e18:	f105 0314 	add.w	r3, r5, #20
    5e1c:	ea4f 098a 	mov.w	r9, r10, lsl #2
    5e20:	eb03 0109 	add.w	r1, r3, r9
    5e24:	2000      	movs	r0, #0
    5e26:	681a      	ldr	r2, [r3, #0]
    5e28:	f1b2 3fff 	cmp.w	r2, #4294967295
    5e2c:	d002      	beq.n	5e34 <__gethex+0x382>
    5e2e:	3201      	adds	r2, #1
    5e30:	601a      	str	r2, [r3, #0]
    5e32:	e020      	b.n	5e76 <__gethex+0x3c4>
    5e34:	f843 0b04 	str.w	r0, [r3], #4
    5e38:	4299      	cmp	r1, r3
    5e3a:	d8f4      	bhi.n	5e26 <__gethex+0x374>
    5e3c:	68ab      	ldr	r3, [r5, #8]
    5e3e:	459a      	cmp	r10, r3
    5e40:	db12      	blt.n	5e68 <__gethex+0x3b6>
    5e42:	6869      	ldr	r1, [r5, #4]
    5e44:	9802      	ldr	r0, [sp, #8]
    5e46:	3101      	adds	r1, #1
    5e48:	f000 f966 	bl	6118 <_Balloc>
    5e4c:	4683      	mov	r11, r0
    5e4e:	692a      	ldr	r2, [r5, #16]
    5e50:	f105 010c 	add.w	r1, r5, #12
    5e54:	3202      	adds	r2, #2
    5e56:	0092      	lsls	r2, r2, #2
    5e58:	300c      	adds	r0, #12
    5e5a:	f7fc fb33 	bl	24c4 <memcpy>
    5e5e:	4629      	mov	r1, r5
    5e60:	9802      	ldr	r0, [sp, #8]
    5e62:	f000 f98e 	bl	6182 <_Bfree>
    5e66:	465d      	mov	r5, r11
    5e68:	692b      	ldr	r3, [r5, #16]
    5e6a:	1c5a      	adds	r2, r3, #1
    5e6c:	612a      	str	r2, [r5, #16]
    5e6e:	eb05 0383 	add.w	r3, r5, r3, lsl #2
    5e72:	2201      	movs	r2, #1
    5e74:	615a      	str	r2, [r3, #20]
    5e76:	2f02      	cmp	r7, #2
    5e78:	f105 0214 	add.w	r2, r5, #20
    5e7c:	d111      	bne.n	5ea2 <__gethex+0x3f0>
    5e7e:	f8d8 3000 	ldr.w	r3, [r8]
    5e82:	3b01      	subs	r3, #1
    5e84:	429e      	cmp	r6, r3
    5e86:	d127      	bne.n	5ed8 <__gethex+0x426>
    5e88:	1171      	asrs	r1, r6, #5
    5e8a:	2301      	movs	r3, #1
    5e8c:	f006 061f 	and.w	r6, r6, #31
    5e90:	fa03 f606 	lsl.w	r6, r3, r6
    5e94:	f852 3021 	ldr.w	r3, [r2, r1, lsl #2]
    5e98:	421e      	tst	r6, r3
    5e9a:	bf0c      	ite	eq
    5e9c:	2702      	moveq	r7, #2
    5e9e:	2701      	movne	r7, #1
    5ea0:	e01a      	b.n	5ed8 <__gethex+0x426>
    5ea2:	692b      	ldr	r3, [r5, #16]
    5ea4:	459a      	cmp	r10, r3
    5ea6:	da0a      	bge.n	5ebe <__gethex+0x40c>
    5ea8:	2101      	movs	r1, #1
    5eaa:	4628      	mov	r0, r5
    5eac:	f7ff fdb6 	bl	5a1c <rshift>
    5eb0:	f8d8 3008 	ldr.w	r3, [r8, #8]
    5eb4:	3401      	adds	r4, #1
    5eb6:	429c      	cmp	r4, r3
    5eb8:	f73f af2c 	bgt.w	5d14 <__gethex+0x262>
    5ebc:	e00b      	b.n	5ed6 <__gethex+0x424>
    5ebe:	f016 061f 	ands.w	r6, r6, #31
    5ec2:	d008      	beq.n	5ed6 <__gethex+0x424>
    5ec4:	4491      	add	r9, r2
    5ec6:	f859 0c04 	ldr.w	r0, [r9, #-4]
    5eca:	f000 f9ea 	bl	62a2 <__hi0bits>
    5ece:	f1c6 0620 	rsb	r6, r6, #32
    5ed2:	42b0      	cmp	r0, r6
    5ed4:	dbe8      	blt.n	5ea8 <__gethex+0x3f6>
    5ed6:	2701      	movs	r7, #1
    5ed8:	f047 0720 	orr.w	r7, r7, #32
    5edc:	e001      	b.n	5ee2 <__gethex+0x430>
    5ede:	f047 0710 	orr.w	r7, r7, #16
    5ee2:	4638      	mov	r0, r7
    5ee4:	9b14      	ldr	r3, [sp, #80]	; 0x50
    5ee6:	601d      	str	r5, [r3, #0]
    5ee8:	9b06      	ldr	r3, [sp, #24]
    5eea:	601c      	str	r4, [r3, #0]
    5eec:	b00b      	add	sp, #44	; 0x2c
    5eee:	e8bd 8ff0 	ldmia.w	sp!, {r4, r5, r6, r7, r8, r9, r10, r11, pc}

00005ef2 <L_shift>:
    5ef2:	f1c2 0208 	rsb	r2, r2, #8
    5ef6:	0092      	lsls	r2, r2, #2
    5ef8:	b570      	push	{r4, r5, r6, lr}
    5efa:	f1c2 0620 	rsb	r6, r2, #32
    5efe:	6843      	ldr	r3, [r0, #4]
    5f00:	6805      	ldr	r5, [r0, #0]
    5f02:	fa03 f406 	lsl.w	r4, r3, r6
    5f06:	432c      	orrs	r4, r5
    5f08:	40d3      	lsrs	r3, r2
    5f0a:	6004      	str	r4, [r0, #0]
    5f0c:	f840 3f04 	str.w	r3, [r0, #4]!
    5f10:	4288      	cmp	r0, r1
    5f12:	d3f4      	bcc.n	5efe <L_shift+0xc>
    5f14:	bd70      	pop	{r4, r5, r6, pc}

00005f16 <__match>:
    5f16:	b530      	push	{r4, r5, lr}
    5f18:	6803      	ldr	r3, [r0, #0]
    5f1a:	f811 4b01 	ldrb.w	r4, [r1], #1
    5f1e:	3301      	adds	r3, #1
    5f20:	b14c      	cbz	r4, 5f36 <__match+0x20>
    5f22:	781a      	ldrb	r2, [r3, #0]
    5f24:	f1a2 0541 	sub.w	r5, r2, #65	; 0x41
    5f28:	2d19      	cmp	r5, #25
    5f2a:	bf98      	it	ls
    5f2c:	3220      	addls	r2, #32
    5f2e:	42a2      	cmp	r2, r4
    5f30:	d0f3      	beq.n	5f1a <__match+0x4>
    5f32:	2000      	movs	r0, #0
    5f34:	bd30      	pop	{r4, r5, pc}
    5f36:	6003      	str	r3, [r0, #0]
    5f38:	2001      	movs	r0, #1
    5f3a:	bd30      	pop	{r4, r5, pc}

00005f3c <__hexnan>:
    5f3c:	680b      	ldr	r3, [r1, #0]
    5f3e:	e92d 4ff0 	stmdb	sp!, {r4, r5, r6, r7, r8, r9, r10, r11, lr}
    5f42:	115e      	asrs	r6, r3, #5
    5f44:	eb02 0686 	add.w	r6, r2, r6, lsl #2
    5f48:	f013 031f 	ands.w	r3, r3, #31
    5f4c:	bf18      	it	ne
    5f4e:	3604      	addne	r6, #4
    5f50:	1f35      	subs	r5, r6, #4
    5f52:	4617      	mov	r7, r2
    5f54:	2200      	movs	r2, #0
    5f56:	4682      	mov	r10, r0
    5f58:	46a8      	mov	r8, r5
    5f5a:	462c      	mov	r4, r5
    5f5c:	4691      	mov	r9, r2
    5f5e:	b085      	sub	sp, #20
    5f60:	f8d0 b000 	ldr.w	r11, [r0]
    5f64:	9301      	str	r3, [sp, #4]
    5f66:	f846 2c04 	str.w	r2, [r6, #-4]
    5f6a:	9200      	str	r2, [sp, #0]
    5f6c:	f81b 1f01 	ldrb.w	r1, [r11, #1]!
    5f70:	2900      	cmp	r1, #0
    5f72:	d03c      	beq.n	5fee <__hexnan+0xb2>
    5f74:	4608      	mov	r0, r1
    5f76:	9203      	str	r2, [sp, #12]
    5f78:	9102      	str	r1, [sp, #8]
    5f7a:	f7ff fd85 	bl	5a88 <__hexdig_fun>
    5f7e:	9a03      	ldr	r2, [sp, #12]
    5f80:	bb00      	cbnz	r0, 5fc4 <__hexnan+0x88>
    5f82:	9902      	ldr	r1, [sp, #8]
    5f84:	2920      	cmp	r1, #32
    5f86:	d816      	bhi.n	5fb6 <__hexnan+0x7a>
    5f88:	9b00      	ldr	r3, [sp, #0]
    5f8a:	4599      	cmp	r9, r3
    5f8c:	ddee      	ble.n	5f6c <__hexnan+0x30>
    5f8e:	4544      	cmp	r4, r8
    5f90:	d205      	bcs.n	5f9e <__hexnan+0x62>
    5f92:	2a07      	cmp	r2, #7
    5f94:	dc03      	bgt.n	5f9e <__hexnan+0x62>
    5f96:	4641      	mov	r1, r8
    5f98:	4620      	mov	r0, r4
    5f9a:	f7ff ffaa 	bl	5ef2 <L_shift>
    5f9e:	42bc      	cmp	r4, r7
    5fa0:	d923      	bls.n	5fea <__hexnan+0xae>
    5fa2:	2300      	movs	r3, #0
    5fa4:	f1a4 0804 	sub.w	r8, r4, #4
    5fa8:	f844 3c04 	str.w	r3, [r4, #-4]
    5fac:	f8cd 9000 	str.w	r9, [sp]
    5fb0:	4644      	mov	r4, r8
    5fb2:	461a      	mov	r2, r3
    5fb4:	e7da      	b.n	5f6c <__hexnan+0x30>
    5fb6:	2929      	cmp	r1, #41	; 0x29
    5fb8:	d148      	bne.n	604c <__hexnan+0x110>
    5fba:	f10b 0301 	add.w	r3, r11, #1
    5fbe:	f8ca 3000 	str.w	r3, [r10]
    5fc2:	e014      	b.n	5fee <__hexnan+0xb2>
    5fc4:	3201      	adds	r2, #1
    5fc6:	2a08      	cmp	r2, #8
    5fc8:	f109 0901 	add.w	r9, r9, #1
    5fcc:	dd06      	ble.n	5fdc <__hexnan+0xa0>
    5fce:	42bc      	cmp	r4, r7
    5fd0:	d9cc      	bls.n	5f6c <__hexnan+0x30>
    5fd2:	2300      	movs	r3, #0
    5fd4:	f844 3c04 	str.w	r3, [r4, #-4]
    5fd8:	2201      	movs	r2, #1
    5fda:	3c04      	subs	r4, #4
    5fdc:	6821      	ldr	r1, [r4, #0]
    5fde:	f000 000f 	and.w	r0, r0, #15
    5fe2:	ea40 1001 	orr.w	r0, r0, r1, lsl #4
    5fe6:	6020      	str	r0, [r4, #0]
    5fe8:	e7c0      	b.n	5f6c <__hexnan+0x30>
    5fea:	2208      	movs	r2, #8
    5fec:	e7be      	b.n	5f6c <__hexnan+0x30>
    5fee:	f1b9 0f00 	cmp.w	r9, #0
    5ff2:	d02b      	beq.n	604c <__hexnan+0x110>
    5ff4:	4544      	cmp	r4, r8
    5ff6:	d205      	bcs.n	6004 <__hexnan+0xc8>
    5ff8:	2a07      	cmp	r2, #7
    5ffa:	dc03      	bgt.n	6004 <__hexnan+0xc8>
    5ffc:	4641      	mov	r1, r8
    5ffe:	4620      	mov	r0, r4
    6000:	f7ff ff77 	bl	5ef2 <L_shift>
    6004:	42bc      	cmp	r4, r7
    6006:	d90c      	bls.n	6022 <__hexnan+0xe6>
    6008:	463b      	mov	r3, r7
    600a:	f854 2b04 	ldr.w	r2, [r4], #4
    600e:	42a5      	cmp	r5, r4
    6010:	f843 2b04 	str.w	r2, [r3], #4
    6014:	d2f9      	bcs.n	600a <__hexnan+0xce>
    6016:	2200      	movs	r2, #0
    6018:	f843 2b04 	str.w	r2, [r3], #4
    601c:	429d      	cmp	r5, r3
    601e:	d2fb      	bcs.n	6018 <__hexnan+0xdc>
    6020:	e00b      	b.n	603a <__hexnan+0xfe>
    6022:	9b01      	ldr	r3, [sp, #4]
    6024:	b14b      	cbz	r3, 603a <__hexnan+0xfe>
    6026:	f1c3 0220 	rsb	r2, r3, #32
    602a:	f04f 33ff 	mov.w	r3, #4294967295
    602e:	40d3      	lsrs	r3, r2
    6030:	f856 2c04 	ldr.w	r2, [r6, #-4]
    6034:	4013      	ands	r3, r2
    6036:	f846 3c04 	str.w	r3, [r6, #-4]
    603a:	682b      	ldr	r3, [r5, #0]
    603c:	b943      	cbnz	r3, 6050 <__hexnan+0x114>
    603e:	42bd      	cmp	r5, r7
    6040:	d102      	bne.n	6048 <__hexnan+0x10c>
    6042:	2301      	movs	r3, #1
    6044:	602b      	str	r3, [r5, #0]
    6046:	e003      	b.n	6050 <__hexnan+0x114>
    6048:	3d04      	subs	r5, #4
    604a:	e7f6      	b.n	603a <__hexnan+0xfe>
    604c:	2004      	movs	r0, #4
    604e:	e000      	b.n	6052 <__hexnan+0x116>
    6050:	2005      	movs	r0, #5
    6052:	b005      	add	sp, #20
    6054:	e8bd 8ff0 	ldmia.w	sp!, {r4, r5, r6, r7, r8, r9, r10, r11, pc}

00006058 <_isatty_r>:
    6058:	b538      	push	{r3, r4, r5, lr}
    605a:	4c06      	ldr	r4, [pc, #24]	; (6074 <_isatty_r+0x1c>)
    605c:	2300      	movs	r3, #0
    605e:	4605      	mov	r5, r0
    6060:	4608      	mov	r0, r1
    6062:	6023      	str	r3, [r4, #0]
    6064:	f7fa fb9c 	bl	7a0 <_isatty>
    6068:	1c43      	adds	r3, r0, #1
    606a:	d102      	bne.n	6072 <_isatty_r+0x1a>
    606c:	6823      	ldr	r3, [r4, #0]
    606e:	b103      	cbz	r3, 6072 <_isatty_r+0x1a>
    6070:	602b      	str	r3, [r5, #0]
    6072:	bd38      	pop	{r3, r4, r5, pc}
    6074:	100004b0 	.word	0x100004b0

00006078 <__get_current_locale>:
    6078:	4b03      	ldr	r3, [pc, #12]	; (6088 <__get_current_locale+0x10>)
    607a:	681b      	ldr	r3, [r3, #0]
    607c:	6a18      	ldr	r0, [r3, #32]
    607e:	4b03      	ldr	r3, [pc, #12]	; (608c <__get_current_locale+0x14>)
    6080:	2800      	cmp	r0, #0
    6082:	bf08      	it	eq
    6084:	4618      	moveq	r0, r3
    6086:	4770      	bx	lr
    6088:	10000138 	.word	0x10000138
    608c:	1000013c 	.word	0x1000013c

00006090 <__locale_ctype_ptr_l>:
    6090:	f8d0 00ec 	ldr.w	r0, [r0, #236]	; 0xec
    6094:	4770      	bx	lr
	...

00006098 <__locale_ctype_ptr>:
    6098:	b508      	push	{r3, lr}
    609a:	4b03      	ldr	r3, [pc, #12]	; (60a8 <__locale_ctype_ptr+0x10>)
    609c:	6818      	ldr	r0, [r3, #0]
    609e:	f7ff ffeb 	bl	6078 <__get_current_locale>
    60a2:	f8d0 00ec 	ldr.w	r0, [r0, #236]	; 0xec
    60a6:	bd08      	pop	{r3, pc}
    60a8:	10000138 	.word	0x10000138

000060ac <__localeconv_l>:
    60ac:	30f0      	adds	r0, #240	; 0xf0
    60ae:	4770      	bx	lr

000060b0 <_localeconv_r>:
    60b0:	4b04      	ldr	r3, [pc, #16]	; (60c4 <_localeconv_r+0x14>)
    60b2:	681b      	ldr	r3, [r3, #0]
    60b4:	6a18      	ldr	r0, [r3, #32]
    60b6:	4b04      	ldr	r3, [pc, #16]	; (60c8 <_localeconv_r+0x18>)
    60b8:	2800      	cmp	r0, #0
    60ba:	bf08      	it	eq
    60bc:	4618      	moveq	r0, r3
    60be:	30f0      	adds	r0, #240	; 0xf0
    60c0:	4770      	bx	lr
    60c2:	bf00      	nop
    60c4:	10000138 	.word	0x10000138
    60c8:	1000013c 	.word	0x1000013c

000060cc <_lseek_r>:
    60cc:	b538      	push	{r3, r4, r5, lr}
    60ce:	4c07      	ldr	r4, [pc, #28]	; (60ec <_lseek_r+0x20>)
    60d0:	4605      	mov	r5, r0
    60d2:	4608      	mov	r0, r1
    60d4:	4611      	mov	r1, r2
    60d6:	2200      	movs	r2, #0
    60d8:	6022      	str	r2, [r4, #0]
    60da:	461a      	mov	r2, r3
    60dc:	f7fa fb74 	bl	7c8 <_lseek>
    60e0:	1c43      	adds	r3, r0, #1
    60e2:	d102      	bne.n	60ea <_lseek_r+0x1e>
    60e4:	6823      	ldr	r3, [r4, #0]
    60e6:	b103      	cbz	r3, 60ea <_lseek_r+0x1e>
    60e8:	602b      	str	r3, [r5, #0]
    60ea:	bd38      	pop	{r3, r4, r5, pc}
    60ec:	100004b0 	.word	0x100004b0

000060f0 <__ascii_mbtowc>:
    60f0:	b082      	sub	sp, #8
    60f2:	b901      	cbnz	r1, 60f6 <__ascii_mbtowc+0x6>
    60f4:	a901      	add	r1, sp, #4
    60f6:	b13a      	cbz	r2, 6108 <__ascii_mbtowc+0x18>
    60f8:	b143      	cbz	r3, 610c <__ascii_mbtowc+0x1c>
    60fa:	7813      	ldrb	r3, [r2, #0]
    60fc:	600b      	str	r3, [r1, #0]
    60fe:	7812      	ldrb	r2, [r2, #0]
    6100:	1c10      	adds	r0, r2, #0
    6102:	bf18      	it	ne
    6104:	2001      	movne	r0, #1
    6106:	e003      	b.n	6110 <__ascii_mbtowc+0x20>
    6108:	4610      	mov	r0, r2
    610a:	e001      	b.n	6110 <__ascii_mbtowc+0x20>
    610c:	f06f 0001 	mvn.w	r0, #1
    6110:	b002      	add	sp, #8
    6112:	4770      	bx	lr

00006114 <__malloc_lock>:
    6114:	4770      	bx	lr

00006116 <__malloc_unlock>:
    6116:	4770      	bx	lr

00006118 <_Balloc>:
    6118:	b570      	push	{r4, r5, r6, lr}
    611a:	6a45      	ldr	r5, [r0, #36]	; 0x24
    611c:	4604      	mov	r4, r0
    611e:	460e      	mov	r6, r1
    6120:	b93d      	cbnz	r5, 6132 <_Balloc+0x1a>
    6122:	2010      	movs	r0, #16
    6124:	f7fc f9b0 	bl	2488 <malloc>
    6128:	6260      	str	r0, [r4, #36]	; 0x24
    612a:	6045      	str	r5, [r0, #4]
    612c:	6085      	str	r5, [r0, #8]
    612e:	6005      	str	r5, [r0, #0]
    6130:	60c5      	str	r5, [r0, #12]
    6132:	6a65      	ldr	r5, [r4, #36]	; 0x24
    6134:	68eb      	ldr	r3, [r5, #12]
    6136:	b143      	cbz	r3, 614a <_Balloc+0x32>
    6138:	6a63      	ldr	r3, [r4, #36]	; 0x24
    613a:	68db      	ldr	r3, [r3, #12]
    613c:	f853 0026 	ldr.w	r0, [r3, r6, lsl #2]
    6140:	b178      	cbz	r0, 6162 <_Balloc+0x4a>
    6142:	6802      	ldr	r2, [r0, #0]
    6144:	f843 2026 	str.w	r2, [r3, r6, lsl #2]
    6148:	e017      	b.n	617a <_Balloc+0x62>
    614a:	2221      	movs	r2, #33	; 0x21
    614c:	2104      	movs	r1, #4
    614e:	4620      	mov	r0, r4
    6150:	f000 fbcb 	bl	68ea <_calloc_r>
    6154:	6a63      	ldr	r3, [r4, #36]	; 0x24
    6156:	60e8      	str	r0, [r5, #12]
    6158:	68db      	ldr	r3, [r3, #12]
    615a:	2b00      	cmp	r3, #0
    615c:	d1ec      	bne.n	6138 <_Balloc+0x20>
    615e:	2000      	movs	r0, #0
    6160:	bd70      	pop	{r4, r5, r6, pc}
    6162:	2101      	movs	r1, #1
    6164:	fa01 f506 	lsl.w	r5, r1, r6
    6168:	1d6a      	adds	r2, r5, #5
    616a:	0092      	lsls	r2, r2, #2
    616c:	4620      	mov	r0, r4
    616e:	f000 fbbc 	bl	68ea <_calloc_r>
    6172:	2800      	cmp	r0, #0
    6174:	d0f3      	beq.n	615e <_Balloc+0x46>
    6176:	6046      	str	r6, [r0, #4]
    6178:	6085      	str	r5, [r0, #8]
    617a:	2300      	movs	r3, #0
    617c:	6103      	str	r3, [r0, #16]
    617e:	60c3      	str	r3, [r0, #12]
    6180:	bd70      	pop	{r4, r5, r6, pc}

00006182 <_Bfree>:
    6182:	b570      	push	{r4, r5, r6, lr}
    6184:	6a44      	ldr	r4, [r0, #36]	; 0x24
    6186:	4606      	mov	r6, r0
    6188:	460d      	mov	r5, r1
    618a:	b93c      	cbnz	r4, 619c <_Bfree+0x1a>
    618c:	2010      	movs	r0, #16
    618e:	f7fc f97b 	bl	2488 <malloc>
    6192:	6270      	str	r0, [r6, #36]	; 0x24
    6194:	6044      	str	r4, [r0, #4]
    6196:	6084      	str	r4, [r0, #8]
    6198:	6004      	str	r4, [r0, #0]
    619a:	60c4      	str	r4, [r0, #12]
    619c:	b13d      	cbz	r5, 61ae <_Bfree+0x2c>
    619e:	6a73      	ldr	r3, [r6, #36]	; 0x24
    61a0:	686a      	ldr	r2, [r5, #4]
    61a2:	68db      	ldr	r3, [r3, #12]
    61a4:	f853 1022 	ldr.w	r1, [r3, r2, lsl #2]
    61a8:	6029      	str	r1, [r5, #0]
    61aa:	f843 5022 	str.w	r5, [r3, r2, lsl #2]
    61ae:	bd70      	pop	{r4, r5, r6, pc}

000061b0 <__multadd>:
    61b0:	e92d 41f0 	stmdb	sp!, {r4, r5, r6, r7, r8, lr}
    61b4:	4606      	mov	r6, r0
    61b6:	460c      	mov	r4, r1
    61b8:	690d      	ldr	r5, [r1, #16]
    61ba:	461f      	mov	r7, r3
    61bc:	f101 0e14 	add.w	lr, r1, #20
    61c0:	2300      	movs	r3, #0
    61c2:	f8de 0000 	ldr.w	r0, [lr]
    61c6:	3301      	adds	r3, #1
    61c8:	b281      	uxth	r1, r0
    61ca:	fb02 7101 	mla	r1, r2, r1, r7
    61ce:	0c00      	lsrs	r0, r0, #16
    61d0:	0c0f      	lsrs	r7, r1, #16
    61d2:	fb02 7000 	mla	r0, r2, r0, r7
    61d6:	b289      	uxth	r1, r1
    61d8:	eb01 4100 	add.w	r1, r1, r0, lsl #16
    61dc:	429d      	cmp	r5, r3
    61de:	ea4f 4710 	mov.w	r7, r0, lsr #16
    61e2:	f84e 1b04 	str.w	r1, [lr], #4
    61e6:	dcec      	bgt.n	61c2 <__multadd+0x12>
    61e8:	b1d7      	cbz	r7, 6220 <__multadd+0x70>
    61ea:	68a3      	ldr	r3, [r4, #8]
    61ec:	429d      	cmp	r5, r3
    61ee:	db12      	blt.n	6216 <__multadd+0x66>
    61f0:	6861      	ldr	r1, [r4, #4]
    61f2:	4630      	mov	r0, r6
    61f4:	3101      	adds	r1, #1
    61f6:	f7ff ff8f 	bl	6118 <_Balloc>
    61fa:	4680      	mov	r8, r0
    61fc:	6922      	ldr	r2, [r4, #16]
    61fe:	f104 010c 	add.w	r1, r4, #12
    6202:	3202      	adds	r2, #2
    6204:	0092      	lsls	r2, r2, #2
    6206:	300c      	adds	r0, #12
    6208:	f7fc f95c 	bl	24c4 <memcpy>
    620c:	4621      	mov	r1, r4
    620e:	4630      	mov	r0, r6
    6210:	f7ff ffb7 	bl	6182 <_Bfree>
    6214:	4644      	mov	r4, r8
    6216:	eb04 0385 	add.w	r3, r4, r5, lsl #2
    621a:	3501      	adds	r5, #1
    621c:	615f      	str	r7, [r3, #20]
    621e:	6125      	str	r5, [r4, #16]
    6220:	4620      	mov	r0, r4
    6222:	e8bd 81f0 	ldmia.w	sp!, {r4, r5, r6, r7, r8, pc}

00006226 <__s2b>:
    6226:	e92d 43f8 	stmdb	sp!, {r3, r4, r5, r6, r7, r8, r9, lr}
    622a:	4606      	mov	r6, r0
    622c:	4615      	mov	r5, r2
    622e:	461f      	mov	r7, r3
    6230:	2209      	movs	r2, #9
    6232:	3308      	adds	r3, #8
    6234:	460c      	mov	r4, r1
    6236:	fb93 f3f2 	sdiv	r3, r3, r2
    623a:	2100      	movs	r1, #0
    623c:	2201      	movs	r2, #1
    623e:	429a      	cmp	r2, r3
    6240:	da02      	bge.n	6248 <__s2b+0x22>
    6242:	0052      	lsls	r2, r2, #1
    6244:	3101      	adds	r1, #1
    6246:	e7fa      	b.n	623e <__s2b+0x18>
    6248:	4630      	mov	r0, r6
    624a:	f7ff ff65 	bl	6118 <_Balloc>
    624e:	9b08      	ldr	r3, [sp, #32]
    6250:	2d09      	cmp	r5, #9
    6252:	6143      	str	r3, [r0, #20]
    6254:	f04f 0301 	mov.w	r3, #1
    6258:	6103      	str	r3, [r0, #16]
    625a:	dd11      	ble.n	6280 <__s2b+0x5a>
    625c:	f104 0809 	add.w	r8, r4, #9
    6260:	46c1      	mov	r9, r8
    6262:	442c      	add	r4, r5
    6264:	f819 3b01 	ldrb.w	r3, [r9], #1
    6268:	4601      	mov	r1, r0
    626a:	3b30      	subs	r3, #48	; 0x30
    626c:	220a      	movs	r2, #10
    626e:	4630      	mov	r0, r6
    6270:	f7ff ff9e 	bl	61b0 <__multadd>
    6274:	45a1      	cmp	r9, r4
    6276:	d1f5      	bne.n	6264 <__s2b+0x3e>
    6278:	eb08 0405 	add.w	r4, r8, r5
    627c:	3c08      	subs	r4, #8
    627e:	e001      	b.n	6284 <__s2b+0x5e>
    6280:	340a      	adds	r4, #10
    6282:	2509      	movs	r5, #9
    6284:	1b2d      	subs	r5, r5, r4
    6286:	1963      	adds	r3, r4, r5
    6288:	429f      	cmp	r7, r3
    628a:	dd08      	ble.n	629e <__s2b+0x78>
    628c:	f814 3b01 	ldrb.w	r3, [r4], #1
    6290:	4601      	mov	r1, r0
    6292:	3b30      	subs	r3, #48	; 0x30
    6294:	220a      	movs	r2, #10
    6296:	4630      	mov	r0, r6
    6298:	f7ff ff8a 	bl	61b0 <__multadd>
    629c:	e7f3      	b.n	6286 <__s2b+0x60>
    629e:	e8bd 83f8 	ldmia.w	sp!, {r3, r4, r5, r6, r7, r8, r9, pc}

000062a2 <__hi0bits>:
    62a2:	0c03      	lsrs	r3, r0, #16
    62a4:	041b      	lsls	r3, r3, #16
    62a6:	b913      	cbnz	r3, 62ae <__hi0bits+0xc>
    62a8:	0400      	lsls	r0, r0, #16
    62aa:	2310      	movs	r3, #16
    62ac:	e000      	b.n	62b0 <__hi0bits+0xe>
    62ae:	2300      	movs	r3, #0
    62b0:	f010 4f7f 	tst.w	r0, #4278190080	; 0xff000000
    62b4:	bf04      	itt	eq
    62b6:	0200      	lsleq	r0, r0, #8
    62b8:	3308      	addeq	r3, #8
    62ba:	f010 4f70 	tst.w	r0, #4026531840	; 0xf0000000
    62be:	bf04      	itt	eq
    62c0:	0100      	lsleq	r0, r0, #4
    62c2:	3304      	addeq	r3, #4
    62c4:	f010 4f40 	tst.w	r0, #3221225472	; 0xc0000000
    62c8:	bf04      	itt	eq
    62ca:	0080      	lsleq	r0, r0, #2
    62cc:	3302      	addeq	r3, #2
    62ce:	2800      	cmp	r0, #0
    62d0:	db03      	blt.n	62da <__hi0bits+0x38>
    62d2:	0042      	lsls	r2, r0, #1
    62d4:	d503      	bpl.n	62de <__hi0bits+0x3c>
    62d6:	1c58      	adds	r0, r3, #1
    62d8:	4770      	bx	lr
    62da:	4618      	mov	r0, r3
    62dc:	4770      	bx	lr
    62de:	2020      	movs	r0, #32
    62e0:	4770      	bx	lr

000062e2 <__lo0bits>:
    62e2:	6803      	ldr	r3, [r0, #0]
    62e4:	f013 0207 	ands.w	r2, r3, #7
    62e8:	d00b      	beq.n	6302 <__lo0bits+0x20>
    62ea:	07d9      	lsls	r1, r3, #31
    62ec:	d422      	bmi.n	6334 <__lo0bits+0x52>
    62ee:	079a      	lsls	r2, r3, #30
    62f0:	bf4b      	itete	mi
    62f2:	085b      	lsrmi	r3, r3, #1
    62f4:	089b      	lsrpl	r3, r3, #2
    62f6:	6003      	strmi	r3, [r0, #0]
    62f8:	6003      	strpl	r3, [r0, #0]
    62fa:	bf4c      	ite	mi
    62fc:	2001      	movmi	r0, #1
    62fe:	2002      	movpl	r0, #2
    6300:	4770      	bx	lr
    6302:	b299      	uxth	r1, r3
    6304:	b909      	cbnz	r1, 630a <__lo0bits+0x28>
    6306:	0c1b      	lsrs	r3, r3, #16
    6308:	2210      	movs	r2, #16
    630a:	f013 0fff 	tst.w	r3, #255	; 0xff
    630e:	bf04      	itt	eq
    6310:	0a1b      	lsreq	r3, r3, #8
    6312:	3208      	addeq	r2, #8
    6314:	0719      	lsls	r1, r3, #28
    6316:	bf04      	itt	eq
    6318:	091b      	lsreq	r3, r3, #4
    631a:	3204      	addeq	r2, #4
    631c:	0799      	lsls	r1, r3, #30
    631e:	bf04      	itt	eq
    6320:	089b      	lsreq	r3, r3, #2
    6322:	3202      	addeq	r2, #2
    6324:	07d9      	lsls	r1, r3, #31
    6326:	d402      	bmi.n	632e <__lo0bits+0x4c>
    6328:	085b      	lsrs	r3, r3, #1
    632a:	d005      	beq.n	6338 <__lo0bits+0x56>
    632c:	3201      	adds	r2, #1
    632e:	6003      	str	r3, [r0, #0]
    6330:	4610      	mov	r0, r2
    6332:	4770      	bx	lr
    6334:	2000      	movs	r0, #0
    6336:	4770      	bx	lr
    6338:	2020      	movs	r0, #32
    633a:	4770      	bx	lr

0000633c <__i2b>:
    633c:	b510      	push	{r4, lr}
    633e:	460c      	mov	r4, r1
    6340:	2101      	movs	r1, #1
    6342:	f7ff fee9 	bl	6118 <_Balloc>
    6346:	2201      	movs	r2, #1
    6348:	6144      	str	r4, [r0, #20]
    634a:	6102      	str	r2, [r0, #16]
    634c:	bd10      	pop	{r4, pc}

0000634e <__multiply>:
    634e:	e92d 4ff7 	stmdb	sp!, {r0, r1, r2, r4, r5, r6, r7, r8, r9, r10, r11, lr}
    6352:	4614      	mov	r4, r2
    6354:	690a      	ldr	r2, [r1, #16]
    6356:	6923      	ldr	r3, [r4, #16]
    6358:	4688      	mov	r8, r1
    635a:	429a      	cmp	r2, r3
    635c:	bfbe      	ittt	lt
    635e:	460b      	movlt	r3, r1
    6360:	46a0      	movlt	r8, r4
    6362:	461c      	movlt	r4, r3
    6364:	f8d8 7010 	ldr.w	r7, [r8, #16]
    6368:	f8d4 9010 	ldr.w	r9, [r4, #16]
    636c:	f8d8 3008 	ldr.w	r3, [r8, #8]
    6370:	f8d8 1004 	ldr.w	r1, [r8, #4]
    6374:	eb07 0609 	add.w	r6, r7, r9
    6378:	429e      	cmp	r6, r3
    637a:	bfc8      	it	gt
    637c:	3101      	addgt	r1, #1
    637e:	f7ff fecb 	bl	6118 <_Balloc>
    6382:	f100 0514 	add.w	r5, r0, #20
    6386:	462b      	mov	r3, r5
    6388:	eb05 0c86 	add.w	r12, r5, r6, lsl #2
    638c:	2200      	movs	r2, #0
    638e:	4563      	cmp	r3, r12
    6390:	d202      	bcs.n	6398 <__multiply+0x4a>
    6392:	f843 2b04 	str.w	r2, [r3], #4
    6396:	e7fa      	b.n	638e <__multiply+0x40>
    6398:	f104 0214 	add.w	r2, r4, #20
    639c:	f108 0114 	add.w	r1, r8, #20
    63a0:	eb02 0389 	add.w	r3, r2, r9, lsl #2
    63a4:	eb01 0787 	add.w	r7, r1, r7, lsl #2
    63a8:	9300      	str	r3, [sp, #0]
    63aa:	9b00      	ldr	r3, [sp, #0]
    63ac:	9201      	str	r2, [sp, #4]
    63ae:	4293      	cmp	r3, r2
    63b0:	d957      	bls.n	6462 <__multiply+0x114>
    63b2:	f8b2 b000 	ldrh.w	r11, [r2]
    63b6:	f1bb 0f00 	cmp.w	r11, #0
    63ba:	d023      	beq.n	6404 <__multiply+0xb6>
    63bc:	4689      	mov	r9, r1
    63be:	46ae      	mov	lr, r5
    63c0:	f04f 0800 	mov.w	r8, #0
    63c4:	f859 4b04 	ldr.w	r4, [r9], #4
    63c8:	f8be a000 	ldrh.w	r10, [lr]
    63cc:	b2a3      	uxth	r3, r4
    63ce:	fb0b a303 	mla	r3, r11, r3, r10
    63d2:	ea4f 4a14 	mov.w	r10, r4, lsr #16
    63d6:	f8de 4000 	ldr.w	r4, [lr]
    63da:	4443      	add	r3, r8
    63dc:	ea4f 4814 	mov.w	r8, r4, lsr #16
    63e0:	fb0b 840a 	mla	r4, r11, r10, r8
    63e4:	46f2      	mov	r10, lr
    63e6:	eb04 4413 	add.w	r4, r4, r3, lsr #16
    63ea:	b29b      	uxth	r3, r3
    63ec:	ea43 4304 	orr.w	r3, r3, r4, lsl #16
    63f0:	454f      	cmp	r7, r9
    63f2:	ea4f 4814 	mov.w	r8, r4, lsr #16
    63f6:	f84a 3b04 	str.w	r3, [r10], #4
    63fa:	d901      	bls.n	6400 <__multiply+0xb2>
    63fc:	46d6      	mov	lr, r10
    63fe:	e7e1      	b.n	63c4 <__multiply+0x76>
    6400:	f8ce 8004 	str.w	r8, [lr, #4]
    6404:	9b01      	ldr	r3, [sp, #4]
    6406:	3204      	adds	r2, #4
    6408:	f8b3 a002 	ldrh.w	r10, [r3, #2]
    640c:	f1ba 0f00 	cmp.w	r10, #0
    6410:	d021      	beq.n	6456 <__multiply+0x108>
    6412:	462c      	mov	r4, r5
    6414:	4689      	mov	r9, r1
    6416:	682b      	ldr	r3, [r5, #0]
    6418:	f04f 0800 	mov.w	r8, #0
    641c:	f8b9 e000 	ldrh.w	lr, [r9]
    6420:	f8b4 b002 	ldrh.w	r11, [r4, #2]
    6424:	b29b      	uxth	r3, r3
    6426:	fb0a be0e 	mla	lr, r10, lr, r11
    642a:	46a3      	mov	r11, r4
    642c:	44f0      	add	r8, lr
    642e:	ea43 4308 	orr.w	r3, r3, r8, lsl #16
    6432:	f84b 3b04 	str.w	r3, [r11], #4
    6436:	f859 3b04 	ldr.w	r3, [r9], #4
    643a:	f8b4 e004 	ldrh.w	lr, [r4, #4]
    643e:	0c1b      	lsrs	r3, r3, #16
    6440:	fb0a e303 	mla	r3, r10, r3, lr
    6444:	454f      	cmp	r7, r9
    6446:	eb03 4318 	add.w	r3, r3, r8, lsr #16
    644a:	ea4f 4813 	mov.w	r8, r3, lsr #16
    644e:	d901      	bls.n	6454 <__multiply+0x106>
    6450:	465c      	mov	r4, r11
    6452:	e7e3      	b.n	641c <__multiply+0xce>
    6454:	6063      	str	r3, [r4, #4]
    6456:	3504      	adds	r5, #4
    6458:	e7a7      	b.n	63aa <__multiply+0x5c>
    645a:	f85c 3d04 	ldr.w	r3, [r12, #-4]!
    645e:	b913      	cbnz	r3, 6466 <__multiply+0x118>
    6460:	3e01      	subs	r6, #1
    6462:	2e00      	cmp	r6, #0
    6464:	dcf9      	bgt.n	645a <__multiply+0x10c>
    6466:	6106      	str	r6, [r0, #16]
    6468:	b003      	add	sp, #12
    646a:	e8bd 8ff0 	ldmia.w	sp!, {r4, r5, r6, r7, r8, r9, r10, r11, pc}
	...

00006470 <__pow5mult>:
    6470:	e92d 43f8 	stmdb	sp!, {r3, r4, r5, r6, r7, r8, r9, lr}
    6474:	4615      	mov	r5, r2
    6476:	f012 0203 	ands.w	r2, r2, #3
    647a:	4606      	mov	r6, r0
    647c:	460f      	mov	r7, r1
    647e:	d007      	beq.n	6490 <__pow5mult+0x20>
    6480:	4c21      	ldr	r4, [pc, #132]	; (6508 <__pow5mult+0x98>)
    6482:	3a01      	subs	r2, #1
    6484:	2300      	movs	r3, #0
    6486:	f854 2022 	ldr.w	r2, [r4, r2, lsl #2]
    648a:	f7ff fe91 	bl	61b0 <__multadd>
    648e:	4607      	mov	r7, r0
    6490:	10ad      	asrs	r5, r5, #2
    6492:	d036      	beq.n	6502 <__pow5mult+0x92>
    6494:	6a74      	ldr	r4, [r6, #36]	; 0x24
    6496:	b93c      	cbnz	r4, 64a8 <__pow5mult+0x38>
    6498:	2010      	movs	r0, #16
    649a:	f7fb fff5 	bl	2488 <malloc>
    649e:	6270      	str	r0, [r6, #36]	; 0x24
    64a0:	6044      	str	r4, [r0, #4]
    64a2:	6084      	str	r4, [r0, #8]
    64a4:	6004      	str	r4, [r0, #0]
    64a6:	60c4      	str	r4, [r0, #12]
    64a8:	f8d6 8024 	ldr.w	r8, [r6, #36]	; 0x24
    64ac:	f8d8 4008 	ldr.w	r4, [r8, #8]
    64b0:	b94c      	cbnz	r4, 64c6 <__pow5mult+0x56>
    64b2:	f240 2171 	movw	r1, #625	; 0x271
    64b6:	4630      	mov	r0, r6
    64b8:	f7ff ff40 	bl	633c <__i2b>
    64bc:	4604      	mov	r4, r0
    64be:	2300      	movs	r3, #0
    64c0:	f8c8 0008 	str.w	r0, [r8, #8]
    64c4:	6003      	str	r3, [r0, #0]
    64c6:	f04f 0800 	mov.w	r8, #0
    64ca:	07eb      	lsls	r3, r5, #31
    64cc:	d50a      	bpl.n	64e4 <__pow5mult+0x74>
    64ce:	4639      	mov	r1, r7
    64d0:	4622      	mov	r2, r4
    64d2:	4630      	mov	r0, r6
    64d4:	f7ff ff3b 	bl	634e <__multiply>
    64d8:	4681      	mov	r9, r0
    64da:	4639      	mov	r1, r7
    64dc:	4630      	mov	r0, r6
    64de:	f7ff fe50 	bl	6182 <_Bfree>
    64e2:	464f      	mov	r7, r9
    64e4:	106d      	asrs	r5, r5, #1
    64e6:	d00c      	beq.n	6502 <__pow5mult+0x92>
    64e8:	6820      	ldr	r0, [r4, #0]
    64ea:	b108      	cbz	r0, 64f0 <__pow5mult+0x80>
    64ec:	4604      	mov	r4, r0
    64ee:	e7ec      	b.n	64ca <__pow5mult+0x5a>
    64f0:	4622      	mov	r2, r4
    64f2:	4621      	mov	r1, r4
    64f4:	4630      	mov	r0, r6
    64f6:	f7ff ff2a 	bl	634e <__multiply>
    64fa:	6020      	str	r0, [r4, #0]
    64fc:	f8c0 8000 	str.w	r8, [r0]
    6500:	e7f4      	b.n	64ec <__pow5mult+0x7c>
    6502:	4638      	mov	r0, r7
    6504:	e8bd 83f8 	ldmia.w	sp!, {r3, r4, r5, r6, r7, r8, r9, pc}
    6508:	00008718 	.word	0x00008718

0000650c <__lshift>:
    650c:	e92d 47f0 	stmdb	sp!, {r4, r5, r6, r7, r8, r9, r10, lr}
    6510:	460c      	mov	r4, r1
    6512:	4607      	mov	r7, r0
    6514:	4691      	mov	r9, r2
    6516:	6926      	ldr	r6, [r4, #16]
    6518:	ea4f 1a62 	mov.w	r10, r2, asr #5
    651c:	4456      	add	r6, r10
    651e:	6849      	ldr	r1, [r1, #4]
    6520:	68a3      	ldr	r3, [r4, #8]
    6522:	1c75      	adds	r5, r6, #1
    6524:	42ab      	cmp	r3, r5
    6526:	da02      	bge.n	652e <__lshift+0x22>
    6528:	3101      	adds	r1, #1
    652a:	005b      	lsls	r3, r3, #1
    652c:	e7fa      	b.n	6524 <__lshift+0x18>
    652e:	4638      	mov	r0, r7
    6530:	f7ff fdf2 	bl	6118 <_Balloc>
    6534:	2300      	movs	r3, #0
    6536:	4680      	mov	r8, r0
    6538:	461a      	mov	r2, r3
    653a:	f100 0114 	add.w	r1, r0, #20
    653e:	4553      	cmp	r3, r10
    6540:	da03      	bge.n	654a <__lshift+0x3e>
    6542:	f841 2023 	str.w	r2, [r1, r3, lsl #2]
    6546:	3301      	adds	r3, #1
    6548:	e7f9      	b.n	653e <__lshift+0x32>
    654a:	ea2a 73ea 	bic.w	r3, r10, r10, asr #31
    654e:	6920      	ldr	r0, [r4, #16]
    6550:	eb01 0383 	add.w	r3, r1, r3, lsl #2
    6554:	f019 091f 	ands.w	r9, r9, #31
    6558:	f104 0114 	add.w	r1, r4, #20
    655c:	eb01 0e80 	add.w	lr, r1, r0, lsl #2
    6560:	d014      	beq.n	658c <__lshift+0x80>
    6562:	f1c9 0c20 	rsb	r12, r9, #32
    6566:	2200      	movs	r2, #0
    6568:	6808      	ldr	r0, [r1, #0]
    656a:	469a      	mov	r10, r3
    656c:	fa00 f009 	lsl.w	r0, r0, r9
    6570:	4302      	orrs	r2, r0
    6572:	f843 2b04 	str.w	r2, [r3], #4
    6576:	f851 2b04 	ldr.w	r2, [r1], #4
    657a:	458e      	cmp	lr, r1
    657c:	fa22 f20c 	lsr.w	r2, r2, r12
    6580:	d8f2      	bhi.n	6568 <__lshift+0x5c>
    6582:	f8ca 2004 	str.w	r2, [r10, #4]
    6586:	b142      	cbz	r2, 659a <__lshift+0x8e>
    6588:	1cb5      	adds	r5, r6, #2
    658a:	e006      	b.n	659a <__lshift+0x8e>
    658c:	3b04      	subs	r3, #4
    658e:	f851 2b04 	ldr.w	r2, [r1], #4
    6592:	458e      	cmp	lr, r1
    6594:	f843 2f04 	str.w	r2, [r3, #4]!
    6598:	d8f9      	bhi.n	658e <__lshift+0x82>
    659a:	3d01      	subs	r5, #1
    659c:	4638      	mov	r0, r7
    659e:	f8c8 5010 	str.w	r5, [r8, #16]
    65a2:	4621      	mov	r1, r4
    65a4:	f7ff fded 	bl	6182 <_Bfree>
    65a8:	4640      	mov	r0, r8
    65aa:	e8bd 87f0 	ldmia.w	sp!, {r4, r5, r6, r7, r8, r9, r10, pc}

000065ae <__mcmp>:
    65ae:	6903      	ldr	r3, [r0, #16]
    65b0:	690a      	ldr	r2, [r1, #16]
    65b2:	b510      	push	{r4, lr}
    65b4:	1a9b      	subs	r3, r3, r2
    65b6:	d111      	bne.n	65dc <__mcmp+0x2e>
    65b8:	0092      	lsls	r2, r2, #2
    65ba:	3014      	adds	r0, #20
    65bc:	3114      	adds	r1, #20
    65be:	1883      	adds	r3, r0, r2
    65c0:	440a      	add	r2, r1
    65c2:	f853 4d04 	ldr.w	r4, [r3, #-4]!
    65c6:	f852 1d04 	ldr.w	r1, [r2, #-4]!
    65ca:	428c      	cmp	r4, r1
    65cc:	d002      	beq.n	65d4 <__mcmp+0x26>
    65ce:	d307      	bcc.n	65e0 <__mcmp+0x32>
    65d0:	2001      	movs	r0, #1
    65d2:	bd10      	pop	{r4, pc}
    65d4:	4298      	cmp	r0, r3
    65d6:	d3f4      	bcc.n	65c2 <__mcmp+0x14>
    65d8:	2000      	movs	r0, #0
    65da:	bd10      	pop	{r4, pc}
    65dc:	4618      	mov	r0, r3
    65de:	bd10      	pop	{r4, pc}
    65e0:	f04f 30ff 	mov.w	r0, #4294967295
    65e4:	bd10      	pop	{r4, pc}

000065e6 <__mdiff>:
    65e6:	e92d 43f8 	stmdb	sp!, {r3, r4, r5, r6, r7, r8, r9, lr}
    65ea:	460c      	mov	r4, r1
    65ec:	4607      	mov	r7, r0
    65ee:	4611      	mov	r1, r2
    65f0:	4620      	mov	r0, r4
    65f2:	4615      	mov	r5, r2
    65f4:	f7ff ffdb 	bl	65ae <__mcmp>
    65f8:	1e06      	subs	r6, r0, #0
    65fa:	d108      	bne.n	660e <__mdiff+0x28>
    65fc:	4631      	mov	r1, r6
    65fe:	4638      	mov	r0, r7
    6600:	f7ff fd8a 	bl	6118 <_Balloc>
    6604:	2301      	movs	r3, #1
    6606:	6103      	str	r3, [r0, #16]
    6608:	6146      	str	r6, [r0, #20]
    660a:	e8bd 83f8 	ldmia.w	sp!, {r3, r4, r5, r6, r7, r8, r9, pc}
    660e:	bfbc      	itt	lt
    6610:	4623      	movlt	r3, r4
    6612:	462c      	movlt	r4, r5
    6614:	4638      	mov	r0, r7
    6616:	6861      	ldr	r1, [r4, #4]
    6618:	bfba      	itte	lt
    661a:	461d      	movlt	r5, r3
    661c:	2601      	movlt	r6, #1
    661e:	2600      	movge	r6, #0
    6620:	f7ff fd7a 	bl	6118 <_Balloc>
    6624:	692b      	ldr	r3, [r5, #16]
    6626:	60c6      	str	r6, [r0, #12]
    6628:	6926      	ldr	r6, [r4, #16]
    662a:	f105 0914 	add.w	r9, r5, #20
    662e:	f104 0114 	add.w	r1, r4, #20
    6632:	eb01 0786 	add.w	r7, r1, r6, lsl #2
    6636:	eb09 0883 	add.w	r8, r9, r3, lsl #2
    663a:	f100 0514 	add.w	r5, r0, #20
    663e:	f04f 0c00 	mov.w	r12, #0
    6642:	f851 2b04 	ldr.w	r2, [r1], #4
    6646:	f859 4b04 	ldr.w	r4, [r9], #4
    664a:	b293      	uxth	r3, r2
    664c:	449c      	add	r12, r3
    664e:	b2a3      	uxth	r3, r4
    6650:	0c24      	lsrs	r4, r4, #16
    6652:	ebc3 030c 	rsb	r3, r3, r12
    6656:	ebc4 4212 	rsb	r2, r4, r2, lsr #16
    665a:	eb02 4223 	add.w	r2, r2, r3, asr #16
    665e:	b29b      	uxth	r3, r3
    6660:	ea4f 4c22 	mov.w	r12, r2, asr #16
    6664:	45c8      	cmp	r8, r9
    6666:	ea43 4202 	orr.w	r2, r3, r2, lsl #16
    666a:	468e      	mov	lr, r1
    666c:	f845 2b04 	str.w	r2, [r5], #4
    6670:	d8e7      	bhi.n	6642 <__mdiff+0x5c>
    6672:	45be      	cmp	lr, r7
    6674:	d20e      	bcs.n	6694 <__mdiff+0xae>
    6676:	f85e 1b04 	ldr.w	r1, [lr], #4
    667a:	b28a      	uxth	r2, r1
    667c:	4462      	add	r2, r12
    667e:	1413      	asrs	r3, r2, #16
    6680:	eb03 4311 	add.w	r3, r3, r1, lsr #16
    6684:	b292      	uxth	r2, r2
    6686:	ea42 4203 	orr.w	r2, r2, r3, lsl #16
    668a:	ea4f 4c23 	mov.w	r12, r3, asr #16
    668e:	f845 2b04 	str.w	r2, [r5], #4
    6692:	e7ee      	b.n	6672 <__mdiff+0x8c>
    6694:	f855 3d04 	ldr.w	r3, [r5, #-4]!
    6698:	b90b      	cbnz	r3, 669e <__mdiff+0xb8>
    669a:	3e01      	subs	r6, #1
    669c:	e7fa      	b.n	6694 <__mdiff+0xae>
    669e:	6106      	str	r6, [r0, #16]
    66a0:	e8bd 83f8 	ldmia.w	sp!, {r3, r4, r5, r6, r7, r8, r9, pc}

000066a4 <__ulp>:
    66a4:	4b10      	ldr	r3, [pc, #64]	; (66e8 <__ulp+0x44>)
    66a6:	400b      	ands	r3, r1
    66a8:	f1a3 7350 	sub.w	r3, r3, #54525952	; 0x3400000
    66ac:	2b00      	cmp	r3, #0
    66ae:	dd02      	ble.n	66b6 <__ulp+0x12>
    66b0:	2000      	movs	r0, #0
    66b2:	4619      	mov	r1, r3
    66b4:	4770      	bx	lr
    66b6:	425b      	negs	r3, r3
    66b8:	151b      	asrs	r3, r3, #20
    66ba:	2b13      	cmp	r3, #19
    66bc:	f04f 0000 	mov.w	r0, #0
    66c0:	f04f 0100 	mov.w	r1, #0
    66c4:	dc04      	bgt.n	66d0 <__ulp+0x2c>
    66c6:	f44f 2200 	mov.w	r2, #524288	; 0x80000
    66ca:	fa42 f103 	asr.w	r1, r2, r3
    66ce:	4770      	bx	lr
    66d0:	3b14      	subs	r3, #20
    66d2:	2b1e      	cmp	r3, #30
    66d4:	f04f 0201 	mov.w	r2, #1
    66d8:	bfce      	itee	gt
    66da:	4613      	movgt	r3, r2
    66dc:	f1c3 031f 	rsble	r3, r3, #31
    66e0:	fa02 f303 	lslle.w	r3, r2, r3
    66e4:	4618      	mov	r0, r3
    66e6:	4770      	bx	lr
    66e8:	7ff00000 	.word	0x7ff00000

000066ec <__b2d>:
    66ec:	b5f8      	push	{r3, r4, r5, r6, r7, lr}
    66ee:	6905      	ldr	r5, [r0, #16]
    66f0:	f100 0614 	add.w	r6, r0, #20
    66f4:	eb06 0585 	add.w	r5, r6, r5, lsl #2
    66f8:	f855 4c04 	ldr.w	r4, [r5, #-4]
    66fc:	1f2f      	subs	r7, r5, #4
    66fe:	4620      	mov	r0, r4
    6700:	f7ff fdcf 	bl	62a2 <__hi0bits>
    6704:	f1c0 0320 	rsb	r3, r0, #32
    6708:	280a      	cmp	r0, #10
    670a:	600b      	str	r3, [r1, #0]
    670c:	dc14      	bgt.n	6738 <__b2d+0x4c>
    670e:	f1c0 0e0b 	rsb	lr, r0, #11
    6712:	fa24 f10e 	lsr.w	r1, r4, lr
    6716:	42be      	cmp	r6, r7
    6718:	f041 537f 	orr.w	r3, r1, #1069547520	; 0x3fc00000
    671c:	bf34      	ite	cc
    671e:	f855 1c08 	ldrcc.w	r1, [r5, #-8]
    6722:	2100      	movcs	r1, #0
    6724:	3015      	adds	r0, #21
    6726:	fa04 f000 	lsl.w	r0, r4, r0
    672a:	fa21 f10e 	lsr.w	r1, r1, lr
    672e:	f443 1340 	orr.w	r3, r3, #3145728	; 0x300000
    6732:	ea40 0201 	orr.w	r2, r0, r1
    6736:	e023      	b.n	6780 <__b2d+0x94>
    6738:	42be      	cmp	r6, r7
    673a:	bf3a      	itte	cc
    673c:	f1a5 0708 	subcc.w	r7, r5, #8
    6740:	f855 1c08 	ldrcc.w	r1, [r5, #-8]
    6744:	2100      	movcs	r1, #0
    6746:	380b      	subs	r0, #11
    6748:	d015      	beq.n	6776 <__b2d+0x8a>
    674a:	4084      	lsls	r4, r0
    674c:	f1c0 0520 	rsb	r5, r0, #32
    6750:	f044 547f 	orr.w	r4, r4, #1069547520	; 0x3fc00000
    6754:	f444 1440 	orr.w	r4, r4, #3145728	; 0x300000
    6758:	42b7      	cmp	r7, r6
    675a:	fa21 fe05 	lsr.w	lr, r1, r5
    675e:	ea44 030e 	orr.w	r3, r4, lr
    6762:	bf8c      	ite	hi
    6764:	f857 4c04 	ldrhi.w	r4, [r7, #-4]
    6768:	2400      	movls	r4, #0
    676a:	fa01 f000 	lsl.w	r0, r1, r0
    676e:	40ec      	lsrs	r4, r5
    6770:	ea40 0204 	orr.w	r2, r0, r4
    6774:	e004      	b.n	6780 <__b2d+0x94>
    6776:	460a      	mov	r2, r1
    6778:	f044 537f 	orr.w	r3, r4, #1069547520	; 0x3fc00000
    677c:	f443 1340 	orr.w	r3, r3, #3145728	; 0x300000
    6780:	4610      	mov	r0, r2
    6782:	4619      	mov	r1, r3
    6784:	bdf8      	pop	{r3, r4, r5, r6, r7, pc}

00006786 <__d2b>:
    6786:	e92d 41f3 	stmdb	sp!, {r0, r1, r4, r5, r6, r7, r8, lr}
    678a:	461c      	mov	r4, r3
    678c:	2101      	movs	r1, #1
    678e:	4690      	mov	r8, r2
    6790:	9e08      	ldr	r6, [sp, #32]
    6792:	9d09      	ldr	r5, [sp, #36]	; 0x24
    6794:	f7ff fcc0 	bl	6118 <_Balloc>
    6798:	f3c4 0213 	ubfx	r2, r4, #0, #20
    679c:	f3c4 540a 	ubfx	r4, r4, #20, #11
    67a0:	4607      	mov	r7, r0
    67a2:	b10c      	cbz	r4, 67a8 <__d2b+0x22>
    67a4:	f442 1280 	orr.w	r2, r2, #1048576	; 0x100000
    67a8:	9201      	str	r2, [sp, #4]
    67aa:	f1b8 0f00 	cmp.w	r8, #0
    67ae:	d019      	beq.n	67e4 <__d2b+0x5e>
    67b0:	a802      	add	r0, sp, #8
    67b2:	f840 8d08 	str.w	r8, [r0, #-8]!
    67b6:	f7ff fd94 	bl	62e2 <__lo0bits>
    67ba:	9b00      	ldr	r3, [sp, #0]
    67bc:	b148      	cbz	r0, 67d2 <__d2b+0x4c>
    67be:	9a01      	ldr	r2, [sp, #4]
    67c0:	f1c0 0120 	rsb	r1, r0, #32
    67c4:	fa02 f101 	lsl.w	r1, r2, r1
    67c8:	430b      	orrs	r3, r1
    67ca:	40c2      	lsrs	r2, r0
    67cc:	617b      	str	r3, [r7, #20]
    67ce:	9201      	str	r2, [sp, #4]
    67d0:	e000      	b.n	67d4 <__d2b+0x4e>
    67d2:	617b      	str	r3, [r7, #20]
    67d4:	9b01      	ldr	r3, [sp, #4]
    67d6:	2b00      	cmp	r3, #0
    67d8:	bf14      	ite	ne
    67da:	2102      	movne	r1, #2
    67dc:	2101      	moveq	r1, #1
    67de:	61bb      	str	r3, [r7, #24]
    67e0:	6139      	str	r1, [r7, #16]
    67e2:	e007      	b.n	67f4 <__d2b+0x6e>
    67e4:	a801      	add	r0, sp, #4
    67e6:	f7ff fd7c 	bl	62e2 <__lo0bits>
    67ea:	9b01      	ldr	r3, [sp, #4]
    67ec:	2101      	movs	r1, #1
    67ee:	617b      	str	r3, [r7, #20]
    67f0:	6139      	str	r1, [r7, #16]
    67f2:	3020      	adds	r0, #32
    67f4:	b134      	cbz	r4, 6804 <__d2b+0x7e>
    67f6:	f2a4 4433 	subw	r4, r4, #1075	; 0x433
    67fa:	4404      	add	r4, r0
    67fc:	6034      	str	r4, [r6, #0]
    67fe:	f1c0 0035 	rsb	r0, r0, #53	; 0x35
    6802:	e009      	b.n	6818 <__d2b+0x92>
    6804:	f2a0 4032 	subw	r0, r0, #1074	; 0x432
    6808:	eb07 0381 	add.w	r3, r7, r1, lsl #2
    680c:	6030      	str	r0, [r6, #0]
    680e:	6918      	ldr	r0, [r3, #16]
    6810:	f7ff fd47 	bl	62a2 <__hi0bits>
    6814:	ebc0 1041 	rsb	r0, r0, r1, lsl #5
    6818:	6028      	str	r0, [r5, #0]
    681a:	4638      	mov	r0, r7
    681c:	b002      	add	sp, #8
    681e:	e8bd 81f0 	ldmia.w	sp!, {r4, r5, r6, r7, r8, pc}

00006822 <__ratio>:
    6822:	e92d 43f7 	stmdb	sp!, {r0, r1, r2, r4, r5, r6, r7, r8, r9, lr}
    6826:	4688      	mov	r8, r1
    6828:	4669      	mov	r1, sp
    682a:	4681      	mov	r9, r0
    682c:	f7ff ff5e 	bl	66ec <__b2d>
    6830:	460d      	mov	r5, r1
    6832:	4604      	mov	r4, r0
    6834:	a901      	add	r1, sp, #4
    6836:	4640      	mov	r0, r8
    6838:	f7ff ff58 	bl	66ec <__b2d>
    683c:	460f      	mov	r7, r1
    683e:	4606      	mov	r6, r0
    6840:	f8d9 3010 	ldr.w	r3, [r9, #16]
    6844:	f8d8 2010 	ldr.w	r2, [r8, #16]
    6848:	4620      	mov	r0, r4
    684a:	1a9a      	subs	r2, r3, r2
    684c:	e89d 000a 	ldmia.w	sp, {r1, r3}
    6850:	1ac9      	subs	r1, r1, r3
    6852:	eb01 1342 	add.w	r3, r1, r2, lsl #5
    6856:	2b00      	cmp	r3, #0
    6858:	bfcc      	ite	gt
    685a:	eb05 5503 	addgt.w	r5, r5, r3, lsl #20
    685e:	eba7 5703 	suble.w	r7, r7, r3, lsl #20
    6862:	4632      	mov	r2, r6
    6864:	463b      	mov	r3, r7
    6866:	4629      	mov	r1, r5
    6868:	f000 fe80 	bl	756c <__aeabi_ddiv>
    686c:	b003      	add	sp, #12
    686e:	e8bd 83f0 	ldmia.w	sp!, {r4, r5, r6, r7, r8, r9, pc}

00006872 <__copybits>:
    6872:	3901      	subs	r1, #1
    6874:	b510      	push	{r4, lr}
    6876:	1149      	asrs	r1, r1, #5
    6878:	6914      	ldr	r4, [r2, #16]
    687a:	3101      	adds	r1, #1
    687c:	f102 0314 	add.w	r3, r2, #20
    6880:	eb00 0181 	add.w	r1, r0, r1, lsl #2
    6884:	eb03 0484 	add.w	r4, r3, r4, lsl #2
    6888:	42a3      	cmp	r3, r4
    688a:	4602      	mov	r2, r0
    688c:	d204      	bcs.n	6898 <__copybits+0x26>
    688e:	f853 2b04 	ldr.w	r2, [r3], #4
    6892:	f840 2b04 	str.w	r2, [r0], #4
    6896:	e7f7      	b.n	6888 <__copybits+0x16>
    6898:	2300      	movs	r3, #0
    689a:	428a      	cmp	r2, r1
    689c:	d202      	bcs.n	68a4 <__copybits+0x32>
    689e:	f842 3b04 	str.w	r3, [r2], #4
    68a2:	e7fa      	b.n	689a <__copybits+0x28>
    68a4:	bd10      	pop	{r4, pc}

000068a6 <__any_on>:
    68a6:	f100 0214 	add.w	r2, r0, #20
    68aa:	6900      	ldr	r0, [r0, #16]
    68ac:	114b      	asrs	r3, r1, #5
    68ae:	4298      	cmp	r0, r3
    68b0:	b510      	push	{r4, lr}
    68b2:	db0c      	blt.n	68ce <__any_on+0x28>
    68b4:	dd0c      	ble.n	68d0 <__any_on+0x2a>
    68b6:	f011 011f 	ands.w	r1, r1, #31
    68ba:	d009      	beq.n	68d0 <__any_on+0x2a>
    68bc:	f852 4023 	ldr.w	r4, [r2, r3, lsl #2]
    68c0:	fa24 f001 	lsr.w	r0, r4, r1
    68c4:	fa00 f101 	lsl.w	r1, r0, r1
    68c8:	428c      	cmp	r4, r1
    68ca:	d10c      	bne.n	68e6 <__any_on+0x40>
    68cc:	e000      	b.n	68d0 <__any_on+0x2a>
    68ce:	4603      	mov	r3, r0
    68d0:	eb02 0383 	add.w	r3, r2, r3, lsl #2
    68d4:	4293      	cmp	r3, r2
    68d6:	d904      	bls.n	68e2 <__any_on+0x3c>
    68d8:	f853 1d04 	ldr.w	r1, [r3, #-4]!
    68dc:	2900      	cmp	r1, #0
    68de:	d0f9      	beq.n	68d4 <__any_on+0x2e>
    68e0:	e001      	b.n	68e6 <__any_on+0x40>
    68e2:	2000      	movs	r0, #0
    68e4:	bd10      	pop	{r4, pc}
    68e6:	2001      	movs	r0, #1
    68e8:	bd10      	pop	{r4, pc}

000068ea <_calloc_r>:
    68ea:	b538      	push	{r3, r4, r5, lr}
    68ec:	fb02 f401 	mul.w	r4, r2, r1
    68f0:	4621      	mov	r1, r4
    68f2:	f7fb fe61 	bl	25b8 <_malloc_r>
    68f6:	4605      	mov	r5, r0
    68f8:	b118      	cbz	r0, 6902 <_calloc_r+0x18>
    68fa:	4622      	mov	r2, r4
    68fc:	2100      	movs	r1, #0
    68fe:	f7fb fe07 	bl	2510 <memset>
    6902:	4628      	mov	r0, r5
    6904:	bd38      	pop	{r3, r4, r5, pc}

00006906 <_realloc_r>:
    6906:	b5f8      	push	{r3, r4, r5, r6, r7, lr}
    6908:	4607      	mov	r7, r0
    690a:	4615      	mov	r5, r2
    690c:	460e      	mov	r6, r1
    690e:	b921      	cbnz	r1, 691a <_realloc_r+0x14>
    6910:	4611      	mov	r1, r2
    6912:	e8bd 40f8 	ldmia.w	sp!, {r3, r4, r5, r6, r7, lr}
    6916:	f7fb be4f 	b.w	25b8 <_malloc_r>
    691a:	b91a      	cbnz	r2, 6924 <_realloc_r+0x1e>
    691c:	f7fb fe00 	bl	2520 <_free_r>
    6920:	4628      	mov	r0, r5
    6922:	bdf8      	pop	{r3, r4, r5, r6, r7, pc}
    6924:	f000 fb35 	bl	6f92 <_malloc_usable_size_r>
    6928:	4285      	cmp	r5, r0
    692a:	d90e      	bls.n	694a <_realloc_r+0x44>
    692c:	4629      	mov	r1, r5
    692e:	4638      	mov	r0, r7
    6930:	f7fb fe42 	bl	25b8 <_malloc_r>
    6934:	4604      	mov	r4, r0
    6936:	b150      	cbz	r0, 694e <_realloc_r+0x48>
    6938:	4631      	mov	r1, r6
    693a:	462a      	mov	r2, r5
    693c:	f7fb fdc2 	bl	24c4 <memcpy>
    6940:	4631      	mov	r1, r6
    6942:	4638      	mov	r0, r7
    6944:	f7fb fdec 	bl	2520 <_free_r>
    6948:	e001      	b.n	694e <_realloc_r+0x48>
    694a:	4630      	mov	r0, r6
    694c:	bdf8      	pop	{r3, r4, r5, r6, r7, pc}
    694e:	4620      	mov	r0, r4
    6950:	bdf8      	pop	{r3, r4, r5, r6, r7, pc}

00006952 <__ssputs_r>:
    6952:	e92d 47f0 	stmdb	sp!, {r4, r5, r6, r7, r8, r9, r10, lr}
    6956:	688e      	ldr	r6, [r1, #8]
    6958:	4682      	mov	r10, r0
    695a:	429e      	cmp	r6, r3
    695c:	460c      	mov	r4, r1
    695e:	4691      	mov	r9, r2
    6960:	4698      	mov	r8, r3
    6962:	d83e      	bhi.n	69e2 <__ssputs_r+0x90>
    6964:	898a      	ldrh	r2, [r1, #12]
    6966:	f412 6f90 	tst.w	r2, #1152	; 0x480
    696a:	d03a      	beq.n	69e2 <__ssputs_r+0x90>
    696c:	6825      	ldr	r5, [r4, #0]
    696e:	6909      	ldr	r1, [r1, #16]
    6970:	2302      	movs	r3, #2
    6972:	1a6f      	subs	r7, r5, r1
    6974:	6965      	ldr	r5, [r4, #20]
    6976:	eb05 0545 	add.w	r5, r5, r5, lsl #1
    697a:	fb95 f5f3 	sdiv	r5, r5, r3
    697e:	1c7b      	adds	r3, r7, #1
    6980:	4443      	add	r3, r8
    6982:	429d      	cmp	r5, r3
    6984:	bf38      	it	cc
    6986:	461d      	movcc	r5, r3
    6988:	0553      	lsls	r3, r2, #21
    698a:	d50f      	bpl.n	69ac <__ssputs_r+0x5a>
    698c:	4629      	mov	r1, r5
    698e:	f7fb fe13 	bl	25b8 <_malloc_r>
    6992:	4606      	mov	r6, r0
    6994:	b198      	cbz	r0, 69be <__ssputs_r+0x6c>
    6996:	463a      	mov	r2, r7
    6998:	6921      	ldr	r1, [r4, #16]
    699a:	f7fb fd93 	bl	24c4 <memcpy>
    699e:	89a3      	ldrh	r3, [r4, #12]
    69a0:	f423 6390 	bic.w	r3, r3, #1152	; 0x480
    69a4:	f043 0380 	orr.w	r3, r3, #128	; 0x80
    69a8:	81a3      	strh	r3, [r4, #12]
    69aa:	e013      	b.n	69d4 <__ssputs_r+0x82>
    69ac:	462a      	mov	r2, r5
    69ae:	f7ff ffaa 	bl	6906 <_realloc_r>
    69b2:	4606      	mov	r6, r0
    69b4:	b970      	cbnz	r0, 69d4 <__ssputs_r+0x82>
    69b6:	6921      	ldr	r1, [r4, #16]
    69b8:	4650      	mov	r0, r10
    69ba:	f7fb fdb1 	bl	2520 <_free_r>
    69be:	230c      	movs	r3, #12
    69c0:	f8ca 3000 	str.w	r3, [r10]
    69c4:	89a3      	ldrh	r3, [r4, #12]
    69c6:	f04f 30ff 	mov.w	r0, #4294967295
    69ca:	f043 0340 	orr.w	r3, r3, #64	; 0x40
    69ce:	81a3      	strh	r3, [r4, #12]
    69d0:	e8bd 87f0 	ldmia.w	sp!, {r4, r5, r6, r7, r8, r9, r10, pc}
    69d4:	6126      	str	r6, [r4, #16]
    69d6:	443e      	add	r6, r7
    69d8:	6026      	str	r6, [r4, #0]
    69da:	4646      	mov	r6, r8
    69dc:	6165      	str	r5, [r4, #20]
    69de:	1bed      	subs	r5, r5, r7
    69e0:	60a5      	str	r5, [r4, #8]
    69e2:	4546      	cmp	r6, r8
    69e4:	bf28      	it	cs
    69e6:	4646      	movcs	r6, r8
    69e8:	4649      	mov	r1, r9
    69ea:	4632      	mov	r2, r6
    69ec:	6820      	ldr	r0, [r4, #0]
    69ee:	f7fb fd74 	bl	24da <memmove>
    69f2:	68a3      	ldr	r3, [r4, #8]
    69f4:	2000      	movs	r0, #0
    69f6:	1b9b      	subs	r3, r3, r6
    69f8:	60a3      	str	r3, [r4, #8]
    69fa:	6823      	ldr	r3, [r4, #0]
    69fc:	441e      	add	r6, r3
    69fe:	6026      	str	r6, [r4, #0]
    6a00:	e8bd 87f0 	ldmia.w	sp!, {r4, r5, r6, r7, r8, r9, r10, pc}

00006a04 <_svfiprintf_r>:
    6a04:	e92d 4ff0 	stmdb	sp!, {r4, r5, r6, r7, r8, r9, r10, r11, lr}
    6a08:	b09d      	sub	sp, #116	; 0x74
    6a0a:	9303      	str	r3, [sp, #12]
    6a0c:	898b      	ldrh	r3, [r1, #12]
    6a0e:	4680      	mov	r8, r0
    6a10:	061c      	lsls	r4, r3, #24
    6a12:	460d      	mov	r5, r1
    6a14:	4616      	mov	r6, r2
    6a16:	d50d      	bpl.n	6a34 <_svfiprintf_r+0x30>
    6a18:	690b      	ldr	r3, [r1, #16]
    6a1a:	b95b      	cbnz	r3, 6a34 <_svfiprintf_r+0x30>
    6a1c:	2140      	movs	r1, #64	; 0x40
    6a1e:	f7fb fdcb 	bl	25b8 <_malloc_r>
    6a22:	6028      	str	r0, [r5, #0]
    6a24:	6128      	str	r0, [r5, #16]
    6a26:	b918      	cbnz	r0, 6a30 <_svfiprintf_r+0x2c>
    6a28:	230c      	movs	r3, #12
    6a2a:	f8c8 3000 	str.w	r3, [r8]
    6a2e:	e0cd      	b.n	6bcc <_svfiprintf_r+0x1c8>
    6a30:	2340      	movs	r3, #64	; 0x40
    6a32:	616b      	str	r3, [r5, #20]
    6a34:	2300      	movs	r3, #0
    6a36:	9309      	str	r3, [sp, #36]	; 0x24
    6a38:	2320      	movs	r3, #32
    6a3a:	f88d 3029 	strb.w	r3, [sp, #41]	; 0x29
    6a3e:	f8df b19c 	ldr.w	r11, [pc, #412]	; 6bdc <_svfiprintf_r+0x1d8>
    6a42:	2330      	movs	r3, #48	; 0x30
    6a44:	f88d 302a 	strb.w	r3, [sp, #42]	; 0x2a
    6a48:	4637      	mov	r7, r6
    6a4a:	463c      	mov	r4, r7
    6a4c:	f814 3b01 	ldrb.w	r3, [r4], #1
    6a50:	b91b      	cbnz	r3, 6a5a <_svfiprintf_r+0x56>
    6a52:	ebb7 0906 	subs.w	r9, r7, r6
    6a56:	d010      	beq.n	6a7a <_svfiprintf_r+0x76>
    6a58:	e003      	b.n	6a62 <_svfiprintf_r+0x5e>
    6a5a:	2b25      	cmp	r3, #37	; 0x25
    6a5c:	d0f9      	beq.n	6a52 <_svfiprintf_r+0x4e>
    6a5e:	4627      	mov	r7, r4
    6a60:	e7f3      	b.n	6a4a <_svfiprintf_r+0x46>
    6a62:	464b      	mov	r3, r9
    6a64:	4632      	mov	r2, r6
    6a66:	4629      	mov	r1, r5
    6a68:	4640      	mov	r0, r8
    6a6a:	f7ff ff72 	bl	6952 <__ssputs_r>
    6a6e:	3001      	adds	r0, #1
    6a70:	f000 80a7 	beq.w	6bc2 <_svfiprintf_r+0x1be>
    6a74:	9b09      	ldr	r3, [sp, #36]	; 0x24
    6a76:	444b      	add	r3, r9
    6a78:	9309      	str	r3, [sp, #36]	; 0x24
    6a7a:	783b      	ldrb	r3, [r7, #0]
    6a7c:	2b00      	cmp	r3, #0
    6a7e:	f000 80a0 	beq.w	6bc2 <_svfiprintf_r+0x1be>
    6a82:	2300      	movs	r3, #0
    6a84:	f04f 32ff 	mov.w	r2, #4294967295
    6a88:	9304      	str	r3, [sp, #16]
    6a8a:	9307      	str	r3, [sp, #28]
    6a8c:	9205      	str	r2, [sp, #20]
    6a8e:	9306      	str	r3, [sp, #24]
    6a90:	f88d 3053 	strb.w	r3, [sp, #83]	; 0x53
    6a94:	931a      	str	r3, [sp, #104]	; 0x68
    6a96:	2601      	movs	r6, #1
    6a98:	2205      	movs	r2, #5
    6a9a:	7821      	ldrb	r1, [r4, #0]
    6a9c:	484e      	ldr	r0, [pc, #312]	; (6bd8 <_svfiprintf_r+0x1d4>)
    6a9e:	f7fb fd03 	bl	24a8 <memchr>
    6aa2:	1c67      	adds	r7, r4, #1
    6aa4:	9b04      	ldr	r3, [sp, #16]
    6aa6:	b138      	cbz	r0, 6ab8 <_svfiprintf_r+0xb4>
    6aa8:	4a4b      	ldr	r2, [pc, #300]	; (6bd8 <_svfiprintf_r+0x1d4>)
    6aaa:	463c      	mov	r4, r7
    6aac:	1a80      	subs	r0, r0, r2
    6aae:	fa06 f000 	lsl.w	r0, r6, r0
    6ab2:	4318      	orrs	r0, r3
    6ab4:	9004      	str	r0, [sp, #16]
    6ab6:	e7ef      	b.n	6a98 <_svfiprintf_r+0x94>
    6ab8:	06d9      	lsls	r1, r3, #27
    6aba:	bf44      	itt	mi
    6abc:	2220      	movmi	r2, #32
    6abe:	f88d 2053 	strbmi.w	r2, [sp, #83]	; 0x53
    6ac2:	071a      	lsls	r2, r3, #28
    6ac4:	bf44      	itt	mi
    6ac6:	222b      	movmi	r2, #43	; 0x2b
    6ac8:	f88d 2053 	strbmi.w	r2, [sp, #83]	; 0x53
    6acc:	7822      	ldrb	r2, [r4, #0]
    6ace:	2a2a      	cmp	r2, #42	; 0x2a
    6ad0:	d003      	beq.n	6ada <_svfiprintf_r+0xd6>
    6ad2:	9a07      	ldr	r2, [sp, #28]
    6ad4:	2100      	movs	r1, #0
    6ad6:	200a      	movs	r0, #10
    6ad8:	e00b      	b.n	6af2 <_svfiprintf_r+0xee>
    6ada:	9a03      	ldr	r2, [sp, #12]
    6adc:	1d11      	adds	r1, r2, #4
    6ade:	6812      	ldr	r2, [r2, #0]
    6ae0:	9103      	str	r1, [sp, #12]
    6ae2:	2a00      	cmp	r2, #0
    6ae4:	da10      	bge.n	6b08 <_svfiprintf_r+0x104>
    6ae6:	4252      	negs	r2, r2
    6ae8:	f043 0002 	orr.w	r0, r3, #2
    6aec:	9207      	str	r2, [sp, #28]
    6aee:	9004      	str	r0, [sp, #16]
    6af0:	e00b      	b.n	6b0a <_svfiprintf_r+0x106>
    6af2:	4627      	mov	r7, r4
    6af4:	783b      	ldrb	r3, [r7, #0]
    6af6:	3401      	adds	r4, #1
    6af8:	3b30      	subs	r3, #48	; 0x30
    6afa:	2b09      	cmp	r3, #9
    6afc:	d803      	bhi.n	6b06 <_svfiprintf_r+0x102>
    6afe:	fb00 3202 	mla	r2, r0, r2, r3
    6b02:	2101      	movs	r1, #1
    6b04:	e7f5      	b.n	6af2 <_svfiprintf_r+0xee>
    6b06:	b101      	cbz	r1, 6b0a <_svfiprintf_r+0x106>
    6b08:	9207      	str	r2, [sp, #28]
    6b0a:	783b      	ldrb	r3, [r7, #0]
    6b0c:	2b2e      	cmp	r3, #46	; 0x2e
    6b0e:	d11e      	bne.n	6b4e <_svfiprintf_r+0x14a>
    6b10:	787b      	ldrb	r3, [r7, #1]
    6b12:	2b2a      	cmp	r3, #42	; 0x2a
    6b14:	d10a      	bne.n	6b2c <_svfiprintf_r+0x128>
    6b16:	9b03      	ldr	r3, [sp, #12]
    6b18:	3702      	adds	r7, #2
    6b1a:	1d1a      	adds	r2, r3, #4
    6b1c:	681b      	ldr	r3, [r3, #0]
    6b1e:	9203      	str	r2, [sp, #12]
    6b20:	2b00      	cmp	r3, #0
    6b22:	bfb8      	it	lt
    6b24:	f04f 33ff 	movlt.w	r3, #4294967295
    6b28:	9305      	str	r3, [sp, #20]
    6b2a:	e010      	b.n	6b4e <_svfiprintf_r+0x14a>
    6b2c:	2300      	movs	r3, #0
    6b2e:	4619      	mov	r1, r3
    6b30:	9305      	str	r3, [sp, #20]
    6b32:	1c78      	adds	r0, r7, #1
    6b34:	240a      	movs	r4, #10
    6b36:	4607      	mov	r7, r0
    6b38:	783a      	ldrb	r2, [r7, #0]
    6b3a:	3001      	adds	r0, #1
    6b3c:	3a30      	subs	r2, #48	; 0x30
    6b3e:	2a09      	cmp	r2, #9
    6b40:	d803      	bhi.n	6b4a <_svfiprintf_r+0x146>
    6b42:	fb04 2101 	mla	r1, r4, r1, r2
    6b46:	2301      	movs	r3, #1
    6b48:	e7f5      	b.n	6b36 <_svfiprintf_r+0x132>
    6b4a:	b103      	cbz	r3, 6b4e <_svfiprintf_r+0x14a>
    6b4c:	9105      	str	r1, [sp, #20]
    6b4e:	2203      	movs	r2, #3
    6b50:	7839      	ldrb	r1, [r7, #0]
    6b52:	4822      	ldr	r0, [pc, #136]	; (6bdc <_svfiprintf_r+0x1d8>)
    6b54:	f7fb fca8 	bl	24a8 <memchr>
    6b58:	b140      	cbz	r0, 6b6c <_svfiprintf_r+0x168>
    6b5a:	2340      	movs	r3, #64	; 0x40
    6b5c:	ebcb 0000 	rsb	r0, r11, r0
    6b60:	fa03 f000 	lsl.w	r0, r3, r0
    6b64:	9b04      	ldr	r3, [sp, #16]
    6b66:	3701      	adds	r7, #1
    6b68:	4318      	orrs	r0, r3
    6b6a:	9004      	str	r0, [sp, #16]
    6b6c:	7839      	ldrb	r1, [r7, #0]
    6b6e:	2206      	movs	r2, #6
    6b70:	481b      	ldr	r0, [pc, #108]	; (6be0 <_svfiprintf_r+0x1dc>)
    6b72:	1c7e      	adds	r6, r7, #1
    6b74:	f88d 1028 	strb.w	r1, [sp, #40]	; 0x28
    6b78:	f7fb fc96 	bl	24a8 <memchr>
    6b7c:	b188      	cbz	r0, 6ba2 <_svfiprintf_r+0x19e>
    6b7e:	4b19      	ldr	r3, [pc, #100]	; (6be4 <_svfiprintf_r+0x1e0>)
    6b80:	b933      	cbnz	r3, 6b90 <_svfiprintf_r+0x18c>
    6b82:	9b03      	ldr	r3, [sp, #12]
    6b84:	3307      	adds	r3, #7
    6b86:	f023 0307 	bic.w	r3, r3, #7
    6b8a:	3308      	adds	r3, #8
    6b8c:	9303      	str	r3, [sp, #12]
    6b8e:	e014      	b.n	6bba <_svfiprintf_r+0x1b6>
    6b90:	ab03      	add	r3, sp, #12
    6b92:	9300      	str	r3, [sp, #0]
    6b94:	462a      	mov	r2, r5
    6b96:	4b14      	ldr	r3, [pc, #80]	; (6be8 <_svfiprintf_r+0x1e4>)
    6b98:	a904      	add	r1, sp, #16
    6b9a:	4640      	mov	r0, r8
    6b9c:	f7fb ff40 	bl	2a20 <_printf_float>
    6ba0:	e007      	b.n	6bb2 <_svfiprintf_r+0x1ae>
    6ba2:	ab03      	add	r3, sp, #12
    6ba4:	9300      	str	r3, [sp, #0]
    6ba6:	462a      	mov	r2, r5
    6ba8:	4b0f      	ldr	r3, [pc, #60]	; (6be8 <_svfiprintf_r+0x1e4>)
    6baa:	a904      	add	r1, sp, #16
    6bac:	4640      	mov	r0, r8
    6bae:	f7fc f9f1 	bl	2f94 <_printf_i>
    6bb2:	f1b0 3fff 	cmp.w	r0, #4294967295
    6bb6:	4682      	mov	r10, r0
    6bb8:	d003      	beq.n	6bc2 <_svfiprintf_r+0x1be>
    6bba:	9b09      	ldr	r3, [sp, #36]	; 0x24
    6bbc:	4453      	add	r3, r10
    6bbe:	9309      	str	r3, [sp, #36]	; 0x24
    6bc0:	e742      	b.n	6a48 <_svfiprintf_r+0x44>
    6bc2:	89ab      	ldrh	r3, [r5, #12]
    6bc4:	065b      	lsls	r3, r3, #25
    6bc6:	d401      	bmi.n	6bcc <_svfiprintf_r+0x1c8>
    6bc8:	9809      	ldr	r0, [sp, #36]	; 0x24
    6bca:	e001      	b.n	6bd0 <_svfiprintf_r+0x1cc>
    6bcc:	f04f 30ff 	mov.w	r0, #4294967295
    6bd0:	b01d      	add	sp, #116	; 0x74
    6bd2:	e8bd 8ff0 	ldmia.w	sp!, {r4, r5, r6, r7, r8, r9, r10, r11, pc}
    6bd6:	bf00      	nop
    6bd8:	00008550 	.word	0x00008550
    6bdc:	00008556 	.word	0x00008556
    6be0:	0000855a 	.word	0x0000855a
    6be4:	00002a21 	.word	0x00002a21
    6be8:	00006953 	.word	0x00006953

00006bec <_sungetc_r>:
    6bec:	1c4b      	adds	r3, r1, #1
    6bee:	b570      	push	{r4, r5, r6, lr}
    6bf0:	460d      	mov	r5, r1
    6bf2:	4614      	mov	r4, r2
    6bf4:	d102      	bne.n	6bfc <_sungetc_r+0x10>
    6bf6:	f04f 36ff 	mov.w	r6, #4294967295
    6bfa:	e033      	b.n	6c64 <_sungetc_r+0x78>
    6bfc:	8993      	ldrh	r3, [r2, #12]
    6bfe:	b2ce      	uxtb	r6, r1
    6c00:	f023 0320 	bic.w	r3, r3, #32
    6c04:	8193      	strh	r3, [r2, #12]
    6c06:	6b53      	ldr	r3, [r2, #52]	; 0x34
    6c08:	6852      	ldr	r2, [r2, #4]
    6c0a:	b183      	cbz	r3, 6c2e <_sungetc_r+0x42>
    6c0c:	6ba3      	ldr	r3, [r4, #56]	; 0x38
    6c0e:	429a      	cmp	r2, r3
    6c10:	da07      	bge.n	6c22 <_sungetc_r+0x36>
    6c12:	6823      	ldr	r3, [r4, #0]
    6c14:	1e5a      	subs	r2, r3, #1
    6c16:	6022      	str	r2, [r4, #0]
    6c18:	f803 5c01 	strb.w	r5, [r3, #-1]
    6c1c:	6863      	ldr	r3, [r4, #4]
    6c1e:	3301      	adds	r3, #1
    6c20:	e01f      	b.n	6c62 <_sungetc_r+0x76>
    6c22:	4621      	mov	r1, r4
    6c24:	f7fd ff6e 	bl	4b04 <__submore>
    6c28:	2800      	cmp	r0, #0
    6c2a:	d0f2      	beq.n	6c12 <_sungetc_r+0x26>
    6c2c:	e7e3      	b.n	6bf6 <_sungetc_r+0xa>
    6c2e:	6921      	ldr	r1, [r4, #16]
    6c30:	6823      	ldr	r3, [r4, #0]
    6c32:	b151      	cbz	r1, 6c4a <_sungetc_r+0x5e>
    6c34:	4299      	cmp	r1, r3
    6c36:	d208      	bcs.n	6c4a <_sungetc_r+0x5e>
    6c38:	f813 1c01 	ldrb.w	r1, [r3, #-1]
    6c3c:	428e      	cmp	r6, r1
    6c3e:	d104      	bne.n	6c4a <_sungetc_r+0x5e>
    6c40:	3b01      	subs	r3, #1
    6c42:	3201      	adds	r2, #1
    6c44:	6023      	str	r3, [r4, #0]
    6c46:	6062      	str	r2, [r4, #4]
    6c48:	e00c      	b.n	6c64 <_sungetc_r+0x78>
    6c4a:	63e3      	str	r3, [r4, #60]	; 0x3c
    6c4c:	f104 0344 	add.w	r3, r4, #68	; 0x44
    6c50:	6363      	str	r3, [r4, #52]	; 0x34
    6c52:	2303      	movs	r3, #3
    6c54:	63a3      	str	r3, [r4, #56]	; 0x38
    6c56:	4623      	mov	r3, r4
    6c58:	6422      	str	r2, [r4, #64]	; 0x40
    6c5a:	f803 5f46 	strb.w	r5, [r3, #70]!
    6c5e:	6023      	str	r3, [r4, #0]
    6c60:	2301      	movs	r3, #1
    6c62:	6063      	str	r3, [r4, #4]
    6c64:	4630      	mov	r0, r6
    6c66:	bd70      	pop	{r4, r5, r6, pc}

00006c68 <__ssrefill_r>:
    6c68:	b510      	push	{r4, lr}
    6c6a:	460c      	mov	r4, r1
    6c6c:	6b49      	ldr	r1, [r1, #52]	; 0x34
    6c6e:	b169      	cbz	r1, 6c8c <__ssrefill_r+0x24>
    6c70:	f104 0344 	add.w	r3, r4, #68	; 0x44
    6c74:	4299      	cmp	r1, r3
    6c76:	d001      	beq.n	6c7c <__ssrefill_r+0x14>
    6c78:	f7fb fc52 	bl	2520 <_free_r>
    6c7c:	6c23      	ldr	r3, [r4, #64]	; 0x40
    6c7e:	2000      	movs	r0, #0
    6c80:	6360      	str	r0, [r4, #52]	; 0x34
    6c82:	6063      	str	r3, [r4, #4]
    6c84:	b113      	cbz	r3, 6c8c <__ssrefill_r+0x24>
    6c86:	6be3      	ldr	r3, [r4, #60]	; 0x3c
    6c88:	6023      	str	r3, [r4, #0]
    6c8a:	bd10      	pop	{r4, pc}
    6c8c:	6923      	ldr	r3, [r4, #16]
    6c8e:	f04f 30ff 	mov.w	r0, #4294967295
    6c92:	6023      	str	r3, [r4, #0]
    6c94:	2300      	movs	r3, #0
    6c96:	6063      	str	r3, [r4, #4]
    6c98:	89a3      	ldrh	r3, [r4, #12]
    6c9a:	f043 0320 	orr.w	r3, r3, #32
    6c9e:	81a3      	strh	r3, [r4, #12]
    6ca0:	bd10      	pop	{r4, pc}
	...

00006ca4 <__ssvfiscanf_r>:
    6ca4:	e92d 4ff0 	stmdb	sp!, {r4, r5, r6, r7, r8, r9, r10, r11, lr}
    6ca8:	4607      	mov	r7, r0
    6caa:	460c      	mov	r4, r1
    6cac:	4693      	mov	r11, r2
    6cae:	f5ad 7d25 	sub.w	sp, sp, #660	; 0x294
    6cb2:	9301      	str	r3, [sp, #4]
    6cb4:	2300      	movs	r3, #0
    6cb6:	9346      	str	r3, [sp, #280]	; 0x118
    6cb8:	9347      	str	r3, [sp, #284]	; 0x11c
    6cba:	4ba2      	ldr	r3, [pc, #648]	; (6f44 <__ssvfiscanf_r+0x2a0>)
    6cbc:	f10d 090c 	add.w	r9, sp, #12
    6cc0:	93a2      	str	r3, [sp, #648]	; 0x288
    6cc2:	4ba1      	ldr	r3, [pc, #644]	; (6f48 <__ssvfiscanf_r+0x2a4>)
    6cc4:	f8df a284 	ldr.w	r10, [pc, #644]	; 6f4c <__ssvfiscanf_r+0x2a8>
    6cc8:	f8cd 9120 	str.w	r9, [sp, #288]	; 0x120
    6ccc:	93a3      	str	r3, [sp, #652]	; 0x28c
    6cce:	f04f 080a 	mov.w	r8, #10
    6cd2:	f89b 3000 	ldrb.w	r3, [r11]
    6cd6:	2b00      	cmp	r3, #0
    6cd8:	f000 812b 	beq.w	6f32 <__ssvfiscanf_r+0x28e>
    6cdc:	f7ff f9dc 	bl	6098 <__locale_ctype_ptr>
    6ce0:	f89b 5000 	ldrb.w	r5, [r11]
    6ce4:	4428      	add	r0, r5
    6ce6:	7843      	ldrb	r3, [r0, #1]
    6ce8:	f003 0308 	and.w	r3, r3, #8
    6cec:	f003 01ff 	and.w	r1, r3, #255	; 0xff
    6cf0:	b1eb      	cbz	r3, 6d2e <__ssvfiscanf_r+0x8a>
    6cf2:	6863      	ldr	r3, [r4, #4]
    6cf4:	2b00      	cmp	r3, #0
    6cf6:	dd10      	ble.n	6d1a <__ssvfiscanf_r+0x76>
    6cf8:	f7ff f9ce 	bl	6098 <__locale_ctype_ptr>
    6cfc:	6823      	ldr	r3, [r4, #0]
    6cfe:	7819      	ldrb	r1, [r3, #0]
    6d00:	4408      	add	r0, r1
    6d02:	7841      	ldrb	r1, [r0, #1]
    6d04:	070d      	lsls	r5, r1, #28
    6d06:	d50e      	bpl.n	6d26 <__ssvfiscanf_r+0x82>
    6d08:	9947      	ldr	r1, [sp, #284]	; 0x11c
    6d0a:	3301      	adds	r3, #1
    6d0c:	3101      	adds	r1, #1
    6d0e:	9147      	str	r1, [sp, #284]	; 0x11c
    6d10:	6861      	ldr	r1, [r4, #4]
    6d12:	6023      	str	r3, [r4, #0]
    6d14:	3901      	subs	r1, #1
    6d16:	6061      	str	r1, [r4, #4]
    6d18:	e7eb      	b.n	6cf2 <__ssvfiscanf_r+0x4e>
    6d1a:	9ba3      	ldr	r3, [sp, #652]	; 0x28c
    6d1c:	4621      	mov	r1, r4
    6d1e:	4638      	mov	r0, r7
    6d20:	4798      	blx	r3
    6d22:	2800      	cmp	r0, #0
    6d24:	d0e8      	beq.n	6cf8 <__ssvfiscanf_r+0x54>
    6d26:	f10b 0601 	add.w	r6, r11, #1
    6d2a:	46b3      	mov	r11, r6
    6d2c:	e7d1      	b.n	6cd2 <__ssvfiscanf_r+0x2e>
    6d2e:	2d25      	cmp	r5, #37	; 0x25
    6d30:	f10b 0601 	add.w	r6, r11, #1
    6d34:	d154      	bne.n	6de0 <__ssvfiscanf_r+0x13c>
    6d36:	9145      	str	r1, [sp, #276]	; 0x114
    6d38:	9143      	str	r1, [sp, #268]	; 0x10c
    6d3a:	f89b 3001 	ldrb.w	r3, [r11, #1]
    6d3e:	2b2a      	cmp	r3, #42	; 0x2a
    6d40:	d103      	bne.n	6d4a <__ssvfiscanf_r+0xa6>
    6d42:	2310      	movs	r3, #16
    6d44:	9343      	str	r3, [sp, #268]	; 0x10c
    6d46:	f10b 0602 	add.w	r6, r11, #2
    6d4a:	7831      	ldrb	r1, [r6, #0]
    6d4c:	4635      	mov	r5, r6
    6d4e:	f1a1 0330 	sub.w	r3, r1, #48	; 0x30
    6d52:	2b09      	cmp	r3, #9
    6d54:	f106 0601 	add.w	r6, r6, #1
    6d58:	d805      	bhi.n	6d66 <__ssvfiscanf_r+0xc2>
    6d5a:	9b45      	ldr	r3, [sp, #276]	; 0x114
    6d5c:	fb08 1303 	mla	r3, r8, r3, r1
    6d60:	3b30      	subs	r3, #48	; 0x30
    6d62:	9345      	str	r3, [sp, #276]	; 0x114
    6d64:	e7f1      	b.n	6d4a <__ssvfiscanf_r+0xa6>
    6d66:	2203      	movs	r2, #3
    6d68:	4878      	ldr	r0, [pc, #480]	; (6f4c <__ssvfiscanf_r+0x2a8>)
    6d6a:	f7fb fb9d 	bl	24a8 <memchr>
    6d6e:	b140      	cbz	r0, 6d82 <__ssvfiscanf_r+0xde>
    6d70:	4635      	mov	r5, r6
    6d72:	2301      	movs	r3, #1
    6d74:	ebca 0000 	rsb	r0, r10, r0
    6d78:	fa03 f000 	lsl.w	r0, r3, r0
    6d7c:	9b43      	ldr	r3, [sp, #268]	; 0x10c
    6d7e:	4303      	orrs	r3, r0
    6d80:	9343      	str	r3, [sp, #268]	; 0x10c
    6d82:	1c6e      	adds	r6, r5, #1
    6d84:	782d      	ldrb	r5, [r5, #0]
    6d86:	2d67      	cmp	r5, #103	; 0x67
    6d88:	d817      	bhi.n	6dba <__ssvfiscanf_r+0x116>
    6d8a:	2d65      	cmp	r5, #101	; 0x65
    6d8c:	f080 8081 	bcs.w	6e92 <__ssvfiscanf_r+0x1ee>
    6d90:	2d47      	cmp	r5, #71	; 0x47
    6d92:	d807      	bhi.n	6da4 <__ssvfiscanf_r+0x100>
    6d94:	2d45      	cmp	r5, #69	; 0x45
    6d96:	d27c      	bcs.n	6e92 <__ssvfiscanf_r+0x1ee>
    6d98:	2d00      	cmp	r5, #0
    6d9a:	f000 80cc 	beq.w	6f36 <__ssvfiscanf_r+0x292>
    6d9e:	2d25      	cmp	r5, #37	; 0x25
    6da0:	d01e      	beq.n	6de0 <__ssvfiscanf_r+0x13c>
    6da2:	e078      	b.n	6e96 <__ssvfiscanf_r+0x1f2>
    6da4:	2d5b      	cmp	r5, #91	; 0x5b
    6da6:	d052      	beq.n	6e4e <__ssvfiscanf_r+0x1aa>
    6da8:	d802      	bhi.n	6db0 <__ssvfiscanf_r+0x10c>
    6daa:	2d58      	cmp	r5, #88	; 0x58
    6dac:	d03e      	beq.n	6e2c <__ssvfiscanf_r+0x188>
    6dae:	e072      	b.n	6e96 <__ssvfiscanf_r+0x1f2>
    6db0:	2d63      	cmp	r5, #99	; 0x63
    6db2:	d058      	beq.n	6e66 <__ssvfiscanf_r+0x1c2>
    6db4:	2d64      	cmp	r5, #100	; 0x64
    6db6:	d03f      	beq.n	6e38 <__ssvfiscanf_r+0x194>
    6db8:	e06d      	b.n	6e96 <__ssvfiscanf_r+0x1f2>
    6dba:	2d70      	cmp	r5, #112	; 0x70
    6dbc:	d032      	beq.n	6e24 <__ssvfiscanf_r+0x180>
    6dbe:	d807      	bhi.n	6dd0 <__ssvfiscanf_r+0x12c>
    6dc0:	2d6e      	cmp	r5, #110	; 0x6e
    6dc2:	d056      	beq.n	6e72 <__ssvfiscanf_r+0x1ce>
    6dc4:	d83b      	bhi.n	6e3e <__ssvfiscanf_r+0x19a>
    6dc6:	2d69      	cmp	r5, #105	; 0x69
    6dc8:	d165      	bne.n	6e96 <__ssvfiscanf_r+0x1f2>
    6dca:	2300      	movs	r3, #0
    6dcc:	9344      	str	r3, [sp, #272]	; 0x110
    6dce:	e03c      	b.n	6e4a <__ssvfiscanf_r+0x1a6>
    6dd0:	2d75      	cmp	r5, #117	; 0x75
    6dd2:	d031      	beq.n	6e38 <__ssvfiscanf_r+0x194>
    6dd4:	2d78      	cmp	r5, #120	; 0x78
    6dd6:	d029      	beq.n	6e2c <__ssvfiscanf_r+0x188>
    6dd8:	2d73      	cmp	r5, #115	; 0x73
    6dda:	d15c      	bne.n	6e96 <__ssvfiscanf_r+0x1f2>
    6ddc:	2302      	movs	r3, #2
    6dde:	e040      	b.n	6e62 <__ssvfiscanf_r+0x1be>
    6de0:	6863      	ldr	r3, [r4, #4]
    6de2:	2b00      	cmp	r3, #0
    6de4:	dd0d      	ble.n	6e02 <__ssvfiscanf_r+0x15e>
    6de6:	6823      	ldr	r3, [r4, #0]
    6de8:	781a      	ldrb	r2, [r3, #0]
    6dea:	4295      	cmp	r5, r2
    6dec:	f040 80a1 	bne.w	6f32 <__ssvfiscanf_r+0x28e>
    6df0:	3301      	adds	r3, #1
    6df2:	6862      	ldr	r2, [r4, #4]
    6df4:	6023      	str	r3, [r4, #0]
    6df6:	9b47      	ldr	r3, [sp, #284]	; 0x11c
    6df8:	3a01      	subs	r2, #1
    6dfa:	3301      	adds	r3, #1
    6dfc:	6062      	str	r2, [r4, #4]
    6dfe:	9347      	str	r3, [sp, #284]	; 0x11c
    6e00:	e793      	b.n	6d2a <__ssvfiscanf_r+0x86>
    6e02:	9ba3      	ldr	r3, [sp, #652]	; 0x28c
    6e04:	4621      	mov	r1, r4
    6e06:	4638      	mov	r0, r7
    6e08:	4798      	blx	r3
    6e0a:	2800      	cmp	r0, #0
    6e0c:	d0eb      	beq.n	6de6 <__ssvfiscanf_r+0x142>
    6e0e:	9846      	ldr	r0, [sp, #280]	; 0x118
    6e10:	2800      	cmp	r0, #0
    6e12:	f000 8090 	beq.w	6f36 <__ssvfiscanf_r+0x292>
    6e16:	89a3      	ldrh	r3, [r4, #12]
    6e18:	f013 0f40 	tst.w	r3, #64	; 0x40
    6e1c:	bf18      	it	ne
    6e1e:	f04f 30ff 	movne.w	r0, #4294967295
    6e22:	e08a      	b.n	6f3a <__ssvfiscanf_r+0x296>
    6e24:	9b43      	ldr	r3, [sp, #268]	; 0x10c
    6e26:	f043 0320 	orr.w	r3, r3, #32
    6e2a:	9343      	str	r3, [sp, #268]	; 0x10c
    6e2c:	9b43      	ldr	r3, [sp, #268]	; 0x10c
    6e2e:	f443 7300 	orr.w	r3, r3, #512	; 0x200
    6e32:	9343      	str	r3, [sp, #268]	; 0x10c
    6e34:	2310      	movs	r3, #16
    6e36:	e003      	b.n	6e40 <__ssvfiscanf_r+0x19c>
    6e38:	f8cd 8110 	str.w	r8, [sp, #272]	; 0x110
    6e3c:	e001      	b.n	6e42 <__ssvfiscanf_r+0x19e>
    6e3e:	2308      	movs	r3, #8
    6e40:	9344      	str	r3, [sp, #272]	; 0x110
    6e42:	2d6e      	cmp	r5, #110	; 0x6e
    6e44:	dd01      	ble.n	6e4a <__ssvfiscanf_r+0x1a6>
    6e46:	2304      	movs	r3, #4
    6e48:	e00b      	b.n	6e62 <__ssvfiscanf_r+0x1be>
    6e4a:	2303      	movs	r3, #3
    6e4c:	e009      	b.n	6e62 <__ssvfiscanf_r+0x1be>
    6e4e:	4631      	mov	r1, r6
    6e50:	4648      	mov	r0, r9
    6e52:	f7fc fd1d 	bl	3890 <__sccl>
    6e56:	4606      	mov	r6, r0
    6e58:	9b43      	ldr	r3, [sp, #268]	; 0x10c
    6e5a:	f043 0340 	orr.w	r3, r3, #64	; 0x40
    6e5e:	9343      	str	r3, [sp, #268]	; 0x10c
    6e60:	2301      	movs	r3, #1
    6e62:	9349      	str	r3, [sp, #292]	; 0x124
    6e64:	e01b      	b.n	6e9e <__ssvfiscanf_r+0x1fa>
    6e66:	9b43      	ldr	r3, [sp, #268]	; 0x10c
    6e68:	f043 0340 	orr.w	r3, r3, #64	; 0x40
    6e6c:	9343      	str	r3, [sp, #268]	; 0x10c
    6e6e:	2300      	movs	r3, #0
    6e70:	e7f7      	b.n	6e62 <__ssvfiscanf_r+0x1be>
    6e72:	9a43      	ldr	r2, [sp, #268]	; 0x10c
    6e74:	06d0      	lsls	r0, r2, #27
    6e76:	f53f af58 	bmi.w	6d2a <__ssvfiscanf_r+0x86>
    6e7a:	f012 0f01 	tst.w	r2, #1
    6e7e:	9a01      	ldr	r2, [sp, #4]
    6e80:	9b47      	ldr	r3, [sp, #284]	; 0x11c
    6e82:	f102 0104 	add.w	r1, r2, #4
    6e86:	9101      	str	r1, [sp, #4]
    6e88:	6812      	ldr	r2, [r2, #0]
    6e8a:	bf14      	ite	ne
    6e8c:	8013      	strhne	r3, [r2, #0]
    6e8e:	6013      	streq	r3, [r2, #0]
    6e90:	e74b      	b.n	6d2a <__ssvfiscanf_r+0x86>
    6e92:	2305      	movs	r3, #5
    6e94:	e7e5      	b.n	6e62 <__ssvfiscanf_r+0x1be>
    6e96:	2303      	movs	r3, #3
    6e98:	9349      	str	r3, [sp, #292]	; 0x124
    6e9a:	f8cd 8110 	str.w	r8, [sp, #272]	; 0x110
    6e9e:	6863      	ldr	r3, [r4, #4]
    6ea0:	2b00      	cmp	r3, #0
    6ea2:	dd03      	ble.n	6eac <__ssvfiscanf_r+0x208>
    6ea4:	9b43      	ldr	r3, [sp, #268]	; 0x10c
    6ea6:	0659      	lsls	r1, r3, #25
    6ea8:	d511      	bpl.n	6ece <__ssvfiscanf_r+0x22a>
    6eaa:	e018      	b.n	6ede <__ssvfiscanf_r+0x23a>
    6eac:	9ba3      	ldr	r3, [sp, #652]	; 0x28c
    6eae:	4621      	mov	r1, r4
    6eb0:	4638      	mov	r0, r7
    6eb2:	4798      	blx	r3
    6eb4:	2800      	cmp	r0, #0
    6eb6:	d0f5      	beq.n	6ea4 <__ssvfiscanf_r+0x200>
    6eb8:	e7a9      	b.n	6e0e <__ssvfiscanf_r+0x16a>
    6eba:	9a47      	ldr	r2, [sp, #284]	; 0x11c
    6ebc:	3201      	adds	r2, #1
    6ebe:	9247      	str	r2, [sp, #284]	; 0x11c
    6ec0:	6862      	ldr	r2, [r4, #4]
    6ec2:	3a01      	subs	r2, #1
    6ec4:	2a00      	cmp	r2, #0
    6ec6:	6062      	str	r2, [r4, #4]
    6ec8:	dd13      	ble.n	6ef2 <__ssvfiscanf_r+0x24e>
    6eca:	3301      	adds	r3, #1
    6ecc:	6023      	str	r3, [r4, #0]
    6ece:	f7ff f8e3 	bl	6098 <__locale_ctype_ptr>
    6ed2:	6823      	ldr	r3, [r4, #0]
    6ed4:	781a      	ldrb	r2, [r3, #0]
    6ed6:	4410      	add	r0, r2
    6ed8:	7842      	ldrb	r2, [r0, #1]
    6eda:	0712      	lsls	r2, r2, #28
    6edc:	d4ed      	bmi.n	6eba <__ssvfiscanf_r+0x216>
    6ede:	9b49      	ldr	r3, [sp, #292]	; 0x124
    6ee0:	2b02      	cmp	r3, #2
    6ee2:	dc0d      	bgt.n	6f00 <__ssvfiscanf_r+0x25c>
    6ee4:	ab01      	add	r3, sp, #4
    6ee6:	4622      	mov	r2, r4
    6ee8:	a943      	add	r1, sp, #268	; 0x10c
    6eea:	4638      	mov	r0, r7
    6eec:	f7fc fb56 	bl	359c <_scanf_chars>
    6ef0:	e019      	b.n	6f26 <__ssvfiscanf_r+0x282>
    6ef2:	9ba3      	ldr	r3, [sp, #652]	; 0x28c
    6ef4:	4621      	mov	r1, r4
    6ef6:	4638      	mov	r0, r7
    6ef8:	4798      	blx	r3
    6efa:	2800      	cmp	r0, #0
    6efc:	d0e7      	beq.n	6ece <__ssvfiscanf_r+0x22a>
    6efe:	e786      	b.n	6e0e <__ssvfiscanf_r+0x16a>
    6f00:	2b04      	cmp	r3, #4
    6f02:	dc06      	bgt.n	6f12 <__ssvfiscanf_r+0x26e>
    6f04:	ab01      	add	r3, sp, #4
    6f06:	4622      	mov	r2, r4
    6f08:	a943      	add	r1, sp, #268	; 0x10c
    6f0a:	4638      	mov	r0, r7
    6f0c:	f7fc fbac 	bl	3668 <_scanf_i>
    6f10:	e009      	b.n	6f26 <__ssvfiscanf_r+0x282>
    6f12:	4b0f      	ldr	r3, [pc, #60]	; (6f50 <__ssvfiscanf_r+0x2ac>)
    6f14:	2b00      	cmp	r3, #0
    6f16:	f43f af08 	beq.w	6d2a <__ssvfiscanf_r+0x86>
    6f1a:	ab01      	add	r3, sp, #4
    6f1c:	4622      	mov	r2, r4
    6f1e:	a943      	add	r1, sp, #268	; 0x10c
    6f20:	4638      	mov	r0, r7
    6f22:	f7fc f95d 	bl	31e0 <_scanf_float>
    6f26:	2801      	cmp	r0, #1
    6f28:	d003      	beq.n	6f32 <__ssvfiscanf_r+0x28e>
    6f2a:	2802      	cmp	r0, #2
    6f2c:	f47f aefd 	bne.w	6d2a <__ssvfiscanf_r+0x86>
    6f30:	e76d      	b.n	6e0e <__ssvfiscanf_r+0x16a>
    6f32:	9846      	ldr	r0, [sp, #280]	; 0x118
    6f34:	e001      	b.n	6f3a <__ssvfiscanf_r+0x296>
    6f36:	f04f 30ff 	mov.w	r0, #4294967295
    6f3a:	f50d 7d25 	add.w	sp, sp, #660	; 0x294
    6f3e:	e8bd 8ff0 	ldmia.w	sp!, {r4, r5, r6, r7, r8, r9, r10, r11, pc}
    6f42:	bf00      	nop
    6f44:	00006bed 	.word	0x00006bed
    6f48:	00006c69 	.word	0x00006c69
    6f4c:	00008556 	.word	0x00008556
    6f50:	000031e1 	.word	0x000031e1

00006f54 <_read_r>:
    6f54:	b538      	push	{r3, r4, r5, lr}
    6f56:	4c07      	ldr	r4, [pc, #28]	; (6f74 <_read_r+0x20>)
    6f58:	4605      	mov	r5, r0
    6f5a:	4608      	mov	r0, r1
    6f5c:	4611      	mov	r1, r2
    6f5e:	2200      	movs	r2, #0
    6f60:	6022      	str	r2, [r4, #0]
    6f62:	461a      	mov	r2, r3
    6f64:	f7f9 fbfe 	bl	764 <_read>
    6f68:	1c43      	adds	r3, r0, #1
    6f6a:	d102      	bne.n	6f72 <_read_r+0x1e>
    6f6c:	6823      	ldr	r3, [r4, #0]
    6f6e:	b103      	cbz	r3, 6f72 <_read_r+0x1e>
    6f70:	602b      	str	r3, [r5, #0]
    6f72:	bd38      	pop	{r3, r4, r5, pc}
    6f74:	100004b0 	.word	0x100004b0

00006f78 <__ascii_wctomb>:
    6f78:	b149      	cbz	r1, 6f8e <__ascii_wctomb+0x16>
    6f7a:	2aff      	cmp	r2, #255	; 0xff
    6f7c:	bf85      	ittet	hi
    6f7e:	238a      	movhi	r3, #138	; 0x8a
    6f80:	6003      	strhi	r3, [r0, #0]
    6f82:	700a      	strbls	r2, [r1, #0]
    6f84:	f04f 30ff 	movhi.w	r0, #4294967295
    6f88:	bf98      	it	ls
    6f8a:	2001      	movls	r0, #1
    6f8c:	4770      	bx	lr
    6f8e:	4608      	mov	r0, r1
    6f90:	4770      	bx	lr

00006f92 <_malloc_usable_size_r>:
    6f92:	f851 0c04 	ldr.w	r0, [r1, #-4]
    6f96:	2800      	cmp	r0, #0
    6f98:	bfbe      	ittt	lt
    6f9a:	1809      	addlt	r1, r1, r0
    6f9c:	f851 3c04 	ldrlt.w	r3, [r1, #-4]
    6fa0:	18c0      	addlt	r0, r0, r3
    6fa2:	3804      	subs	r0, #4
    6fa4:	4770      	bx	lr
	...

00006fa8 <__aeabi_drsub>:
    6fa8:	f081 4100 	eor.w	r1, r1, #2147483648	; 0x80000000
    6fac:	e002      	b.n	6fb4 <__adddf3>
    6fae:	bf00      	nop

00006fb0 <__aeabi_dsub>:
    6fb0:	f083 4300 	eor.w	r3, r3, #2147483648	; 0x80000000

00006fb4 <__adddf3>:
    6fb4:	b530      	push	{r4, r5, lr}
    6fb6:	ea4f 0441 	mov.w	r4, r1, lsl #1
    6fba:	ea4f 0543 	mov.w	r5, r3, lsl #1
    6fbe:	ea94 0f05 	teq	r4, r5
    6fc2:	bf08      	it	eq
    6fc4:	ea90 0f02 	teqeq	r0, r2
    6fc8:	bf1f      	itttt	ne
    6fca:	ea54 0c00 	orrsne.w	r12, r4, r0
    6fce:	ea55 0c02 	orrsne.w	r12, r5, r2
    6fd2:	ea7f 5c64 	mvnsne.w	r12, r4, asr #21
    6fd6:	ea7f 5c65 	mvnsne.w	r12, r5, asr #21
    6fda:	f000 80e2 	beq.w	71a2 <__adddf3+0x1ee>
    6fde:	ea4f 5454 	mov.w	r4, r4, lsr #21
    6fe2:	ebd4 5555 	rsbs	r5, r4, r5, lsr #21
    6fe6:	bfb8      	it	lt
    6fe8:	426d      	neglt	r5, r5
    6fea:	dd0c      	ble.n	7006 <__adddf3+0x52>
    6fec:	442c      	add	r4, r5
    6fee:	ea80 0202 	eor.w	r2, r0, r2
    6ff2:	ea81 0303 	eor.w	r3, r1, r3
    6ff6:	ea82 0000 	eor.w	r0, r2, r0
    6ffa:	ea83 0101 	eor.w	r1, r3, r1
    6ffe:	ea80 0202 	eor.w	r2, r0, r2
    7002:	ea81 0303 	eor.w	r3, r1, r3
    7006:	2d36      	cmp	r5, #54	; 0x36
    7008:	bf88      	it	hi
    700a:	bd30      	pophi	{r4, r5, pc}
    700c:	f011 4f00 	tst.w	r1, #2147483648	; 0x80000000
    7010:	ea4f 3101 	mov.w	r1, r1, lsl #12
    7014:	f44f 1c80 	mov.w	r12, #1048576	; 0x100000
    7018:	ea4c 3111 	orr.w	r1, r12, r1, lsr #12
    701c:	d002      	beq.n	7024 <__adddf3+0x70>
    701e:	4240      	negs	r0, r0
    7020:	eb61 0141 	sbc.w	r1, r1, r1, lsl #1
    7024:	f013 4f00 	tst.w	r3, #2147483648	; 0x80000000
    7028:	ea4f 3303 	mov.w	r3, r3, lsl #12
    702c:	ea4c 3313 	orr.w	r3, r12, r3, lsr #12
    7030:	d002      	beq.n	7038 <__adddf3+0x84>
    7032:	4252      	negs	r2, r2
    7034:	eb63 0343 	sbc.w	r3, r3, r3, lsl #1
    7038:	ea94 0f05 	teq	r4, r5
    703c:	f000 80a7 	beq.w	718e <__adddf3+0x1da>
    7040:	f1a4 0401 	sub.w	r4, r4, #1
    7044:	f1d5 0e20 	rsbs	lr, r5, #32
    7048:	db0d      	blt.n	7066 <__adddf3+0xb2>
    704a:	fa02 fc0e 	lsl.w	r12, r2, lr
    704e:	fa22 f205 	lsr.w	r2, r2, r5
    7052:	1880      	adds	r0, r0, r2
    7054:	f141 0100 	adc.w	r1, r1, #0
    7058:	fa03 f20e 	lsl.w	r2, r3, lr
    705c:	1880      	adds	r0, r0, r2
    705e:	fa43 f305 	asr.w	r3, r3, r5
    7062:	4159      	adcs	r1, r3
    7064:	e00e      	b.n	7084 <__adddf3+0xd0>
    7066:	f1a5 0520 	sub.w	r5, r5, #32
    706a:	f10e 0e20 	add.w	lr, lr, #32
    706e:	2a01      	cmp	r2, #1
    7070:	fa03 fc0e 	lsl.w	r12, r3, lr
    7074:	bf28      	it	cs
    7076:	f04c 0c02 	orrcs.w	r12, r12, #2
    707a:	fa43 f305 	asr.w	r3, r3, r5
    707e:	18c0      	adds	r0, r0, r3
    7080:	eb51 71e3 	adcs.w	r1, r1, r3, asr #31
    7084:	f001 4500 	and.w	r5, r1, #2147483648	; 0x80000000
    7088:	d507      	bpl.n	709a <__adddf3+0xe6>
    708a:	f04f 0e00 	mov.w	lr, #0
    708e:	f1dc 0c00 	rsbs	r12, r12, #0
    7092:	eb7e 0000 	sbcs.w	r0, lr, r0
    7096:	eb6e 0101 	sbc.w	r1, lr, r1
    709a:	f5b1 1f80 	cmp.w	r1, #1048576	; 0x100000
    709e:	d31b      	bcc.n	70d8 <__adddf3+0x124>
    70a0:	f5b1 1f00 	cmp.w	r1, #2097152	; 0x200000
    70a4:	d30c      	bcc.n	70c0 <__adddf3+0x10c>
    70a6:	0849      	lsrs	r1, r1, #1
    70a8:	ea5f 0030 	movs.w	r0, r0, rrx
    70ac:	ea4f 0c3c 	mov.w	r12, r12, rrx
    70b0:	f104 0401 	add.w	r4, r4, #1
    70b4:	ea4f 5244 	mov.w	r2, r4, lsl #21
    70b8:	f512 0f80 	cmn.w	r2, #4194304	; 0x400000
    70bc:	f080 809a 	bcs.w	71f4 <__adddf3+0x240>
    70c0:	f1bc 4f00 	cmp.w	r12, #2147483648	; 0x80000000
    70c4:	bf08      	it	eq
    70c6:	ea5f 0c50 	movseq.w	r12, r0, lsr #1
    70ca:	f150 0000 	adcs.w	r0, r0, #0
    70ce:	eb41 5104 	adc.w	r1, r1, r4, lsl #20
    70d2:	ea41 0105 	orr.w	r1, r1, r5
    70d6:	bd30      	pop	{r4, r5, pc}
    70d8:	ea5f 0c4c 	movs.w	r12, r12, lsl #1
    70dc:	4140      	adcs	r0, r0
    70de:	eb41 0101 	adc.w	r1, r1, r1
    70e2:	f411 1f80 	tst.w	r1, #1048576	; 0x100000
    70e6:	f1a4 0401 	sub.w	r4, r4, #1
    70ea:	d1e9      	bne.n	70c0 <__adddf3+0x10c>
    70ec:	f091 0f00 	teq	r1, #0
    70f0:	bf04      	itt	eq
    70f2:	4601      	moveq	r1, r0
    70f4:	2000      	moveq	r0, #0
    70f6:	fab1 f381 	clz	r3, r1
    70fa:	bf08      	it	eq
    70fc:	3320      	addeq	r3, #32
    70fe:	f1a3 030b 	sub.w	r3, r3, #11
    7102:	f1b3 0220 	subs.w	r2, r3, #32
    7106:	da0c      	bge.n	7122 <__adddf3+0x16e>
    7108:	320c      	adds	r2, #12
    710a:	dd08      	ble.n	711e <__adddf3+0x16a>
    710c:	f102 0c14 	add.w	r12, r2, #20
    7110:	f1c2 020c 	rsb	r2, r2, #12
    7114:	fa01 f00c 	lsl.w	r0, r1, r12
    7118:	fa21 f102 	lsr.w	r1, r1, r2
    711c:	e00c      	b.n	7138 <__adddf3+0x184>
    711e:	f102 0214 	add.w	r2, r2, #20
    7122:	bfd8      	it	le
    7124:	f1c2 0c20 	rsble	r12, r2, #32
    7128:	fa01 f102 	lsl.w	r1, r1, r2
    712c:	fa20 fc0c 	lsr.w	r12, r0, r12
    7130:	bfdc      	itt	le
    7132:	ea41 010c 	orrle.w	r1, r1, r12
    7136:	4090      	lslle	r0, r2
    7138:	1ae4      	subs	r4, r4, r3
    713a:	bfa2      	ittt	ge
    713c:	eb01 5104 	addge.w	r1, r1, r4, lsl #20
    7140:	4329      	orrge	r1, r5
    7142:	bd30      	popge	{r4, r5, pc}
    7144:	ea6f 0404 	mvn.w	r4, r4
    7148:	3c1f      	subs	r4, #31
    714a:	da1c      	bge.n	7186 <__adddf3+0x1d2>
    714c:	340c      	adds	r4, #12
    714e:	dc0e      	bgt.n	716e <__adddf3+0x1ba>
    7150:	f104 0414 	add.w	r4, r4, #20
    7154:	f1c4 0220 	rsb	r2, r4, #32
    7158:	fa20 f004 	lsr.w	r0, r0, r4
    715c:	fa01 f302 	lsl.w	r3, r1, r2
    7160:	ea40 0003 	orr.w	r0, r0, r3
    7164:	fa21 f304 	lsr.w	r3, r1, r4
    7168:	ea45 0103 	orr.w	r1, r5, r3
    716c:	bd30      	pop	{r4, r5, pc}
    716e:	f1c4 040c 	rsb	r4, r4, #12
    7172:	f1c4 0220 	rsb	r2, r4, #32
    7176:	fa20 f002 	lsr.w	r0, r0, r2
    717a:	fa01 f304 	lsl.w	r3, r1, r4
    717e:	ea40 0003 	orr.w	r0, r0, r3
    7182:	4629      	mov	r1, r5
    7184:	bd30      	pop	{r4, r5, pc}
    7186:	fa21 f004 	lsr.w	r0, r1, r4
    718a:	4629      	mov	r1, r5
    718c:	bd30      	pop	{r4, r5, pc}
    718e:	f094 0f00 	teq	r4, #0
    7192:	f483 1380 	eor.w	r3, r3, #1048576	; 0x100000
    7196:	bf06      	itte	eq
    7198:	f481 1180 	eoreq.w	r1, r1, #1048576	; 0x100000
    719c:	3401      	addeq	r4, #1
    719e:	3d01      	subne	r5, #1
    71a0:	e74e      	b.n	7040 <__adddf3+0x8c>
    71a2:	ea7f 5c64 	mvns.w	r12, r4, asr #21
    71a6:	bf18      	it	ne
    71a8:	ea7f 5c65 	mvnsne.w	r12, r5, asr #21
    71ac:	d029      	beq.n	7202 <__adddf3+0x24e>
    71ae:	ea94 0f05 	teq	r4, r5
    71b2:	bf08      	it	eq
    71b4:	ea90 0f02 	teqeq	r0, r2
    71b8:	d005      	beq.n	71c6 <__adddf3+0x212>
    71ba:	ea54 0c00 	orrs.w	r12, r4, r0
    71be:	bf04      	itt	eq
    71c0:	4619      	moveq	r1, r3
    71c2:	4610      	moveq	r0, r2
    71c4:	bd30      	pop	{r4, r5, pc}
    71c6:	ea91 0f03 	teq	r1, r3
    71ca:	bf1e      	ittt	ne
    71cc:	2100      	movne	r1, #0
    71ce:	2000      	movne	r0, #0
    71d0:	bd30      	popne	{r4, r5, pc}
    71d2:	ea5f 5c54 	movs.w	r12, r4, lsr #21
    71d6:	d105      	bne.n	71e4 <__adddf3+0x230>
    71d8:	0040      	lsls	r0, r0, #1
    71da:	4149      	adcs	r1, r1
    71dc:	bf28      	it	cs
    71de:	f041 4100 	orrcs.w	r1, r1, #2147483648	; 0x80000000
    71e2:	bd30      	pop	{r4, r5, pc}
    71e4:	f514 0480 	adds.w	r4, r4, #4194304	; 0x400000
    71e8:	bf3c      	itt	cc
    71ea:	f501 1180 	addcc.w	r1, r1, #1048576	; 0x100000
    71ee:	bd30      	popcc	{r4, r5, pc}
    71f0:	f001 4500 	and.w	r5, r1, #2147483648	; 0x80000000
    71f4:	f045 41fe 	orr.w	r1, r5, #2130706432	; 0x7f000000
    71f8:	f441 0170 	orr.w	r1, r1, #15728640	; 0xf00000
    71fc:	f04f 0000 	mov.w	r0, #0
    7200:	bd30      	pop	{r4, r5, pc}
    7202:	ea7f 5c64 	mvns.w	r12, r4, asr #21
    7206:	bf1a      	itte	ne
    7208:	4619      	movne	r1, r3
    720a:	4610      	movne	r0, r2
    720c:	ea7f 5c65 	mvnseq.w	r12, r5, asr #21
    7210:	bf1c      	itt	ne
    7212:	460b      	movne	r3, r1
    7214:	4602      	movne	r2, r0
    7216:	ea50 3401 	orrs.w	r4, r0, r1, lsl #12
    721a:	bf06      	itte	eq
    721c:	ea52 3503 	orrseq.w	r5, r2, r3, lsl #12
    7220:	ea91 0f03 	teqeq	r1, r3
    7224:	f441 2100 	orrne.w	r1, r1, #524288	; 0x80000
    7228:	bd30      	pop	{r4, r5, pc}
    722a:	bf00      	nop

0000722c <__aeabi_ui2d>:
    722c:	f090 0f00 	teq	r0, #0
    7230:	bf04      	itt	eq
    7232:	2100      	moveq	r1, #0
    7234:	4770      	bxeq	lr
    7236:	b530      	push	{r4, r5, lr}
    7238:	f44f 6480 	mov.w	r4, #1024	; 0x400
    723c:	f104 0432 	add.w	r4, r4, #50	; 0x32
    7240:	f04f 0500 	mov.w	r5, #0
    7244:	f04f 0100 	mov.w	r1, #0
    7248:	e750      	b.n	70ec <__adddf3+0x138>
    724a:	bf00      	nop

0000724c <__aeabi_i2d>:
    724c:	f090 0f00 	teq	r0, #0
    7250:	bf04      	itt	eq
    7252:	2100      	moveq	r1, #0
    7254:	4770      	bxeq	lr
    7256:	b530      	push	{r4, r5, lr}
    7258:	f44f 6480 	mov.w	r4, #1024	; 0x400
    725c:	f104 0432 	add.w	r4, r4, #50	; 0x32
    7260:	f010 4500 	ands.w	r5, r0, #2147483648	; 0x80000000
    7264:	bf48      	it	mi
    7266:	4240      	negmi	r0, r0
    7268:	f04f 0100 	mov.w	r1, #0
    726c:	e73e      	b.n	70ec <__adddf3+0x138>
    726e:	bf00      	nop

00007270 <__aeabi_f2d>:
    7270:	0042      	lsls	r2, r0, #1
    7272:	ea4f 01e2 	mov.w	r1, r2, asr #3
    7276:	ea4f 0131 	mov.w	r1, r1, rrx
    727a:	ea4f 7002 	mov.w	r0, r2, lsl #28
    727e:	bf1f      	itttt	ne
    7280:	f012 437f 	andsne.w	r3, r2, #4278190080	; 0xff000000
    7284:	f093 4f7f 	teqne	r3, #4278190080	; 0xff000000
    7288:	f081 5160 	eorne.w	r1, r1, #939524096	; 0x38000000
    728c:	4770      	bxne	lr
    728e:	f092 0f00 	teq	r2, #0
    7292:	bf14      	ite	ne
    7294:	f093 4f7f 	teqne	r3, #4278190080	; 0xff000000
    7298:	4770      	bxeq	lr
    729a:	b530      	push	{r4, r5, lr}
    729c:	f44f 7460 	mov.w	r4, #896	; 0x380
    72a0:	f001 4500 	and.w	r5, r1, #2147483648	; 0x80000000
    72a4:	f021 4100 	bic.w	r1, r1, #2147483648	; 0x80000000
    72a8:	e720      	b.n	70ec <__adddf3+0x138>
    72aa:	bf00      	nop

000072ac <__aeabi_ul2d>:
    72ac:	ea50 0201 	orrs.w	r2, r0, r1
    72b0:	bf08      	it	eq
    72b2:	4770      	bxeq	lr
    72b4:	b530      	push	{r4, r5, lr}
    72b6:	f04f 0500 	mov.w	r5, #0
    72ba:	e00a      	b.n	72d2 <__aeabi_l2d+0x16>

000072bc <__aeabi_l2d>:
    72bc:	ea50 0201 	orrs.w	r2, r0, r1
    72c0:	bf08      	it	eq
    72c2:	4770      	bxeq	lr
    72c4:	b530      	push	{r4, r5, lr}
    72c6:	f011 4500 	ands.w	r5, r1, #2147483648	; 0x80000000
    72ca:	d502      	bpl.n	72d2 <__aeabi_l2d+0x16>
    72cc:	4240      	negs	r0, r0
    72ce:	eb61 0141 	sbc.w	r1, r1, r1, lsl #1
    72d2:	f44f 6480 	mov.w	r4, #1024	; 0x400
    72d6:	f104 0432 	add.w	r4, r4, #50	; 0x32
    72da:	ea5f 5c91 	movs.w	r12, r1, lsr #22
    72de:	f43f aedc 	beq.w	709a <__adddf3+0xe6>
    72e2:	f04f 0203 	mov.w	r2, #3
    72e6:	ea5f 0cdc 	movs.w	r12, r12, lsr #3
    72ea:	bf18      	it	ne
    72ec:	3203      	addne	r2, #3
    72ee:	ea5f 0cdc 	movs.w	r12, r12, lsr #3
    72f2:	bf18      	it	ne
    72f4:	3203      	addne	r2, #3
    72f6:	eb02 02dc 	add.w	r2, r2, r12, lsr #3
    72fa:	f1c2 0320 	rsb	r3, r2, #32
    72fe:	fa00 fc03 	lsl.w	r12, r0, r3
    7302:	fa20 f002 	lsr.w	r0, r0, r2
    7306:	fa01 fe03 	lsl.w	lr, r1, r3
    730a:	ea40 000e 	orr.w	r0, r0, lr
    730e:	fa21 f102 	lsr.w	r1, r1, r2
    7312:	4414      	add	r4, r2
    7314:	e6c1      	b.n	709a <__adddf3+0xe6>
    7316:	bf00      	nop

00007318 <__aeabi_dmul>:
    7318:	b570      	push	{r4, r5, r6, lr}
    731a:	f04f 0cff 	mov.w	r12, #255	; 0xff
    731e:	f44c 6ce0 	orr.w	r12, r12, #1792	; 0x700
    7322:	ea1c 5411 	ands.w	r4, r12, r1, lsr #20
    7326:	bf1d      	ittte	ne
    7328:	ea1c 5513 	andsne.w	r5, r12, r3, lsr #20
    732c:	ea94 0f0c 	teqne	r4, r12
    7330:	ea95 0f0c 	teqne	r5, r12
    7334:	f000 f8de 	bleq	74f4 <__aeabi_dmul+0x1dc>
    7338:	442c      	add	r4, r5
    733a:	ea81 0603 	eor.w	r6, r1, r3
    733e:	ea21 514c 	bic.w	r1, r1, r12, lsl #21
    7342:	ea23 534c 	bic.w	r3, r3, r12, lsl #21
    7346:	ea50 3501 	orrs.w	r5, r0, r1, lsl #12
    734a:	bf18      	it	ne
    734c:	ea52 3503 	orrsne.w	r5, r2, r3, lsl #12
    7350:	f441 1180 	orr.w	r1, r1, #1048576	; 0x100000
    7354:	f443 1380 	orr.w	r3, r3, #1048576	; 0x100000
    7358:	d038      	beq.n	73cc <__aeabi_dmul+0xb4>
    735a:	fba0 ce02 	umull	r12, lr, r0, r2
    735e:	f04f 0500 	mov.w	r5, #0
    7362:	fbe1 e502 	umlal	lr, r5, r1, r2
    7366:	f006 4200 	and.w	r2, r6, #2147483648	; 0x80000000
    736a:	fbe0 e503 	umlal	lr, r5, r0, r3
    736e:	f04f 0600 	mov.w	r6, #0
    7372:	fbe1 5603 	umlal	r5, r6, r1, r3
    7376:	f09c 0f00 	teq	r12, #0
    737a:	bf18      	it	ne
    737c:	f04e 0e01 	orrne.w	lr, lr, #1
    7380:	f1a4 04ff 	sub.w	r4, r4, #255	; 0xff
    7384:	f5b6 7f00 	cmp.w	r6, #512	; 0x200
    7388:	f564 7440 	sbc.w	r4, r4, #768	; 0x300
    738c:	d204      	bcs.n	7398 <__aeabi_dmul+0x80>
    738e:	ea5f 0e4e 	movs.w	lr, lr, lsl #1
    7392:	416d      	adcs	r5, r5
    7394:	eb46 0606 	adc.w	r6, r6, r6
    7398:	ea42 21c6 	orr.w	r1, r2, r6, lsl #11
    739c:	ea41 5155 	orr.w	r1, r1, r5, lsr #21
    73a0:	ea4f 20c5 	mov.w	r0, r5, lsl #11
    73a4:	ea40 505e 	orr.w	r0, r0, lr, lsr #21
    73a8:	ea4f 2ece 	mov.w	lr, lr, lsl #11
    73ac:	f1b4 0cfd 	subs.w	r12, r4, #253	; 0xfd
    73b0:	bf88      	it	hi
    73b2:	f5bc 6fe0 	cmphi.w	r12, #1792	; 0x700
    73b6:	d81e      	bhi.n	73f6 <__aeabi_dmul+0xde>
    73b8:	f1be 4f00 	cmp.w	lr, #2147483648	; 0x80000000
    73bc:	bf08      	it	eq
    73be:	ea5f 0e50 	movseq.w	lr, r0, lsr #1
    73c2:	f150 0000 	adcs.w	r0, r0, #0
    73c6:	eb41 5104 	adc.w	r1, r1, r4, lsl #20
    73ca:	bd70      	pop	{r4, r5, r6, pc}
    73cc:	f006 4600 	and.w	r6, r6, #2147483648	; 0x80000000
    73d0:	ea46 0101 	orr.w	r1, r6, r1
    73d4:	ea40 0002 	orr.w	r0, r0, r2
    73d8:	ea81 0103 	eor.w	r1, r1, r3
    73dc:	ebb4 045c 	subs.w	r4, r4, r12, lsr #1
    73e0:	bfc2      	ittt	gt
    73e2:	ebd4 050c 	rsbsgt	r5, r4, r12
    73e6:	ea41 5104 	orrgt.w	r1, r1, r4, lsl #20
    73ea:	bd70      	popgt	{r4, r5, r6, pc}
    73ec:	f441 1180 	orr.w	r1, r1, #1048576	; 0x100000
    73f0:	f04f 0e00 	mov.w	lr, #0
    73f4:	3c01      	subs	r4, #1
    73f6:	f300 80ab 	bgt.w	7550 <__aeabi_dmul+0x238>
    73fa:	f114 0f36 	cmn.w	r4, #54	; 0x36
    73fe:	bfde      	ittt	le
    7400:	2000      	movle	r0, #0
    7402:	f001 4100 	andle.w	r1, r1, #2147483648	; 0x80000000
    7406:	bd70      	pople	{r4, r5, r6, pc}
    7408:	f1c4 0400 	rsb	r4, r4, #0
    740c:	3c20      	subs	r4, #32
    740e:	da35      	bge.n	747c <__aeabi_dmul+0x164>
    7410:	340c      	adds	r4, #12
    7412:	dc1b      	bgt.n	744c <__aeabi_dmul+0x134>
    7414:	f104 0414 	add.w	r4, r4, #20
    7418:	f1c4 0520 	rsb	r5, r4, #32
    741c:	fa00 f305 	lsl.w	r3, r0, r5
    7420:	fa20 f004 	lsr.w	r0, r0, r4
    7424:	fa01 f205 	lsl.w	r2, r1, r5
    7428:	ea40 0002 	orr.w	r0, r0, r2
    742c:	f001 4200 	and.w	r2, r1, #2147483648	; 0x80000000
    7430:	f021 4100 	bic.w	r1, r1, #2147483648	; 0x80000000
    7434:	eb10 70d3 	adds.w	r0, r0, r3, lsr #31
    7438:	fa21 f604 	lsr.w	r6, r1, r4
    743c:	eb42 0106 	adc.w	r1, r2, r6
    7440:	ea5e 0e43 	orrs.w	lr, lr, r3, lsl #1
    7444:	bf08      	it	eq
    7446:	ea20 70d3 	biceq.w	r0, r0, r3, lsr #31
    744a:	bd70      	pop	{r4, r5, r6, pc}
    744c:	f1c4 040c 	rsb	r4, r4, #12
    7450:	f1c4 0520 	rsb	r5, r4, #32
    7454:	fa00 f304 	lsl.w	r3, r0, r4
    7458:	fa20 f005 	lsr.w	r0, r0, r5
    745c:	fa01 f204 	lsl.w	r2, r1, r4
    7460:	ea40 0002 	orr.w	r0, r0, r2
    7464:	f001 4100 	and.w	r1, r1, #2147483648	; 0x80000000
    7468:	eb10 70d3 	adds.w	r0, r0, r3, lsr #31
    746c:	f141 0100 	adc.w	r1, r1, #0
    7470:	ea5e 0e43 	orrs.w	lr, lr, r3, lsl #1
    7474:	bf08      	it	eq
    7476:	ea20 70d3 	biceq.w	r0, r0, r3, lsr #31
    747a:	bd70      	pop	{r4, r5, r6, pc}
    747c:	f1c4 0520 	rsb	r5, r4, #32
    7480:	fa00 f205 	lsl.w	r2, r0, r5
    7484:	ea4e 0e02 	orr.w	lr, lr, r2
    7488:	fa20 f304 	lsr.w	r3, r0, r4
    748c:	fa01 f205 	lsl.w	r2, r1, r5
    7490:	ea43 0302 	orr.w	r3, r3, r2
    7494:	fa21 f004 	lsr.w	r0, r1, r4
    7498:	f001 4100 	and.w	r1, r1, #2147483648	; 0x80000000
    749c:	fa21 f204 	lsr.w	r2, r1, r4
    74a0:	ea20 0002 	bic.w	r0, r0, r2
    74a4:	eb00 70d3 	add.w	r0, r0, r3, lsr #31
    74a8:	ea5e 0e43 	orrs.w	lr, lr, r3, lsl #1
    74ac:	bf08      	it	eq
    74ae:	ea20 70d3 	biceq.w	r0, r0, r3, lsr #31
    74b2:	bd70      	pop	{r4, r5, r6, pc}
    74b4:	f094 0f00 	teq	r4, #0
    74b8:	d10f      	bne.n	74da <__aeabi_dmul+0x1c2>
    74ba:	f001 4600 	and.w	r6, r1, #2147483648	; 0x80000000
    74be:	0040      	lsls	r0, r0, #1
    74c0:	eb41 0101 	adc.w	r1, r1, r1
    74c4:	f411 1f80 	tst.w	r1, #1048576	; 0x100000
    74c8:	bf08      	it	eq
    74ca:	3c01      	subeq	r4, #1
    74cc:	d0f7      	beq.n	74be <__aeabi_dmul+0x1a6>
    74ce:	ea41 0106 	orr.w	r1, r1, r6
    74d2:	f095 0f00 	teq	r5, #0
    74d6:	bf18      	it	ne
    74d8:	4770      	bxne	lr
    74da:	f003 4600 	and.w	r6, r3, #2147483648	; 0x80000000
    74de:	0052      	lsls	r2, r2, #1
    74e0:	eb43 0303 	adc.w	r3, r3, r3
    74e4:	f413 1f80 	tst.w	r3, #1048576	; 0x100000
    74e8:	bf08      	it	eq
    74ea:	3d01      	subeq	r5, #1
    74ec:	d0f7      	beq.n	74de <__aeabi_dmul+0x1c6>
    74ee:	ea43 0306 	orr.w	r3, r3, r6
    74f2:	4770      	bx	lr
    74f4:	ea94 0f0c 	teq	r4, r12
    74f8:	ea0c 5513 	and.w	r5, r12, r3, lsr #20
    74fc:	bf18      	it	ne
    74fe:	ea95 0f0c 	teqne	r5, r12
    7502:	d00c      	beq.n	751e <__aeabi_dmul+0x206>
    7504:	ea50 0641 	orrs.w	r6, r0, r1, lsl #1
    7508:	bf18      	it	ne
    750a:	ea52 0643 	orrsne.w	r6, r2, r3, lsl #1
    750e:	d1d1      	bne.n	74b4 <__aeabi_dmul+0x19c>
    7510:	ea81 0103 	eor.w	r1, r1, r3
    7514:	f001 4100 	and.w	r1, r1, #2147483648	; 0x80000000
    7518:	f04f 0000 	mov.w	r0, #0
    751c:	bd70      	pop	{r4, r5, r6, pc}
    751e:	ea50 0641 	orrs.w	r6, r0, r1, lsl #1
    7522:	bf06      	itte	eq
    7524:	4610      	moveq	r0, r2
    7526:	4619      	moveq	r1, r3
    7528:	ea52 0643 	orrsne.w	r6, r2, r3, lsl #1
    752c:	d019      	beq.n	7562 <__aeabi_dmul+0x24a>
    752e:	ea94 0f0c 	teq	r4, r12
    7532:	d102      	bne.n	753a <__aeabi_dmul+0x222>
    7534:	ea50 3601 	orrs.w	r6, r0, r1, lsl #12
    7538:	d113      	bne.n	7562 <__aeabi_dmul+0x24a>
    753a:	ea95 0f0c 	teq	r5, r12
    753e:	d105      	bne.n	754c <__aeabi_dmul+0x234>
    7540:	ea52 3603 	orrs.w	r6, r2, r3, lsl #12
    7544:	bf1c      	itt	ne
    7546:	4610      	movne	r0, r2
    7548:	4619      	movne	r1, r3
    754a:	d10a      	bne.n	7562 <__aeabi_dmul+0x24a>
    754c:	ea81 0103 	eor.w	r1, r1, r3
    7550:	f001 4100 	and.w	r1, r1, #2147483648	; 0x80000000
    7554:	f041 41fe 	orr.w	r1, r1, #2130706432	; 0x7f000000
    7558:	f441 0170 	orr.w	r1, r1, #15728640	; 0xf00000
    755c:	f04f 0000 	mov.w	r0, #0
    7560:	bd70      	pop	{r4, r5, r6, pc}
    7562:	f041 41fe 	orr.w	r1, r1, #2130706432	; 0x7f000000
    7566:	f441 0178 	orr.w	r1, r1, #16252928	; 0xf80000
    756a:	bd70      	pop	{r4, r5, r6, pc}

0000756c <__aeabi_ddiv>:
    756c:	b570      	push	{r4, r5, r6, lr}
    756e:	f04f 0cff 	mov.w	r12, #255	; 0xff
    7572:	f44c 6ce0 	orr.w	r12, r12, #1792	; 0x700
    7576:	ea1c 5411 	ands.w	r4, r12, r1, lsr #20
    757a:	bf1d      	ittte	ne
    757c:	ea1c 5513 	andsne.w	r5, r12, r3, lsr #20
    7580:	ea94 0f0c 	teqne	r4, r12
    7584:	ea95 0f0c 	teqne	r5, r12
    7588:	f000 f8a7 	bleq	76da <__aeabi_ddiv+0x16e>
    758c:	eba4 0405 	sub.w	r4, r4, r5
    7590:	ea81 0e03 	eor.w	lr, r1, r3
    7594:	ea52 3503 	orrs.w	r5, r2, r3, lsl #12
    7598:	ea4f 3101 	mov.w	r1, r1, lsl #12
    759c:	f000 8088 	beq.w	76b0 <__aeabi_ddiv+0x144>
    75a0:	ea4f 3303 	mov.w	r3, r3, lsl #12
    75a4:	f04f 5580 	mov.w	r5, #268435456	; 0x10000000
    75a8:	ea45 1313 	orr.w	r3, r5, r3, lsr #4
    75ac:	ea43 6312 	orr.w	r3, r3, r2, lsr #24
    75b0:	ea4f 2202 	mov.w	r2, r2, lsl #8
    75b4:	ea45 1511 	orr.w	r5, r5, r1, lsr #4
    75b8:	ea45 6510 	orr.w	r5, r5, r0, lsr #24
    75bc:	ea4f 2600 	mov.w	r6, r0, lsl #8
    75c0:	f00e 4100 	and.w	r1, lr, #2147483648	; 0x80000000
    75c4:	429d      	cmp	r5, r3
    75c6:	bf08      	it	eq
    75c8:	4296      	cmpeq	r6, r2
    75ca:	f144 04fd 	adc.w	r4, r4, #253	; 0xfd
    75ce:	f504 7440 	add.w	r4, r4, #768	; 0x300
    75d2:	d202      	bcs.n	75da <__aeabi_ddiv+0x6e>
    75d4:	085b      	lsrs	r3, r3, #1
    75d6:	ea4f 0232 	mov.w	r2, r2, rrx
    75da:	1ab6      	subs	r6, r6, r2
    75dc:	eb65 0503 	sbc.w	r5, r5, r3
    75e0:	085b      	lsrs	r3, r3, #1
    75e2:	ea4f 0232 	mov.w	r2, r2, rrx
    75e6:	f44f 1080 	mov.w	r0, #1048576	; 0x100000
    75ea:	f44f 2c00 	mov.w	r12, #524288	; 0x80000
    75ee:	ebb6 0e02 	subs.w	lr, r6, r2
    75f2:	eb75 0e03 	sbcs.w	lr, r5, r3
    75f6:	bf22      	ittt	cs
    75f8:	1ab6      	subcs	r6, r6, r2
    75fa:	4675      	movcs	r5, lr
    75fc:	ea40 000c 	orrcs.w	r0, r0, r12
    7600:	085b      	lsrs	r3, r3, #1
    7602:	ea4f 0232 	mov.w	r2, r2, rrx
    7606:	ebb6 0e02 	subs.w	lr, r6, r2
    760a:	eb75 0e03 	sbcs.w	lr, r5, r3
    760e:	bf22      	ittt	cs
    7610:	1ab6      	subcs	r6, r6, r2
    7612:	4675      	movcs	r5, lr
    7614:	ea40 005c 	orrcs.w	r0, r0, r12, lsr #1
    7618:	085b      	lsrs	r3, r3, #1
    761a:	ea4f 0232 	mov.w	r2, r2, rrx
    761e:	ebb6 0e02 	subs.w	lr, r6, r2
    7622:	eb75 0e03 	sbcs.w	lr, r5, r3
    7626:	bf22      	ittt	cs
    7628:	1ab6      	subcs	r6, r6, r2
    762a:	4675      	movcs	r5, lr
    762c:	ea40 009c 	orrcs.w	r0, r0, r12, lsr #2
    7630:	085b      	lsrs	r3, r3, #1
    7632:	ea4f 0232 	mov.w	r2, r2, rrx
    7636:	ebb6 0e02 	subs.w	lr, r6, r2
    763a:	eb75 0e03 	sbcs.w	lr, r5, r3
    763e:	bf22      	ittt	cs
    7640:	1ab6      	subcs	r6, r6, r2
    7642:	4675      	movcs	r5, lr
    7644:	ea40 00dc 	orrcs.w	r0, r0, r12, lsr #3
    7648:	ea55 0e06 	orrs.w	lr, r5, r6
    764c:	d018      	beq.n	7680 <__aeabi_ddiv+0x114>
    764e:	ea4f 1505 	mov.w	r5, r5, lsl #4
    7652:	ea45 7516 	orr.w	r5, r5, r6, lsr #28
    7656:	ea4f 1606 	mov.w	r6, r6, lsl #4
    765a:	ea4f 03c3 	mov.w	r3, r3, lsl #3
    765e:	ea43 7352 	orr.w	r3, r3, r2, lsr #29
    7662:	ea4f 02c2 	mov.w	r2, r2, lsl #3
    7666:	ea5f 1c1c 	movs.w	r12, r12, lsr #4
    766a:	d1c0      	bne.n	75ee <__aeabi_ddiv+0x82>
    766c:	f411 1f80 	tst.w	r1, #1048576	; 0x100000
    7670:	d10b      	bne.n	768a <__aeabi_ddiv+0x11e>
    7672:	ea41 0100 	orr.w	r1, r1, r0
    7676:	f04f 0000 	mov.w	r0, #0
    767a:	f04f 4c00 	mov.w	r12, #2147483648	; 0x80000000
    767e:	e7b6      	b.n	75ee <__aeabi_ddiv+0x82>
    7680:	f411 1f80 	tst.w	r1, #1048576	; 0x100000
    7684:	bf04      	itt	eq
    7686:	4301      	orreq	r1, r0
    7688:	2000      	moveq	r0, #0
    768a:	f1b4 0cfd 	subs.w	r12, r4, #253	; 0xfd
    768e:	bf88      	it	hi
    7690:	f5bc 6fe0 	cmphi.w	r12, #1792	; 0x700
    7694:	f63f aeaf 	bhi.w	73f6 <__aeabi_dmul+0xde>
    7698:	ebb5 0c03 	subs.w	r12, r5, r3
    769c:	bf04      	itt	eq
    769e:	ebb6 0c02 	subseq.w	r12, r6, r2
    76a2:	ea5f 0c50 	movseq.w	r12, r0, lsr #1
    76a6:	f150 0000 	adcs.w	r0, r0, #0
    76aa:	eb41 5104 	adc.w	r1, r1, r4, lsl #20
    76ae:	bd70      	pop	{r4, r5, r6, pc}
    76b0:	f00e 4e00 	and.w	lr, lr, #2147483648	; 0x80000000
    76b4:	ea4e 3111 	orr.w	r1, lr, r1, lsr #12
    76b8:	eb14 045c 	adds.w	r4, r4, r12, lsr #1
    76bc:	bfc2      	ittt	gt
    76be:	ebd4 050c 	rsbsgt	r5, r4, r12
    76c2:	ea41 5104 	orrgt.w	r1, r1, r4, lsl #20
    76c6:	bd70      	popgt	{r4, r5, r6, pc}
    76c8:	f441 1180 	orr.w	r1, r1, #1048576	; 0x100000
    76cc:	f04f 0e00 	mov.w	lr, #0
    76d0:	3c01      	subs	r4, #1
    76d2:	e690      	b.n	73f6 <__aeabi_dmul+0xde>
    76d4:	ea45 0e06 	orr.w	lr, r5, r6
    76d8:	e68d      	b.n	73f6 <__aeabi_dmul+0xde>
    76da:	ea0c 5513 	and.w	r5, r12, r3, lsr #20
    76de:	ea94 0f0c 	teq	r4, r12
    76e2:	bf08      	it	eq
    76e4:	ea95 0f0c 	teqeq	r5, r12
    76e8:	f43f af3b 	beq.w	7562 <__aeabi_dmul+0x24a>
    76ec:	ea94 0f0c 	teq	r4, r12
    76f0:	d10a      	bne.n	7708 <__aeabi_ddiv+0x19c>
    76f2:	ea50 3401 	orrs.w	r4, r0, r1, lsl #12
    76f6:	f47f af34 	bne.w	7562 <__aeabi_dmul+0x24a>
    76fa:	ea95 0f0c 	teq	r5, r12
    76fe:	f47f af25 	bne.w	754c <__aeabi_dmul+0x234>
    7702:	4610      	mov	r0, r2
    7704:	4619      	mov	r1, r3
    7706:	e72c      	b.n	7562 <__aeabi_dmul+0x24a>
    7708:	ea95 0f0c 	teq	r5, r12
    770c:	d106      	bne.n	771c <__aeabi_ddiv+0x1b0>
    770e:	ea52 3503 	orrs.w	r5, r2, r3, lsl #12
    7712:	f43f aefd 	beq.w	7510 <__aeabi_dmul+0x1f8>
    7716:	4610      	mov	r0, r2
    7718:	4619      	mov	r1, r3
    771a:	e722      	b.n	7562 <__aeabi_dmul+0x24a>
    771c:	ea50 0641 	orrs.w	r6, r0, r1, lsl #1
    7720:	bf18      	it	ne
    7722:	ea52 0643 	orrsne.w	r6, r2, r3, lsl #1
    7726:	f47f aec5 	bne.w	74b4 <__aeabi_dmul+0x19c>
    772a:	ea50 0441 	orrs.w	r4, r0, r1, lsl #1
    772e:	f47f af0d 	bne.w	754c <__aeabi_dmul+0x234>
    7732:	ea52 0543 	orrs.w	r5, r2, r3, lsl #1
    7736:	f47f aeeb 	bne.w	7510 <__aeabi_dmul+0x1f8>
    773a:	e712      	b.n	7562 <__aeabi_dmul+0x24a>

0000773c <__gedf2>:
    773c:	f04f 3cff 	mov.w	r12, #4294967295
    7740:	e006      	b.n	7750 <__cmpdf2+0x4>
    7742:	bf00      	nop

00007744 <__ledf2>:
    7744:	f04f 0c01 	mov.w	r12, #1
    7748:	e002      	b.n	7750 <__cmpdf2+0x4>
    774a:	bf00      	nop

0000774c <__cmpdf2>:
    774c:	f04f 0c01 	mov.w	r12, #1
    7750:	f84d cd04 	str.w	r12, [sp, #-4]!
    7754:	ea4f 0c41 	mov.w	r12, r1, lsl #1
    7758:	ea7f 5c6c 	mvns.w	r12, r12, asr #21
    775c:	ea4f 0c43 	mov.w	r12, r3, lsl #1
    7760:	bf18      	it	ne
    7762:	ea7f 5c6c 	mvnsne.w	r12, r12, asr #21
    7766:	d01b      	beq.n	77a0 <__cmpdf2+0x54>
    7768:	b001      	add	sp, #4
    776a:	ea50 0c41 	orrs.w	r12, r0, r1, lsl #1
    776e:	bf0c      	ite	eq
    7770:	ea52 0c43 	orrseq.w	r12, r2, r3, lsl #1
    7774:	ea91 0f03 	teqne	r1, r3
    7778:	bf02      	ittt	eq
    777a:	ea90 0f02 	teqeq	r0, r2
    777e:	2000      	moveq	r0, #0
    7780:	4770      	bxeq	lr
    7782:	f110 0f00 	cmn.w	r0, #0
    7786:	ea91 0f03 	teq	r1, r3
    778a:	bf58      	it	pl
    778c:	4299      	cmppl	r1, r3
    778e:	bf08      	it	eq
    7790:	4290      	cmpeq	r0, r2
    7792:	bf2c      	ite	cs
    7794:	17d8      	asrcs	r0, r3, #31
    7796:	ea6f 70e3 	mvncc.w	r0, r3, asr #31
    779a:	f040 0001 	orr.w	r0, r0, #1
    779e:	4770      	bx	lr
    77a0:	ea4f 0c41 	mov.w	r12, r1, lsl #1
    77a4:	ea7f 5c6c 	mvns.w	r12, r12, asr #21
    77a8:	d102      	bne.n	77b0 <__cmpdf2+0x64>
    77aa:	ea50 3c01 	orrs.w	r12, r0, r1, lsl #12
    77ae:	d107      	bne.n	77c0 <__cmpdf2+0x74>
    77b0:	ea4f 0c43 	mov.w	r12, r3, lsl #1
    77b4:	ea7f 5c6c 	mvns.w	r12, r12, asr #21
    77b8:	d1d6      	bne.n	7768 <__cmpdf2+0x1c>
    77ba:	ea52 3c03 	orrs.w	r12, r2, r3, lsl #12
    77be:	d0d3      	beq.n	7768 <__cmpdf2+0x1c>
    77c0:	f85d 0b04 	ldr.w	r0, [sp], #4
    77c4:	4770      	bx	lr
    77c6:	bf00      	nop

000077c8 <__aeabi_cdrcmple>:
    77c8:	4684      	mov	r12, r0
    77ca:	4610      	mov	r0, r2
    77cc:	4662      	mov	r2, r12
    77ce:	468c      	mov	r12, r1
    77d0:	4619      	mov	r1, r3
    77d2:	4663      	mov	r3, r12
    77d4:	e000      	b.n	77d8 <__aeabi_cdcmpeq>
    77d6:	bf00      	nop

000077d8 <__aeabi_cdcmpeq>:
    77d8:	b501      	push	{r0, lr}
    77da:	f7ff ffb7 	bl	774c <__cmpdf2>
    77de:	2800      	cmp	r0, #0
    77e0:	bf48      	it	mi
    77e2:	f110 0f00 	cmnmi.w	r0, #0
    77e6:	bd01      	pop	{r0, pc}

000077e8 <__aeabi_dcmpeq>:
    77e8:	f84d ed08 	str.w	lr, [sp, #-8]!
    77ec:	f7ff fff4 	bl	77d8 <__aeabi_cdcmpeq>
    77f0:	bf0c      	ite	eq
    77f2:	2001      	moveq	r0, #1
    77f4:	2000      	movne	r0, #0
    77f6:	f85d fb08 	ldr.w	pc, [sp], #8
    77fa:	bf00      	nop

000077fc <__aeabi_dcmplt>:
    77fc:	f84d ed08 	str.w	lr, [sp, #-8]!
    7800:	f7ff ffea 	bl	77d8 <__aeabi_cdcmpeq>
    7804:	bf34      	ite	cc
    7806:	2001      	movcc	r0, #1
    7808:	2000      	movcs	r0, #0
    780a:	f85d fb08 	ldr.w	pc, [sp], #8
    780e:	bf00      	nop

00007810 <__aeabi_dcmple>:
    7810:	f84d ed08 	str.w	lr, [sp, #-8]!
    7814:	f7ff ffe0 	bl	77d8 <__aeabi_cdcmpeq>
    7818:	bf94      	ite	ls
    781a:	2001      	movls	r0, #1
    781c:	2000      	movhi	r0, #0
    781e:	f85d fb08 	ldr.w	pc, [sp], #8
    7822:	bf00      	nop

00007824 <__aeabi_dcmpge>:
    7824:	f84d ed08 	str.w	lr, [sp, #-8]!
    7828:	f7ff ffce 	bl	77c8 <__aeabi_cdrcmple>
    782c:	bf94      	ite	ls
    782e:	2001      	movls	r0, #1
    7830:	2000      	movhi	r0, #0
    7832:	f85d fb08 	ldr.w	pc, [sp], #8
    7836:	bf00      	nop

00007838 <__aeabi_dcmpgt>:
    7838:	f84d ed08 	str.w	lr, [sp, #-8]!
    783c:	f7ff ffc4 	bl	77c8 <__aeabi_cdrcmple>
    7840:	bf34      	ite	cc
    7842:	2001      	movcc	r0, #1
    7844:	2000      	movcs	r0, #0
    7846:	f85d fb08 	ldr.w	pc, [sp], #8
    784a:	bf00      	nop

0000784c <__aeabi_dcmpun>:
    784c:	ea4f 0c41 	mov.w	r12, r1, lsl #1
    7850:	ea7f 5c6c 	mvns.w	r12, r12, asr #21
    7854:	d102      	bne.n	785c <__aeabi_dcmpun+0x10>
    7856:	ea50 3c01 	orrs.w	r12, r0, r1, lsl #12
    785a:	d10a      	bne.n	7872 <__aeabi_dcmpun+0x26>
    785c:	ea4f 0c43 	mov.w	r12, r3, lsl #1
    7860:	ea7f 5c6c 	mvns.w	r12, r12, asr #21
    7864:	d102      	bne.n	786c <__aeabi_dcmpun+0x20>
    7866:	ea52 3c03 	orrs.w	r12, r2, r3, lsl #12
    786a:	d102      	bne.n	7872 <__aeabi_dcmpun+0x26>
    786c:	f04f 0000 	mov.w	r0, #0
    7870:	4770      	bx	lr
    7872:	f04f 0001 	mov.w	r0, #1
    7876:	4770      	bx	lr

00007878 <__aeabi_d2iz>:
    7878:	ea4f 0241 	mov.w	r2, r1, lsl #1
    787c:	f512 1200 	adds.w	r2, r2, #2097152	; 0x200000
    7880:	d215      	bcs.n	78ae <__aeabi_d2iz+0x36>
    7882:	d511      	bpl.n	78a8 <__aeabi_d2iz+0x30>
    7884:	f46f 7378 	mvn.w	r3, #992	; 0x3e0
    7888:	ebb3 5262 	subs.w	r2, r3, r2, asr #21
    788c:	d912      	bls.n	78b4 <__aeabi_d2iz+0x3c>
    788e:	ea4f 23c1 	mov.w	r3, r1, lsl #11
    7892:	f043 4300 	orr.w	r3, r3, #2147483648	; 0x80000000
    7896:	ea43 5350 	orr.w	r3, r3, r0, lsr #21
    789a:	f011 4f00 	tst.w	r1, #2147483648	; 0x80000000
    789e:	fa23 f002 	lsr.w	r0, r3, r2
    78a2:	bf18      	it	ne
    78a4:	4240      	negne	r0, r0
    78a6:	4770      	bx	lr
    78a8:	f04f 0000 	mov.w	r0, #0
    78ac:	4770      	bx	lr
    78ae:	ea50 3001 	orrs.w	r0, r0, r1, lsl #12
    78b2:	d105      	bne.n	78c0 <__aeabi_d2iz+0x48>
    78b4:	f011 4000 	ands.w	r0, r1, #2147483648	; 0x80000000
    78b8:	bf08      	it	eq
    78ba:	f06f 4000 	mvneq.w	r0, #2147483648	; 0x80000000
    78be:	4770      	bx	lr
    78c0:	f04f 0000 	mov.w	r0, #0
    78c4:	4770      	bx	lr
    78c6:	bf00      	nop

000078c8 <__aeabi_d2uiz>:
    78c8:	004a      	lsls	r2, r1, #1
    78ca:	d211      	bcs.n	78f0 <__aeabi_d2uiz+0x28>
    78cc:	f512 1200 	adds.w	r2, r2, #2097152	; 0x200000
    78d0:	d211      	bcs.n	78f6 <__aeabi_d2uiz+0x2e>
    78d2:	d50d      	bpl.n	78f0 <__aeabi_d2uiz+0x28>
    78d4:	f46f 7378 	mvn.w	r3, #992	; 0x3e0
    78d8:	ebb3 5262 	subs.w	r2, r3, r2, asr #21
    78dc:	d40e      	bmi.n	78fc <__aeabi_d2uiz+0x34>
    78de:	ea4f 23c1 	mov.w	r3, r1, lsl #11
    78e2:	f043 4300 	orr.w	r3, r3, #2147483648	; 0x80000000
    78e6:	ea43 5350 	orr.w	r3, r3, r0, lsr #21
    78ea:	fa23 f002 	lsr.w	r0, r3, r2
    78ee:	4770      	bx	lr
    78f0:	f04f 0000 	mov.w	r0, #0
    78f4:	4770      	bx	lr
    78f6:	ea50 3001 	orrs.w	r0, r0, r1, lsl #12
    78fa:	d102      	bne.n	7902 <__aeabi_d2uiz+0x3a>
    78fc:	f04f 30ff 	mov.w	r0, #4294967295
    7900:	4770      	bx	lr
    7902:	f04f 0000 	mov.w	r0, #0
    7906:	4770      	bx	lr

00007908 <__aeabi_d2f>:
    7908:	ea4f 0241 	mov.w	r2, r1, lsl #1
    790c:	f1b2 43e0 	subs.w	r3, r2, #1879048192	; 0x70000000
    7910:	bf24      	itt	cs
    7912:	f5b3 1c00 	subscs.w	r12, r3, #2097152	; 0x200000
    7916:	f1dc 5cfe 	rsbscs	r12, r12, #532676608	; 0x1fc00000
    791a:	d90d      	bls.n	7938 <__aeabi_d2f+0x30>
    791c:	f001 4c00 	and.w	r12, r1, #2147483648	; 0x80000000
    7920:	ea4f 02c0 	mov.w	r2, r0, lsl #3
    7924:	ea4c 7050 	orr.w	r0, r12, r0, lsr #29
    7928:	f1b2 4f00 	cmp.w	r2, #2147483648	; 0x80000000
    792c:	eb40 0083 	adc.w	r0, r0, r3, lsl #2
    7930:	bf08      	it	eq
    7932:	f020 0001 	biceq.w	r0, r0, #1
    7936:	4770      	bx	lr
    7938:	f011 4f80 	tst.w	r1, #1073741824	; 0x40000000
    793c:	d121      	bne.n	7982 <__aeabi_d2f+0x7a>
    793e:	f113 7238 	adds.w	r2, r3, #48234496	; 0x2e00000
    7942:	bfbc      	itt	lt
    7944:	f001 4000 	andlt.w	r0, r1, #2147483648	; 0x80000000
    7948:	4770      	bxlt	lr
    794a:	f441 1180 	orr.w	r1, r1, #1048576	; 0x100000
    794e:	ea4f 5252 	mov.w	r2, r2, lsr #21
    7952:	f1c2 0218 	rsb	r2, r2, #24
    7956:	f1c2 0c20 	rsb	r12, r2, #32
    795a:	fa10 f30c 	lsls.w	r3, r0, r12
    795e:	fa20 f002 	lsr.w	r0, r0, r2
    7962:	bf18      	it	ne
    7964:	f040 0001 	orrne.w	r0, r0, #1
    7968:	ea4f 23c1 	mov.w	r3, r1, lsl #11
    796c:	ea4f 23d3 	mov.w	r3, r3, lsr #11
    7970:	fa03 fc0c 	lsl.w	r12, r3, r12
    7974:	ea40 000c 	orr.w	r0, r0, r12
    7978:	fa23 f302 	lsr.w	r3, r3, r2
    797c:	ea4f 0343 	mov.w	r3, r3, lsl #1
    7980:	e7cc      	b.n	791c <__aeabi_d2f+0x14>
    7982:	ea7f 5362 	mvns.w	r3, r2, asr #21
    7986:	d107      	bne.n	7998 <__aeabi_d2f+0x90>
    7988:	ea50 3301 	orrs.w	r3, r0, r1, lsl #12
    798c:	bf1e      	ittt	ne
    798e:	f04f 40fe 	movne.w	r0, #2130706432	; 0x7f000000
    7992:	f440 0040 	orrne.w	r0, r0, #12582912	; 0xc00000
    7996:	4770      	bxne	lr
    7998:	f001 4000 	and.w	r0, r1, #2147483648	; 0x80000000
    799c:	f040 40fe 	orr.w	r0, r0, #2130706432	; 0x7f000000
    79a0:	f440 0000 	orr.w	r0, r0, #8388608	; 0x800000
    79a4:	4770      	bx	lr
    79a6:	bf00      	nop

000079a8 <__aeabi_frsub>:
    79a8:	f080 4000 	eor.w	r0, r0, #2147483648	; 0x80000000
    79ac:	e002      	b.n	79b4 <__addsf3>
    79ae:	bf00      	nop

000079b0 <__aeabi_fsub>:
    79b0:	f081 4100 	eor.w	r1, r1, #2147483648	; 0x80000000

000079b4 <__addsf3>:
    79b4:	0042      	lsls	r2, r0, #1
    79b6:	bf1f      	itttt	ne
    79b8:	ea5f 0341 	movsne.w	r3, r1, lsl #1
    79bc:	ea92 0f03 	teqne	r2, r3
    79c0:	ea7f 6c22 	mvnsne.w	r12, r2, asr #24
    79c4:	ea7f 6c23 	mvnsne.w	r12, r3, asr #24
    79c8:	d06a      	beq.n	7aa0 <__addsf3+0xec>
    79ca:	ea4f 6212 	mov.w	r2, r2, lsr #24
    79ce:	ebd2 6313 	rsbs	r3, r2, r3, lsr #24
    79d2:	bfc1      	itttt	gt
    79d4:	18d2      	addgt	r2, r2, r3
    79d6:	4041      	eorgt	r1, r0
    79d8:	4048      	eorgt	r0, r1
    79da:	4041      	eorgt	r1, r0
    79dc:	bfb8      	it	lt
    79de:	425b      	neglt	r3, r3
    79e0:	2b19      	cmp	r3, #25
    79e2:	bf88      	it	hi
    79e4:	4770      	bxhi	lr
    79e6:	f010 4f00 	tst.w	r0, #2147483648	; 0x80000000
    79ea:	f440 0000 	orr.w	r0, r0, #8388608	; 0x800000
    79ee:	f020 407f 	bic.w	r0, r0, #4278190080	; 0xff000000
    79f2:	bf18      	it	ne
    79f4:	4240      	negne	r0, r0
    79f6:	f011 4f00 	tst.w	r1, #2147483648	; 0x80000000
    79fa:	f441 0100 	orr.w	r1, r1, #8388608	; 0x800000
    79fe:	f021 417f 	bic.w	r1, r1, #4278190080	; 0xff000000
    7a02:	bf18      	it	ne
    7a04:	4249      	negne	r1, r1
    7a06:	ea92 0f03 	teq	r2, r3
    7a0a:	d03f      	beq.n	7a8c <__addsf3+0xd8>
    7a0c:	f1a2 0201 	sub.w	r2, r2, #1
    7a10:	fa41 fc03 	asr.w	r12, r1, r3
    7a14:	eb10 000c 	adds.w	r0, r0, r12
    7a18:	f1c3 0320 	rsb	r3, r3, #32
    7a1c:	fa01 f103 	lsl.w	r1, r1, r3
    7a20:	f000 4300 	and.w	r3, r0, #2147483648	; 0x80000000
    7a24:	d502      	bpl.n	7a2c <__addsf3+0x78>
    7a26:	4249      	negs	r1, r1
    7a28:	eb60 0040 	sbc.w	r0, r0, r0, lsl #1
    7a2c:	f5b0 0f00 	cmp.w	r0, #8388608	; 0x800000
    7a30:	d313      	bcc.n	7a5a <__addsf3+0xa6>
    7a32:	f1b0 7f80 	cmp.w	r0, #16777216	; 0x1000000
    7a36:	d306      	bcc.n	7a46 <__addsf3+0x92>
    7a38:	0840      	lsrs	r0, r0, #1
    7a3a:	ea4f 0131 	mov.w	r1, r1, rrx
    7a3e:	f102 0201 	add.w	r2, r2, #1
    7a42:	2afe      	cmp	r2, #254	; 0xfe
    7a44:	d251      	bcs.n	7aea <__addsf3+0x136>
    7a46:	f1b1 4f00 	cmp.w	r1, #2147483648	; 0x80000000
    7a4a:	eb40 50c2 	adc.w	r0, r0, r2, lsl #23
    7a4e:	bf08      	it	eq
    7a50:	f020 0001 	biceq.w	r0, r0, #1
    7a54:	ea40 0003 	orr.w	r0, r0, r3
    7a58:	4770      	bx	lr
    7a5a:	0049      	lsls	r1, r1, #1
    7a5c:	eb40 0000 	adc.w	r0, r0, r0
    7a60:	f410 0f00 	tst.w	r0, #8388608	; 0x800000
    7a64:	f1a2 0201 	sub.w	r2, r2, #1
    7a68:	d1ed      	bne.n	7a46 <__addsf3+0x92>
    7a6a:	fab0 fc80 	clz	r12, r0
    7a6e:	f1ac 0c08 	sub.w	r12, r12, #8
    7a72:	ebb2 020c 	subs.w	r2, r2, r12
    7a76:	fa00 f00c 	lsl.w	r0, r0, r12
    7a7a:	bfaa      	itet	ge
    7a7c:	eb00 50c2 	addge.w	r0, r0, r2, lsl #23
    7a80:	4252      	neglt	r2, r2
    7a82:	4318      	orrge	r0, r3
    7a84:	bfbc      	itt	lt
    7a86:	40d0      	lsrlt	r0, r2
    7a88:	4318      	orrlt	r0, r3
    7a8a:	4770      	bx	lr
    7a8c:	f092 0f00 	teq	r2, #0
    7a90:	f481 0100 	eor.w	r1, r1, #8388608	; 0x800000
    7a94:	bf06      	itte	eq
    7a96:	f480 0000 	eoreq.w	r0, r0, #8388608	; 0x800000
    7a9a:	3201      	addeq	r2, #1
    7a9c:	3b01      	subne	r3, #1
    7a9e:	e7b5      	b.n	7a0c <__addsf3+0x58>
    7aa0:	ea4f 0341 	mov.w	r3, r1, lsl #1
    7aa4:	ea7f 6c22 	mvns.w	r12, r2, asr #24
    7aa8:	bf18      	it	ne
    7aaa:	ea7f 6c23 	mvnsne.w	r12, r3, asr #24
    7aae:	d021      	beq.n	7af4 <__addsf3+0x140>
    7ab0:	ea92 0f03 	teq	r2, r3
    7ab4:	d004      	beq.n	7ac0 <__addsf3+0x10c>
    7ab6:	f092 0f00 	teq	r2, #0
    7aba:	bf08      	it	eq
    7abc:	4608      	moveq	r0, r1
    7abe:	4770      	bx	lr
    7ac0:	ea90 0f01 	teq	r0, r1
    7ac4:	bf1c      	itt	ne
    7ac6:	2000      	movne	r0, #0
    7ac8:	4770      	bxne	lr
    7aca:	f012 4f7f 	tst.w	r2, #4278190080	; 0xff000000
    7ace:	d104      	bne.n	7ada <__addsf3+0x126>
    7ad0:	0040      	lsls	r0, r0, #1
    7ad2:	bf28      	it	cs
    7ad4:	f040 4000 	orrcs.w	r0, r0, #2147483648	; 0x80000000
    7ad8:	4770      	bx	lr
    7ada:	f112 7200 	adds.w	r2, r2, #33554432	; 0x2000000
    7ade:	bf3c      	itt	cc
    7ae0:	f500 0000 	addcc.w	r0, r0, #8388608	; 0x800000
    7ae4:	4770      	bxcc	lr
    7ae6:	f000 4300 	and.w	r3, r0, #2147483648	; 0x80000000
    7aea:	f043 40fe 	orr.w	r0, r3, #2130706432	; 0x7f000000
    7aee:	f440 0000 	orr.w	r0, r0, #8388608	; 0x800000
    7af2:	4770      	bx	lr
    7af4:	ea7f 6222 	mvns.w	r2, r2, asr #24
    7af8:	bf16      	itet	ne
    7afa:	4608      	movne	r0, r1
    7afc:	ea7f 6323 	mvnseq.w	r3, r3, asr #24
    7b00:	4601      	movne	r1, r0
    7b02:	0242      	lsls	r2, r0, #9
    7b04:	bf06      	itte	eq
    7b06:	ea5f 2341 	movseq.w	r3, r1, lsl #9
    7b0a:	ea90 0f01 	teqeq	r0, r1
    7b0e:	f440 0080 	orrne.w	r0, r0, #4194304	; 0x400000
    7b12:	4770      	bx	lr

00007b14 <__aeabi_ui2f>:
    7b14:	f04f 0300 	mov.w	r3, #0
    7b18:	e004      	b.n	7b24 <__aeabi_i2f+0x8>
    7b1a:	bf00      	nop

00007b1c <__aeabi_i2f>:
    7b1c:	f010 4300 	ands.w	r3, r0, #2147483648	; 0x80000000
    7b20:	bf48      	it	mi
    7b22:	4240      	negmi	r0, r0
    7b24:	ea5f 0c00 	movs.w	r12, r0
    7b28:	bf08      	it	eq
    7b2a:	4770      	bxeq	lr
    7b2c:	f043 4396 	orr.w	r3, r3, #1258291200	; 0x4b000000
    7b30:	4601      	mov	r1, r0
    7b32:	f04f 0000 	mov.w	r0, #0
    7b36:	e01c      	b.n	7b72 <__aeabi_l2f+0x2a>

00007b38 <__aeabi_ul2f>:
    7b38:	ea50 0201 	orrs.w	r2, r0, r1
    7b3c:	bf08      	it	eq
    7b3e:	4770      	bxeq	lr
    7b40:	f04f 0300 	mov.w	r3, #0
    7b44:	e00a      	b.n	7b5c <__aeabi_l2f+0x14>
    7b46:	bf00      	nop

00007b48 <__aeabi_l2f>:
    7b48:	ea50 0201 	orrs.w	r2, r0, r1
    7b4c:	bf08      	it	eq
    7b4e:	4770      	bxeq	lr
    7b50:	f011 4300 	ands.w	r3, r1, #2147483648	; 0x80000000
    7b54:	d502      	bpl.n	7b5c <__aeabi_l2f+0x14>
    7b56:	4240      	negs	r0, r0
    7b58:	eb61 0141 	sbc.w	r1, r1, r1, lsl #1
    7b5c:	ea5f 0c01 	movs.w	r12, r1
    7b60:	bf02      	ittt	eq
    7b62:	4684      	moveq	r12, r0
    7b64:	4601      	moveq	r1, r0
    7b66:	2000      	moveq	r0, #0
    7b68:	f043 43b6 	orr.w	r3, r3, #1526726656	; 0x5b000000
    7b6c:	bf08      	it	eq
    7b6e:	f1a3 5380 	subeq.w	r3, r3, #268435456	; 0x10000000
    7b72:	f5a3 0300 	sub.w	r3, r3, #8388608	; 0x800000
    7b76:	fabc f28c 	clz	r2, r12
    7b7a:	3a08      	subs	r2, #8
    7b7c:	eba3 53c2 	sub.w	r3, r3, r2, lsl #23
    7b80:	db10      	blt.n	7ba4 <__aeabi_l2f+0x5c>
    7b82:	fa01 fc02 	lsl.w	r12, r1, r2
    7b86:	4463      	add	r3, r12
    7b88:	fa00 fc02 	lsl.w	r12, r0, r2
    7b8c:	f1c2 0220 	rsb	r2, r2, #32
    7b90:	f1bc 4f00 	cmp.w	r12, #2147483648	; 0x80000000
    7b94:	fa20 f202 	lsr.w	r2, r0, r2
    7b98:	eb43 0002 	adc.w	r0, r3, r2
    7b9c:	bf08      	it	eq
    7b9e:	f020 0001 	biceq.w	r0, r0, #1
    7ba2:	4770      	bx	lr
    7ba4:	f102 0220 	add.w	r2, r2, #32
    7ba8:	fa01 fc02 	lsl.w	r12, r1, r2
    7bac:	f1c2 0220 	rsb	r2, r2, #32
    7bb0:	ea50 004c 	orrs.w	r0, r0, r12, lsl #1
    7bb4:	fa21 f202 	lsr.w	r2, r1, r2
    7bb8:	eb43 0002 	adc.w	r0, r3, r2
    7bbc:	bf08      	it	eq
    7bbe:	ea20 70dc 	biceq.w	r0, r0, r12, lsr #31
    7bc2:	4770      	bx	lr

00007bc4 <__aeabi_fmul>:
    7bc4:	f04f 0cff 	mov.w	r12, #255	; 0xff
    7bc8:	ea1c 52d0 	ands.w	r2, r12, r0, lsr #23
    7bcc:	bf1e      	ittt	ne
    7bce:	ea1c 53d1 	andsne.w	r3, r12, r1, lsr #23
    7bd2:	ea92 0f0c 	teqne	r2, r12
    7bd6:	ea93 0f0c 	teqne	r3, r12
    7bda:	d06f      	beq.n	7cbc <__aeabi_fmul+0xf8>
    7bdc:	441a      	add	r2, r3
    7bde:	ea80 0c01 	eor.w	r12, r0, r1
    7be2:	0240      	lsls	r0, r0, #9
    7be4:	bf18      	it	ne
    7be6:	ea5f 2141 	movsne.w	r1, r1, lsl #9
    7bea:	d01e      	beq.n	7c2a <__aeabi_fmul+0x66>
    7bec:	f04f 6300 	mov.w	r3, #134217728	; 0x8000000
    7bf0:	ea43 1050 	orr.w	r0, r3, r0, lsr #5
    7bf4:	ea43 1151 	orr.w	r1, r3, r1, lsr #5
    7bf8:	fba0 3101 	umull	r3, r1, r0, r1
    7bfc:	f00c 4000 	and.w	r0, r12, #2147483648	; 0x80000000
    7c00:	f5b1 0f00 	cmp.w	r1, #8388608	; 0x800000
    7c04:	bf3e      	ittt	cc
    7c06:	0049      	lslcc	r1, r1, #1
    7c08:	ea41 71d3 	orrcc.w	r1, r1, r3, lsr #31
    7c0c:	005b      	lslcc	r3, r3, #1
    7c0e:	ea40 0001 	orr.w	r0, r0, r1
    7c12:	f162 027f 	sbc.w	r2, r2, #127	; 0x7f
    7c16:	2afd      	cmp	r2, #253	; 0xfd
    7c18:	d81d      	bhi.n	7c56 <__aeabi_fmul+0x92>
    7c1a:	f1b3 4f00 	cmp.w	r3, #2147483648	; 0x80000000
    7c1e:	eb40 50c2 	adc.w	r0, r0, r2, lsl #23
    7c22:	bf08      	it	eq
    7c24:	f020 0001 	biceq.w	r0, r0, #1
    7c28:	4770      	bx	lr
    7c2a:	f090 0f00 	teq	r0, #0
    7c2e:	f00c 4c00 	and.w	r12, r12, #2147483648	; 0x80000000
    7c32:	bf08      	it	eq
    7c34:	0249      	lsleq	r1, r1, #9
    7c36:	ea4c 2050 	orr.w	r0, r12, r0, lsr #9
    7c3a:	ea40 2051 	orr.w	r0, r0, r1, lsr #9
    7c3e:	3a7f      	subs	r2, #127	; 0x7f
    7c40:	bfc2      	ittt	gt
    7c42:	f1d2 03ff 	rsbsgt	r3, r2, #255	; 0xff
    7c46:	ea40 50c2 	orrgt.w	r0, r0, r2, lsl #23
    7c4a:	4770      	bxgt	lr
    7c4c:	f440 0000 	orr.w	r0, r0, #8388608	; 0x800000
    7c50:	f04f 0300 	mov.w	r3, #0
    7c54:	3a01      	subs	r2, #1
    7c56:	dc5d      	bgt.n	7d14 <__aeabi_fmul+0x150>
    7c58:	f112 0f19 	cmn.w	r2, #25
    7c5c:	bfdc      	itt	le
    7c5e:	f000 4000 	andle.w	r0, r0, #2147483648	; 0x80000000
    7c62:	4770      	bxle	lr
    7c64:	f1c2 0200 	rsb	r2, r2, #0
    7c68:	0041      	lsls	r1, r0, #1
    7c6a:	fa21 f102 	lsr.w	r1, r1, r2
    7c6e:	f1c2 0220 	rsb	r2, r2, #32
    7c72:	fa00 fc02 	lsl.w	r12, r0, r2
    7c76:	ea5f 0031 	movs.w	r0, r1, rrx
    7c7a:	f140 0000 	adc.w	r0, r0, #0
    7c7e:	ea53 034c 	orrs.w	r3, r3, r12, lsl #1
    7c82:	bf08      	it	eq
    7c84:	ea20 70dc 	biceq.w	r0, r0, r12, lsr #31
    7c88:	4770      	bx	lr
    7c8a:	f092 0f00 	teq	r2, #0
    7c8e:	f000 4c00 	and.w	r12, r0, #2147483648	; 0x80000000
    7c92:	bf02      	ittt	eq
    7c94:	0040      	lsleq	r0, r0, #1
    7c96:	f410 0f00 	tsteq.w	r0, #8388608	; 0x800000
    7c9a:	3a01      	subeq	r2, #1
    7c9c:	d0f9      	beq.n	7c92 <__aeabi_fmul+0xce>
    7c9e:	ea40 000c 	orr.w	r0, r0, r12
    7ca2:	f093 0f00 	teq	r3, #0
    7ca6:	f001 4c00 	and.w	r12, r1, #2147483648	; 0x80000000
    7caa:	bf02      	ittt	eq
    7cac:	0049      	lsleq	r1, r1, #1
    7cae:	f411 0f00 	tsteq.w	r1, #8388608	; 0x800000
    7cb2:	3b01      	subeq	r3, #1
    7cb4:	d0f9      	beq.n	7caa <__aeabi_fmul+0xe6>
    7cb6:	ea41 010c 	orr.w	r1, r1, r12
    7cba:	e78f      	b.n	7bdc <__aeabi_fmul+0x18>
    7cbc:	ea0c 53d1 	and.w	r3, r12, r1, lsr #23
    7cc0:	ea92 0f0c 	teq	r2, r12
    7cc4:	bf18      	it	ne
    7cc6:	ea93 0f0c 	teqne	r3, r12
    7cca:	d00a      	beq.n	7ce2 <__aeabi_fmul+0x11e>
    7ccc:	f030 4c00 	bics.w	r12, r0, #2147483648	; 0x80000000
    7cd0:	bf18      	it	ne
    7cd2:	f031 4c00 	bicsne.w	r12, r1, #2147483648	; 0x80000000
    7cd6:	d1d8      	bne.n	7c8a <__aeabi_fmul+0xc6>
    7cd8:	ea80 0001 	eor.w	r0, r0, r1
    7cdc:	f000 4000 	and.w	r0, r0, #2147483648	; 0x80000000
    7ce0:	4770      	bx	lr
    7ce2:	f090 0f00 	teq	r0, #0
    7ce6:	bf17      	itett	ne
    7ce8:	f090 4f00 	teqne	r0, #2147483648	; 0x80000000
    7cec:	4608      	moveq	r0, r1
    7cee:	f091 0f00 	teqne	r1, #0
    7cf2:	f091 4f00 	teqne	r1, #2147483648	; 0x80000000
    7cf6:	d014      	beq.n	7d22 <__aeabi_fmul+0x15e>
    7cf8:	ea92 0f0c 	teq	r2, r12
    7cfc:	d101      	bne.n	7d02 <__aeabi_fmul+0x13e>
    7cfe:	0242      	lsls	r2, r0, #9
    7d00:	d10f      	bne.n	7d22 <__aeabi_fmul+0x15e>
    7d02:	ea93 0f0c 	teq	r3, r12
    7d06:	d103      	bne.n	7d10 <__aeabi_fmul+0x14c>
    7d08:	024b      	lsls	r3, r1, #9
    7d0a:	bf18      	it	ne
    7d0c:	4608      	movne	r0, r1
    7d0e:	d108      	bne.n	7d22 <__aeabi_fmul+0x15e>
    7d10:	ea80 0001 	eor.w	r0, r0, r1
    7d14:	f000 4000 	and.w	r0, r0, #2147483648	; 0x80000000
    7d18:	f040 40fe 	orr.w	r0, r0, #2130706432	; 0x7f000000
    7d1c:	f440 0000 	orr.w	r0, r0, #8388608	; 0x800000
    7d20:	4770      	bx	lr
    7d22:	f040 40fe 	orr.w	r0, r0, #2130706432	; 0x7f000000
    7d26:	f440 0040 	orr.w	r0, r0, #12582912	; 0xc00000
    7d2a:	4770      	bx	lr

00007d2c <__aeabi_fdiv>:
    7d2c:	f04f 0cff 	mov.w	r12, #255	; 0xff
    7d30:	ea1c 52d0 	ands.w	r2, r12, r0, lsr #23
    7d34:	bf1e      	ittt	ne
    7d36:	ea1c 53d1 	andsne.w	r3, r12, r1, lsr #23
    7d3a:	ea92 0f0c 	teqne	r2, r12
    7d3e:	ea93 0f0c 	teqne	r3, r12
    7d42:	d069      	beq.n	7e18 <__aeabi_fdiv+0xec>
    7d44:	eba2 0203 	sub.w	r2, r2, r3
    7d48:	ea80 0c01 	eor.w	r12, r0, r1
    7d4c:	0249      	lsls	r1, r1, #9
    7d4e:	ea4f 2040 	mov.w	r0, r0, lsl #9
    7d52:	d037      	beq.n	7dc4 <__aeabi_fdiv+0x98>
    7d54:	f04f 5380 	mov.w	r3, #268435456	; 0x10000000
    7d58:	ea43 1111 	orr.w	r1, r3, r1, lsr #4
    7d5c:	ea43 1310 	orr.w	r3, r3, r0, lsr #4
    7d60:	f00c 4000 	and.w	r0, r12, #2147483648	; 0x80000000
    7d64:	428b      	cmp	r3, r1
    7d66:	bf38      	it	cc
    7d68:	005b      	lslcc	r3, r3, #1
    7d6a:	f142 027d 	adc.w	r2, r2, #125	; 0x7d
    7d6e:	f44f 0c00 	mov.w	r12, #8388608	; 0x800000
    7d72:	428b      	cmp	r3, r1
    7d74:	bf24      	itt	cs
    7d76:	1a5b      	subcs	r3, r3, r1
    7d78:	ea40 000c 	orrcs.w	r0, r0, r12
    7d7c:	ebb3 0f51 	cmp.w	r3, r1, lsr #1
    7d80:	bf24      	itt	cs
    7d82:	eba3 0351 	subcs.w	r3, r3, r1, lsr #1
    7d86:	ea40 005c 	orrcs.w	r0, r0, r12, lsr #1
    7d8a:	ebb3 0f91 	cmp.w	r3, r1, lsr #2
    7d8e:	bf24      	itt	cs
    7d90:	eba3 0391 	subcs.w	r3, r3, r1, lsr #2
    7d94:	ea40 009c 	orrcs.w	r0, r0, r12, lsr #2
    7d98:	ebb3 0fd1 	cmp.w	r3, r1, lsr #3
    7d9c:	bf24      	itt	cs
    7d9e:	eba3 03d1 	subcs.w	r3, r3, r1, lsr #3
    7da2:	ea40 00dc 	orrcs.w	r0, r0, r12, lsr #3
    7da6:	011b      	lsls	r3, r3, #4
    7da8:	bf18      	it	ne
    7daa:	ea5f 1c1c 	movsne.w	r12, r12, lsr #4
    7dae:	d1e0      	bne.n	7d72 <__aeabi_fdiv+0x46>
    7db0:	2afd      	cmp	r2, #253	; 0xfd
    7db2:	f63f af50 	bhi.w	7c56 <__aeabi_fmul+0x92>
    7db6:	428b      	cmp	r3, r1
    7db8:	eb40 50c2 	adc.w	r0, r0, r2, lsl #23
    7dbc:	bf08      	it	eq
    7dbe:	f020 0001 	biceq.w	r0, r0, #1
    7dc2:	4770      	bx	lr
    7dc4:	f00c 4c00 	and.w	r12, r12, #2147483648	; 0x80000000
    7dc8:	ea4c 2050 	orr.w	r0, r12, r0, lsr #9
    7dcc:	327f      	adds	r2, #127	; 0x7f
    7dce:	bfc2      	ittt	gt
    7dd0:	f1d2 03ff 	rsbsgt	r3, r2, #255	; 0xff
    7dd4:	ea40 50c2 	orrgt.w	r0, r0, r2, lsl #23
    7dd8:	4770      	bxgt	lr
    7dda:	f440 0000 	orr.w	r0, r0, #8388608	; 0x800000
    7dde:	f04f 0300 	mov.w	r3, #0
    7de2:	3a01      	subs	r2, #1
    7de4:	e737      	b.n	7c56 <__aeabi_fmul+0x92>
    7de6:	f092 0f00 	teq	r2, #0
    7dea:	f000 4c00 	and.w	r12, r0, #2147483648	; 0x80000000
    7dee:	bf02      	ittt	eq
    7df0:	0040      	lsleq	r0, r0, #1
    7df2:	f410 0f00 	tsteq.w	r0, #8388608	; 0x800000
    7df6:	3a01      	subeq	r2, #1
    7df8:	d0f9      	beq.n	7dee <__aeabi_fdiv+0xc2>
    7dfa:	ea40 000c 	orr.w	r0, r0, r12
    7dfe:	f093 0f00 	teq	r3, #0
    7e02:	f001 4c00 	and.w	r12, r1, #2147483648	; 0x80000000
    7e06:	bf02      	ittt	eq
    7e08:	0049      	lsleq	r1, r1, #1
    7e0a:	f411 0f00 	tsteq.w	r1, #8388608	; 0x800000
    7e0e:	3b01      	subeq	r3, #1
    7e10:	d0f9      	beq.n	7e06 <__aeabi_fdiv+0xda>
    7e12:	ea41 010c 	orr.w	r1, r1, r12
    7e16:	e795      	b.n	7d44 <__aeabi_fdiv+0x18>
    7e18:	ea0c 53d1 	and.w	r3, r12, r1, lsr #23
    7e1c:	ea92 0f0c 	teq	r2, r12
    7e20:	d108      	bne.n	7e34 <__aeabi_fdiv+0x108>
    7e22:	0242      	lsls	r2, r0, #9
    7e24:	f47f af7d 	bne.w	7d22 <__aeabi_fmul+0x15e>
    7e28:	ea93 0f0c 	teq	r3, r12
    7e2c:	f47f af70 	bne.w	7d10 <__aeabi_fmul+0x14c>
    7e30:	4608      	mov	r0, r1
    7e32:	e776      	b.n	7d22 <__aeabi_fmul+0x15e>
    7e34:	ea93 0f0c 	teq	r3, r12
    7e38:	d104      	bne.n	7e44 <__aeabi_fdiv+0x118>
    7e3a:	024b      	lsls	r3, r1, #9
    7e3c:	f43f af4c 	beq.w	7cd8 <__aeabi_fmul+0x114>
    7e40:	4608      	mov	r0, r1
    7e42:	e76e      	b.n	7d22 <__aeabi_fmul+0x15e>
    7e44:	f030 4c00 	bics.w	r12, r0, #2147483648	; 0x80000000
    7e48:	bf18      	it	ne
    7e4a:	f031 4c00 	bicsne.w	r12, r1, #2147483648	; 0x80000000
    7e4e:	d1ca      	bne.n	7de6 <__aeabi_fdiv+0xba>
    7e50:	f030 4200 	bics.w	r2, r0, #2147483648	; 0x80000000
    7e54:	f47f af5c 	bne.w	7d10 <__aeabi_fmul+0x14c>
    7e58:	f031 4300 	bics.w	r3, r1, #2147483648	; 0x80000000
    7e5c:	f47f af3c 	bne.w	7cd8 <__aeabi_fmul+0x114>
    7e60:	e75f      	b.n	7d22 <__aeabi_fmul+0x15e>
    7e62:	bf00      	nop

00007e64 <__gesf2>:
    7e64:	f04f 3cff 	mov.w	r12, #4294967295
    7e68:	e006      	b.n	7e78 <__cmpsf2+0x4>
    7e6a:	bf00      	nop

00007e6c <__lesf2>:
    7e6c:	f04f 0c01 	mov.w	r12, #1
    7e70:	e002      	b.n	7e78 <__cmpsf2+0x4>
    7e72:	bf00      	nop

00007e74 <__cmpsf2>:
    7e74:	f04f 0c01 	mov.w	r12, #1
    7e78:	f84d cd04 	str.w	r12, [sp, #-4]!
    7e7c:	ea4f 0240 	mov.w	r2, r0, lsl #1
    7e80:	ea4f 0341 	mov.w	r3, r1, lsl #1
    7e84:	ea7f 6c22 	mvns.w	r12, r2, asr #24
    7e88:	bf18      	it	ne
    7e8a:	ea7f 6c23 	mvnsne.w	r12, r3, asr #24
    7e8e:	d011      	beq.n	7eb4 <__cmpsf2+0x40>
    7e90:	b001      	add	sp, #4
    7e92:	ea52 0c53 	orrs.w	r12, r2, r3, lsr #1
    7e96:	bf18      	it	ne
    7e98:	ea90 0f01 	teqne	r0, r1
    7e9c:	bf58      	it	pl
    7e9e:	ebb2 0003 	subspl.w	r0, r2, r3
    7ea2:	bf88      	it	hi
    7ea4:	17c8      	asrhi	r0, r1, #31
    7ea6:	bf38      	it	cc
    7ea8:	ea6f 70e1 	mvncc.w	r0, r1, asr #31
    7eac:	bf18      	it	ne
    7eae:	f040 0001 	orrne.w	r0, r0, #1
    7eb2:	4770      	bx	lr
    7eb4:	ea7f 6c22 	mvns.w	r12, r2, asr #24
    7eb8:	d102      	bne.n	7ec0 <__cmpsf2+0x4c>
    7eba:	ea5f 2c40 	movs.w	r12, r0, lsl #9
    7ebe:	d105      	bne.n	7ecc <__cmpsf2+0x58>
    7ec0:	ea7f 6c23 	mvns.w	r12, r3, asr #24
    7ec4:	d1e4      	bne.n	7e90 <__cmpsf2+0x1c>
    7ec6:	ea5f 2c41 	movs.w	r12, r1, lsl #9
    7eca:	d0e1      	beq.n	7e90 <__cmpsf2+0x1c>
    7ecc:	f85d 0b04 	ldr.w	r0, [sp], #4
    7ed0:	4770      	bx	lr
    7ed2:	bf00      	nop

00007ed4 <__aeabi_cfrcmple>:
    7ed4:	4684      	mov	r12, r0
    7ed6:	4608      	mov	r0, r1
    7ed8:	4661      	mov	r1, r12
    7eda:	e7ff      	b.n	7edc <__aeabi_cfcmpeq>

00007edc <__aeabi_cfcmpeq>:
    7edc:	b50f      	push	{r0, r1, r2, r3, lr}
    7ede:	f7ff ffc9 	bl	7e74 <__cmpsf2>
    7ee2:	2800      	cmp	r0, #0
    7ee4:	bf48      	it	mi
    7ee6:	f110 0f00 	cmnmi.w	r0, #0
    7eea:	bd0f      	pop	{r0, r1, r2, r3, pc}

00007eec <__aeabi_fcmpeq>:
    7eec:	f84d ed08 	str.w	lr, [sp, #-8]!
    7ef0:	f7ff fff4 	bl	7edc <__aeabi_cfcmpeq>
    7ef4:	bf0c      	ite	eq
    7ef6:	2001      	moveq	r0, #1
    7ef8:	2000      	movne	r0, #0
    7efa:	f85d fb08 	ldr.w	pc, [sp], #8
    7efe:	bf00      	nop

00007f00 <__aeabi_fcmplt>:
    7f00:	f84d ed08 	str.w	lr, [sp, #-8]!
    7f04:	f7ff ffea 	bl	7edc <__aeabi_cfcmpeq>
    7f08:	bf34      	ite	cc
    7f0a:	2001      	movcc	r0, #1
    7f0c:	2000      	movcs	r0, #0
    7f0e:	f85d fb08 	ldr.w	pc, [sp], #8
    7f12:	bf00      	nop

00007f14 <__aeabi_fcmple>:
    7f14:	f84d ed08 	str.w	lr, [sp, #-8]!
    7f18:	f7ff ffe0 	bl	7edc <__aeabi_cfcmpeq>
    7f1c:	bf94      	ite	ls
    7f1e:	2001      	movls	r0, #1
    7f20:	2000      	movhi	r0, #0
    7f22:	f85d fb08 	ldr.w	pc, [sp], #8
    7f26:	bf00      	nop

00007f28 <__aeabi_fcmpge>:
    7f28:	f84d ed08 	str.w	lr, [sp, #-8]!
    7f2c:	f7ff ffd2 	bl	7ed4 <__aeabi_cfrcmple>
    7f30:	bf94      	ite	ls
    7f32:	2001      	movls	r0, #1
    7f34:	2000      	movhi	r0, #0
    7f36:	f85d fb08 	ldr.w	pc, [sp], #8
    7f3a:	bf00      	nop

00007f3c <__aeabi_fcmpgt>:
    7f3c:	f84d ed08 	str.w	lr, [sp, #-8]!
    7f40:	f7ff ffc8 	bl	7ed4 <__aeabi_cfrcmple>
    7f44:	bf34      	ite	cc
    7f46:	2001      	movcc	r0, #1
    7f48:	2000      	movcs	r0, #0
    7f4a:	f85d fb08 	ldr.w	pc, [sp], #8
    7f4e:	bf00      	nop

00007f50 <__aeabi_f2iz>:
    7f50:	ea4f 0240 	mov.w	r2, r0, lsl #1
    7f54:	f1b2 4ffe 	cmp.w	r2, #2130706432	; 0x7f000000
    7f58:	d30f      	bcc.n	7f7a <__aeabi_f2iz+0x2a>
    7f5a:	f04f 039e 	mov.w	r3, #158	; 0x9e
    7f5e:	ebb3 6212 	subs.w	r2, r3, r2, lsr #24
    7f62:	d90d      	bls.n	7f80 <__aeabi_f2iz+0x30>
    7f64:	ea4f 2300 	mov.w	r3, r0, lsl #8
    7f68:	f043 4300 	orr.w	r3, r3, #2147483648	; 0x80000000
    7f6c:	f010 4f00 	tst.w	r0, #2147483648	; 0x80000000
    7f70:	fa23 f002 	lsr.w	r0, r3, r2
    7f74:	bf18      	it	ne
    7f76:	4240      	negne	r0, r0
    7f78:	4770      	bx	lr
    7f7a:	f04f 0000 	mov.w	r0, #0
    7f7e:	4770      	bx	lr
    7f80:	f112 0f61 	cmn.w	r2, #97	; 0x61
    7f84:	d101      	bne.n	7f8a <__aeabi_f2iz+0x3a>
    7f86:	0242      	lsls	r2, r0, #9
    7f88:	d105      	bne.n	7f96 <__aeabi_f2iz+0x46>
    7f8a:	f010 4000 	ands.w	r0, r0, #2147483648	; 0x80000000
    7f8e:	bf08      	it	eq
    7f90:	f06f 4000 	mvneq.w	r0, #2147483648	; 0x80000000
    7f94:	4770      	bx	lr
    7f96:	f04f 0000 	mov.w	r0, #0
    7f9a:	4770      	bx	lr

00007f9c <_getpid>:
    7f9c:	4b02      	ldr	r3, [pc, #8]	; (7fa8 <_getpid+0xc>)
    7f9e:	2258      	movs	r2, #88	; 0x58
    7fa0:	601a      	str	r2, [r3, #0]
    7fa2:	f04f 30ff 	mov.w	r0, #4294967295
    7fa6:	4770      	bx	lr
    7fa8:	100004b0 	.word	0x100004b0

00007fac <_kill>:
    7fac:	4b02      	ldr	r3, [pc, #8]	; (7fb8 <_kill+0xc>)
    7fae:	2258      	movs	r2, #88	; 0x58
    7fb0:	601a      	str	r2, [r3, #0]
    7fb2:	f04f 30ff 	mov.w	r0, #4294967295
    7fb6:	4770      	bx	lr
    7fb8:	100004b0 	.word	0x100004b0

00007fbc <_exit>:
    7fbc:	e7fe      	b.n	7fbc <_exit>
    7fbe:	bf00      	nop

00007fc0 <_init>:
    7fc0:	b5f8      	push	{r3, r4, r5, r6, r7, lr}
    7fc2:	bf00      	nop
    7fc4:	bcf8      	pop	{r3, r4, r5, r6, r7}
    7fc6:	bc08      	pop	{r3}
    7fc8:	469e      	mov	lr, r3
    7fca:	4770      	bx	lr

00007fcc <_fini>:
    7fcc:	b5f8      	push	{r3, r4, r5, r6, r7, lr}
    7fce:	bf00      	nop
    7fd0:	bcf8      	pop	{r3, r4, r5, r6, r7}
    7fd2:	bc08      	pop	{r3}
    7fd4:	469e      	mov	lr, r3
    7fd6:	4770      	bx	lr

00007fd8 <__stdin_name>:
    7fd8:	732f 6474 6e69 0000                         /stdin..

00007fe0 <__stderr_name>:
    7fe0:	732f 6474 7265 0072                         /stderr.

00007fe8 <typeinfo name for mbed::FileHandle>:
    7fe8:	344e 626d 6465 3031 6946 656c 6148 646e     N4mbed10FileHand
    7ff8:	656c 0045                                   leE.

00007ffc <__stdout_name>:
    7ffc:	732f 6474 756f 0074                         /stdout.

00008004 <typeinfo for mbed::FileHandle>:
    8004:	8498 0000 7fe8 0000 0000 0000               ............

00008010 <vtable for mbed::FileHandle>:
    8010:	0000 0000 8004 0000 0811 0000 0811 0000     ................
    8020:	0811 0000 0811 0000 0811 0000 0811 0000     ................
    8030:	04e5 0000 051d 0000 055d 0000 0000 0000     ........].......
    8040:	253a 0070 7845 6563 7470 6f69 006e 0000     :%p.Exception...

00008050 <PinMap_UART_RX>:
    8050:	c001 2009 c000 4009 0002 0000 c003 2009     ... ...@....... 
    8060:	c000 4000 0001 0000 c00b 2009 8000 4009     ...@....... ...@
    8070:	0001 0000 c010 2009 0000 4001 0001 0000     ....... ...@....
    8080:	c01a 2009 c000 4009 0003 0000 c041 2009     ... ...@....A.. 
    8090:	0000 4001 0002 0000 c049 2009 8000 4009     ...@....I.. ...@
    80a0:	0002 0000 c09d 2009 c000 4009 0003 0000     ....... ...@....
    80b0:	ffff ffff ffff ffff 0000 0000 6573 6972     ............seri
    80c0:	6c61 625f 7561 0064 6e49 6176 696c 2064     al_baud.Invalid 
    80d0:	7473 706f 6220 7469 2073 7073 6365 6669     stop bits specif
    80e0:	6569 0064 6e49 6176 696c 2064 756e 626d     ied.Invalid numb
    80f0:	7265 6f20 2066 6962 7374 2820 6425 2029     er of bits (%d) 
    8100:	6e69 7320 7265 6169 206c 6f66 6d72 7461     in serial format
    8110:	202c 6873 756f 646c 6220 2065 2e35 382e     , should be 5..8
    8120:	0000 0000 6e49 6176 696c 2064 6573 6972     ....Invalid seri
    8130:	6c61 7020 7261 7469 2079 6573 7474 6e69     al parity settin
    8140:	0067 0000 6553 6972 6c61 7020 6e69 756f     g...Serial pinou
    8150:	2074 616d 7070 6e69 2067 6166 6c69 6465     t mapping failed
    8160:	0000 0000                                   ....

00008164 <PinMap_UART_TX>:
    8164:	c000 2009 c000 4009 0002 0000 c002 2009     ... ...@....... 
    8174:	c000 4000 0001 0000 c00a 2009 8000 4009     ...@....... ...@
    8184:	0001 0000 c00f 2009 0000 4001 0001 0000     ....... ...@....
    8194:	c019 2009 c000 4009 0003 0000 c040 2009     ... ...@....@.. 
    81a4:	0000 4001 0002 0000 c048 2009 8000 4009     ...@....H.. ...@
    81b4:	0002 0000 c09c 2009 c000 4009 0003 0000     ....... ...@....
    81c4:	ffff ffff ffff ffff 0000 0000 6f63 6c75     ............coul
    81d4:	2064 6f6e 2074 6970 6f6e 7475 0000 0000     d not pinout....
    81e4:	6970 6d6e 7061 6d20 7369 6d2d 7461 6863     pinmap mis-match
    81f4:	0000 0000 6970 6d6e 7061 6e20 746f 6620     ....pinmap not f
    8204:	756f 646e 6620 726f 7020 7265 7069 6568     ound for periphe
    8214:	6172 006c                                   ral.

00008218 <typeinfo name for mbed::Serial>:
    8218:	344e 626d 6465 5336 7265 6169 456c 0000     N4mbed6SerialE..

00008228 <vtable for mbed::Serial>:
    8228:	0000 0000 8270 0000 1195 0000 1191 0000     ....p...........
    8238:	120d 0000 1289 0000 1285 0000 128d 0000     ................
    8248:	1291 0000 019d 0000 02a5 0000 1111 0000     ................
    8258:	1121 0000 fffc ffff 8270 0000 01d1 0000     !.......p.......
    8268:	02b7 0000 0000 0000                         ........

00008270 <typeinfo for mbed::Serial>:
    8270:	83c0 0000 8218 0000 82c8 0000 0000 0000     ................

00008280 <vtable for mbed::Stream>:
    8280:	0000 0000 82c8 0000 1195 0000 1191 0000     ................
    8290:	120d 0000 1289 0000 1285 0000 128d 0000     ................
    82a0:	1291 0000 1295 0000 12c5 0000 0811 0000     ................
    82b0:	0811 0000 fffc ffff 82c8 0000 12bd 0000     ................
    82c0:	12d9 0000 0000 0000                         ........

000082c8 <typeinfo for mbed::Stream>:
    82c8:	83c0 0000 82d8 0000 8340 0000 2b77 0000     ........@...w+..

000082d8 <typeinfo name for mbed::Stream>:
    82d8:	344e 626d 6465 5336 7274 6165 456d 0000     N4mbed6StreamE..

000082e8 <vtable for mbed::CallChain>:
    82e8:	0000 0000 830c 0000 1535 0000 1551 0000     ........5...Q...

000082f8 <typeinfo name for mbed::CallChain>:
    82f8:	344e 626d 6465 4339 6c61 436c 6168 6e69     N4mbed9CallChain
    8308:	0045 0000                                   E...

0000830c <typeinfo for mbed::CallChain>:
    830c:	8498 0000 82f8 0000                         ........

00008314 <typeinfo name for mbed::FileBase>:
    8314:	344e 626d 6465 4638 6c69 4265 7361 4565     N4mbed8FileBaseE
    8324:	0000 0000                                   ....

00008328 <vtable for mbed::FileBase>:
    8328:	0000 0000 8338 0000 1585 0000 15b5 0000     ....8...........

00008338 <typeinfo for mbed::FileBase>:
    8338:	8498 0000 8314 0000                         ........

00008340 <typeinfo for mbed::FileLike>:
    8340:	8454 0000 8360 0000 0000 0000 0002 0000     T...`...........
    8350:	8004 0000 0002 0000 8338 0000 0402 0000     ........8.......

00008360 <typeinfo name for mbed::FileLike>:
    8360:	344e 626d 6465 4638 6c69 4c65 6b69 4565     N4mbed8FileLikeE
	...

00008378 <vtable for mbed::FileLike>:
    8378:	0000 0000 8340 0000 0811 0000 0811 0000     ....@...........
    8388:	0811 0000 0811 0000 0811 0000 0811 0000     ................
    8398:	04e5 0000 1655 0000 1685 0000 fffc ffff     ....U...........
    83a8:	8340 0000 167d 0000 1699 0000 0000 0000     @...}...........

000083b8 <vtable for __cxxabiv1::__si_class_type_info>:
    83b8:	0000 0000 83e4 0000 16f5 0000 1709 0000     ................
    83c8:	1c9f 0000 1c9f 0000 1d87 0000 1ccf 0000     ................
    83d8:	17cf 0000 171b 0000 1797 0000               ............

000083e4 <typeinfo for __cxxabiv1::__si_class_type_info>:
    83e4:	83c0 0000 83f0 0000 84bc 0000               ............

000083f0 <typeinfo name for __cxxabiv1::__si_class_type_info>:
    83f0:	314e 5f30 635f 7878 6261 7669 3231 5f30     N10__cxxabiv120_
    8400:	735f 5f69 6c63 7361 5f73 7974 6570 695f     _si_class_type_i
    8410:	666e 456f 0000 0000                         nfoE....

00008418 <typeinfo for __cxxabiv1::__vmi_class_type_info>:
    8418:	83c0 0000 8424 0000 84bc 0000               ....$.......

00008424 <typeinfo name for __cxxabiv1::__vmi_class_type_info>:
    8424:	314e 5f30 635f 7878 6261 7669 3231 5f31     N10__cxxabiv121_
    8434:	765f 696d 635f 616c 7373 745f 7079 5f65     _vmi_class_type_
    8444:	6e69 6f66 0045 0000                         infoE...

0000844c <vtable for __cxxabiv1::__vmi_class_type_info>:
    844c:	0000 0000 8418 0000 17f9 0000 180d 0000     ................
    845c:	1c9f 0000 1c9f 0000 1d87 0000 1ccf 0000     ................
    846c:	1b4b 0000 18bd 0000 181f 0000               K...........

00008478 <typeinfo for std::type_info>:
    8478:	8498 0000 8480 0000                         ........

00008480 <typeinfo name for std::type_info>:
    8480:	7453 7439 7079 5f65 6e69 6f66 0000 0000     St9type_info....

00008490 <vtable for __cxxabiv1::__class_type_info>:
    8490:	0000 0000 84bc 0000 1d11 0000 1d25 0000     ............%...
    84a0:	1c9f 0000 1c9f 0000 1d87 0000 1ccf 0000     ................
    84b0:	1d37 0000 1d4f 0000 1d03 0000               7...O.......

000084bc <typeinfo for __cxxabiv1::__class_type_info>:
    84bc:	83c0 0000 84c8 0000 8478 0000               ........x...

000084c8 <typeinfo name for __cxxabiv1::__class_type_info>:
    84c8:	314e 5f30 635f 7878 6261 7669 3131 5f37     N10__cxxabiv117_
    84d8:	635f 616c 7373 745f 7079 5f65 6e69 6f66     _class_type_info
    84e8:	0045 0000                                   E...

000084ec <__sf_fake_stdin>:
	...

0000850c <__sf_fake_stdout>:
	...

0000852c <__sf_fake_stderr>:
	...

0000854c <_global_impure_ptr>:
    854c:	00d8 1000 2d23 2b30 0020 6c68 004c 6665     ....#-0+ .hlL.ef
    855c:	4567 4746 4900 464e 6900 666e 4e00 4e41     gEFG.INF.inf.NAN
    856c:	6e00 6e61 3000 3231 3433 3635 3837 4139     .nan.0123456789A
    857c:	4342 4544 0046 3130 3332 3534 3736 3938     BCDEF.0123456789
    858c:	6261 6463 6665 6500 6c25 0064 85b6 0000     abcdef.e%ld.....
    859c:	85b9 0000 85bc 0000 2d41 6146 662d 3938     ........A-Fa-f89
    85ac:	3130 3332 3534 3736 005d 2d2b 3000 0030     01234567].+-.00.
    85bc:	5878 0000                                   xX..

000085c0 <tinytens>:
    85c0:	89bc 97d8 d2b2 3c9c a733 d5a8 f623 3949     .......<3...#.I9
    85d0:	a73d 44f4 0ffd 32a5 979d cf8c ba08 255b     =..D...2......[%
    85e0:	6f43 64ac 0628 1168                         Co.d(.h.

000085e8 <fpi.6179>:
    85e8:	0035 0000 fbce ffff 03cb 0000 0001 0000     5...............
    85f8:	0000 0000                                   ....

000085fc <fpinan.6215>:
    85fc:	0034 0000 fbce ffff 03cb 0000 0001 0000     4...............
    860c:	0000 0000 6e49 6966 696e 7974 4e00 4e61     ....Infinity.NaN
    861c:	4300 5000 534f 5849 2e00 0000               .C.POSIX....

00008628 <__mprec_tens>:
    8628:	0000 0000 0000 3ff0 0000 0000 0000 4024     .......?......$@
    8638:	0000 0000 0000 4059 0000 0000 4000 408f     ......Y@.....@.@
    8648:	0000 0000 8800 40c3 0000 0000 6a00 40f8     .......@.....j.@
    8658:	0000 0000 8480 412e 0000 0000 12d0 4163     .......A......cA
    8668:	0000 0000 d784 4197 0000 0000 cd65 41cd     .......A....e..A
    8678:	0000 2000 a05f 4202 0000 e800 4876 4237     ... _..B....vH7B
    8688:	0000 a200 1a94 426d 0000 e540 309c 42a2     ......mB..@..0.B
    8698:	0000 1e90 bcc4 42d6 0000 2634 6bf5 430c     .......B..4&.k.C
    86a8:	8000 37e0 c379 4341 a000 85d8 3457 4376     ...7y.AC....W4vC
    86b8:	c800 674e c16d 43ab 3d00 6091 58e4 43e1     ..Ngm..C.=.`.X.C
    86c8:	8c40 78b5 af1d 4415 ef50 d6e2 1ae4 444b     @..x...DP.....KD
    86d8:	d592 064d f0cf 4480 4af6 c7e1 2d02 44b5     ..M....D.J...-.D
    86e8:	9db4 79d9 7843 44ea                         ...yCx.D

000086f0 <__mprec_bigtens>:
    86f0:	8000 37e0 c379 4341 6e17 b505 b8b5 4693     ...7y.AC.n.....F
    8700:	f9f5 e93f 4f03 4d38 1d32 f930 7748 5a82     ..?..O8M2.0.Hw.Z
    8710:	bf3c 7f73 4fdd 7515                         <.s..O.u

00008718 <p05.6097>:
    8718:	0005 0000 0019 0000 007d 0000               ........}...

00008724 <_ctype_>:
    8724:	2000 2020 2020 2020 2020 2828 2828 2028     .         ((((( 
    8734:	2020 2020 2020 2020 2020 2020 2020 2020                     
    8744:	8820 1010 1010 1010 1010 1010 1010 1010      ...............
    8754:	0410 0404 0404 0404 0404 1004 1010 1010     ................
    8764:	1010 4141 4141 4141 0101 0101 0101 0101     ..AAAAAA........
    8774:	0101 0101 0101 0101 0101 0101 1010 1010     ................
    8784:	1010 4242 4242 4242 0202 0202 0202 0202     ..BBBBBB........
    8794:	0202 0202 0202 0202 0202 0202 1010 1010     ................
    87a4:	0020 0000 0000 0000 0000 0000 0000 0000      ...............
	...

00008828 <__EH_FRAME_BEGIN__>:
    8828:	0000 0000                                   ....
